SF:C:\Users\s2010\Me\Codes\Rust\wgpu-3dgs-core\src\buffer\gaussian.rs
FN:208,_RNvXs0_NtNtCsap2RCL79A4I_14wgpu_3dgs_core6buffer8gaussianNtNtNtCsebiihMPZ3Ak_4wgpu3api6buffer6BufferINtNtCsmHtFwzCQ9E_4core7convert4FromINtB5_15GaussiansBufferNtB5_37GaussianPodWithShHalfCov3dHalfConfigsEE4fromCslQCpptksoiT_3mod
FN:208,_RNvXs0_NtNtCsap2RCL79A4I_14wgpu_3dgs_core6buffer8gaussianNtNtNtCsebiihMPZ3Ak_4wgpu3api6buffer6BufferINtNtCsmHtFwzCQ9E_4core7convert4FromINtB5_15GaussiansBufferNtB5_37GaussianPodWithShNoneCov3dHalfConfigsEE4fromCslQCpptksoiT_3mod
FN:208,_RNvXs0_NtNtCsap2RCL79A4I_14wgpu_3dgs_core6buffer8gaussianNtNtNtCsebiihMPZ3Ak_4wgpu3api6buffer6BufferINtNtCsmHtFwzCQ9E_4core7convert4FromINtB5_15GaussiansBufferNtB5_38GaussianPodWithShNorm8Cov3dHalfConfigsEE4fromCslQCpptksoiT_3mod
FN:208,_RNvXs0_NtNtCsap2RCL79A4I_14wgpu_3dgs_core6buffer8gaussianNtNtNtCsebiihMPZ3Ak_4wgpu3api6buffer6BufferINtNtCsmHtFwzCQ9E_4core7convert4FromINtB5_15GaussiansBufferNtB5_39GaussianPodWithShHalfCov3dSingleConfigsEE4fromCslQCpptksoiT_3mod
FN:208,_RNvXs0_NtNtCsap2RCL79A4I_14wgpu_3dgs_core6buffer8gaussianNtNtNtCsebiihMPZ3Ak_4wgpu3api6buffer6BufferINtNtCsmHtFwzCQ9E_4core7convert4FromINtB5_15GaussiansBufferNtB5_39GaussianPodWithShNoneCov3dSingleConfigsEE4fromCslQCpptksoiT_3mod
FN:208,_RNvXs0_NtNtCsap2RCL79A4I_14wgpu_3dgs_core6buffer8gaussianNtNtNtCsebiihMPZ3Ak_4wgpu3api6buffer6BufferINtNtCsmHtFwzCQ9E_4core7convert4FromINtB5_15GaussiansBufferNtB5_39GaussianPodWithShSingleCov3dHalfConfigsEE4fromCslQCpptksoiT_3mod
FN:208,_RNvXs0_NtNtCsap2RCL79A4I_14wgpu_3dgs_core6buffer8gaussianNtNtNtCsebiihMPZ3Ak_4wgpu3api6buffer6BufferINtNtCsmHtFwzCQ9E_4core7convert4FromINtB5_15GaussiansBufferNtB5_40GaussianPodWithShNorm8Cov3dSingleConfigsEE4fromCslQCpptksoiT_3mod
FN:208,_RNvXs0_NtNtCsap2RCL79A4I_14wgpu_3dgs_core6buffer8gaussianNtNtNtCsebiihMPZ3Ak_4wgpu3api6buffer6BufferINtNtCsmHtFwzCQ9E_4core7convert4FromINtB5_15GaussiansBufferNtB5_41GaussianPodWithShHalfCov3dRotScaleConfigsEE4fromCslQCpptksoiT_3mod
FN:208,_RNvXs0_NtNtCsap2RCL79A4I_14wgpu_3dgs_core6buffer8gaussianNtNtNtCsebiihMPZ3Ak_4wgpu3api6buffer6BufferINtNtCsmHtFwzCQ9E_4core7convert4FromINtB5_15GaussiansBufferNtB5_41GaussianPodWithShNoneCov3dRotScaleConfigsEE4fromCslQCpptksoiT_3mod
FN:208,_RNvXs0_NtNtCsap2RCL79A4I_14wgpu_3dgs_core6buffer8gaussianNtNtNtCsebiihMPZ3Ak_4wgpu3api6buffer6BufferINtNtCsmHtFwzCQ9E_4core7convert4FromINtB5_15GaussiansBufferNtB5_41GaussianPodWithShSingleCov3dSingleConfigsEE4fromCslQCpptksoiT_3mod
FN:208,_RNvXs0_NtNtCsap2RCL79A4I_14wgpu_3dgs_core6buffer8gaussianNtNtNtCsebiihMPZ3Ak_4wgpu3api6buffer6BufferINtNtCsmHtFwzCQ9E_4core7convert4FromINtB5_15GaussiansBufferNtB5_42GaussianPodWithShNorm8Cov3dRotScaleConfigsEE4fromCslQCpptksoiT_3mod
FN:208,_RNvXs0_NtNtCsap2RCL79A4I_14wgpu_3dgs_core6buffer8gaussianNtNtNtCsebiihMPZ3Ak_4wgpu3api6buffer6BufferINtNtCsmHtFwzCQ9E_4core7convert4FromINtB5_15GaussiansBufferNtB5_43GaussianPodWithShSingleCov3dRotScaleConfigsEE4fromCslQCpptksoiT_3mod
FN:33,_RINvMNtNtCsap2RCL79A4I_14wgpu_3dgs_core6buffer8gaussianINtB3_15GaussiansBufferNtB3_37GaussianPodWithShHalfCov3dHalfConfigsE14new_with_usageINtNtCsj4FhK7DZU1O_5alloc3vec3VecNtNtB7_8gaussian8GaussianEECslQCpptksoiT_3mod
FN:21,_RINvMNtNtCsap2RCL79A4I_14wgpu_3dgs_core6buffer8gaussianINtB3_15GaussiansBufferNtB3_37GaussianPodWithShHalfCov3dHalfConfigsE3newINtNtCsj4FhK7DZU1O_5alloc3vec3VecNtNtB7_8gaussian8GaussianEECslQCpptksoiT_3mod
FN:104,_RINvMNtNtCsap2RCL79A4I_14wgpu_3dgs_core6buffer8gaussianINtB3_15GaussiansBufferNtB3_37GaussianPodWithShHalfCov3dHalfConfigsE6updateINtNtCsj4FhK7DZU1O_5alloc3vec3VecNtNtB7_8gaussian8GaussianEECslQCpptksoiT_3mod
FN:33,_RINvMNtNtCsap2RCL79A4I_14wgpu_3dgs_core6buffer8gaussianINtB3_15GaussiansBufferNtB3_37GaussianPodWithShNoneCov3dHalfConfigsE14new_with_usageINtNtCsj4FhK7DZU1O_5alloc3vec3VecNtNtB7_8gaussian8GaussianEECslQCpptksoiT_3mod
FN:21,_RINvMNtNtCsap2RCL79A4I_14wgpu_3dgs_core6buffer8gaussianINtB3_15GaussiansBufferNtB3_37GaussianPodWithShNoneCov3dHalfConfigsE3newINtNtCsj4FhK7DZU1O_5alloc3vec3VecNtNtB7_8gaussian8GaussianEECslQCpptksoiT_3mod
FN:104,_RINvMNtNtCsap2RCL79A4I_14wgpu_3dgs_core6buffer8gaussianINtB3_15GaussiansBufferNtB3_37GaussianPodWithShNoneCov3dHalfConfigsE6updateINtNtCsj4FhK7DZU1O_5alloc3vec3VecNtNtB7_8gaussian8GaussianEECslQCpptksoiT_3mod
FN:33,_RINvMNtNtCsap2RCL79A4I_14wgpu_3dgs_core6buffer8gaussianINtB3_15GaussiansBufferNtB3_38GaussianPodWithShNorm8Cov3dHalfConfigsE14new_with_usageINtNtCsj4FhK7DZU1O_5alloc3vec3VecNtNtB7_8gaussian8GaussianEECslQCpptksoiT_3mod
FN:21,_RINvMNtNtCsap2RCL79A4I_14wgpu_3dgs_core6buffer8gaussianINtB3_15GaussiansBufferNtB3_38GaussianPodWithShNorm8Cov3dHalfConfigsE3newINtNtCsj4FhK7DZU1O_5alloc3vec3VecNtNtB7_8gaussian8GaussianEECslQCpptksoiT_3mod
FN:104,_RINvMNtNtCsap2RCL79A4I_14wgpu_3dgs_core6buffer8gaussianINtB3_15GaussiansBufferNtB3_38GaussianPodWithShNorm8Cov3dHalfConfigsE6updateINtNtCsj4FhK7DZU1O_5alloc3vec3VecNtNtB7_8gaussian8GaussianEECslQCpptksoiT_3mod
FN:33,_RINvMNtNtCsap2RCL79A4I_14wgpu_3dgs_core6buffer8gaussianINtB3_15GaussiansBufferNtB3_39GaussianPodWithShHalfCov3dSingleConfigsE14new_with_usageINtNtCsj4FhK7DZU1O_5alloc3vec3VecNtNtB7_8gaussian8GaussianEECslQCpptksoiT_3mod
FN:21,_RINvMNtNtCsap2RCL79A4I_14wgpu_3dgs_core6buffer8gaussianINtB3_15GaussiansBufferNtB3_39GaussianPodWithShHalfCov3dSingleConfigsE3newINtNtCsj4FhK7DZU1O_5alloc3vec3VecNtNtB7_8gaussian8GaussianEECslQCpptksoiT_3mod
FN:104,_RINvMNtNtCsap2RCL79A4I_14wgpu_3dgs_core6buffer8gaussianINtB3_15GaussiansBufferNtB3_39GaussianPodWithShHalfCov3dSingleConfigsE6updateINtNtCsj4FhK7DZU1O_5alloc3vec3VecNtNtB7_8gaussian8GaussianEECslQCpptksoiT_3mod
FN:33,_RINvMNtNtCsap2RCL79A4I_14wgpu_3dgs_core6buffer8gaussianINtB3_15GaussiansBufferNtB3_39GaussianPodWithShNoneCov3dSingleConfigsE14new_with_usageINtNtCsj4FhK7DZU1O_5alloc3vec3VecNtNtB7_8gaussian8GaussianEECslQCpptksoiT_3mod
FN:21,_RINvMNtNtCsap2RCL79A4I_14wgpu_3dgs_core6buffer8gaussianINtB3_15GaussiansBufferNtB3_39GaussianPodWithShNoneCov3dSingleConfigsE3newINtNtCsj4FhK7DZU1O_5alloc3vec3VecNtNtB7_8gaussian8GaussianEECslQCpptksoiT_3mod
FN:104,_RINvMNtNtCsap2RCL79A4I_14wgpu_3dgs_core6buffer8gaussianINtB3_15GaussiansBufferNtB3_39GaussianPodWithShNoneCov3dSingleConfigsE6updateINtNtCsj4FhK7DZU1O_5alloc3vec3VecNtNtB7_8gaussian8GaussianEECslQCpptksoiT_3mod
FN:33,_RINvMNtNtCsap2RCL79A4I_14wgpu_3dgs_core6buffer8gaussianINtB3_15GaussiansBufferNtB3_39GaussianPodWithShSingleCov3dHalfConfigsE14new_with_usageINtNtCsj4FhK7DZU1O_5alloc3vec3VecNtNtB7_8gaussian8GaussianEECslQCpptksoiT_3mod
FN:21,_RINvMNtNtCsap2RCL79A4I_14wgpu_3dgs_core6buffer8gaussianINtB3_15GaussiansBufferNtB3_39GaussianPodWithShSingleCov3dHalfConfigsE3newINtNtCsj4FhK7DZU1O_5alloc3vec3VecNtNtB7_8gaussian8GaussianEECslQCpptksoiT_3mod
FN:104,_RINvMNtNtCsap2RCL79A4I_14wgpu_3dgs_core6buffer8gaussianINtB3_15GaussiansBufferNtB3_39GaussianPodWithShSingleCov3dHalfConfigsE6updateINtNtCsj4FhK7DZU1O_5alloc3vec3VecNtNtB7_8gaussian8GaussianEECslQCpptksoiT_3mod
FN:33,_RINvMNtNtCsap2RCL79A4I_14wgpu_3dgs_core6buffer8gaussianINtB3_15GaussiansBufferNtB3_40GaussianPodWithShNorm8Cov3dSingleConfigsE14new_with_usageINtNtCsj4FhK7DZU1O_5alloc3vec3VecNtNtB7_8gaussian8GaussianEECslQCpptksoiT_3mod
FN:21,_RINvMNtNtCsap2RCL79A4I_14wgpu_3dgs_core6buffer8gaussianINtB3_15GaussiansBufferNtB3_40GaussianPodWithShNorm8Cov3dSingleConfigsE3newINtNtCsj4FhK7DZU1O_5alloc3vec3VecNtNtB7_8gaussian8GaussianEECslQCpptksoiT_3mod
FN:104,_RINvMNtNtCsap2RCL79A4I_14wgpu_3dgs_core6buffer8gaussianINtB3_15GaussiansBufferNtB3_40GaussianPodWithShNorm8Cov3dSingleConfigsE6updateINtNtCsj4FhK7DZU1O_5alloc3vec3VecNtNtB7_8gaussian8GaussianEECslQCpptksoiT_3mod
FN:33,_RINvMNtNtCsap2RCL79A4I_14wgpu_3dgs_core6buffer8gaussianINtB3_15GaussiansBufferNtB3_41GaussianPodWithShHalfCov3dRotScaleConfigsE14new_with_usageINtNtCsj4FhK7DZU1O_5alloc3vec3VecNtNtB7_8gaussian8GaussianEECslQCpptksoiT_3mod
FN:21,_RINvMNtNtCsap2RCL79A4I_14wgpu_3dgs_core6buffer8gaussianINtB3_15GaussiansBufferNtB3_41GaussianPodWithShHalfCov3dRotScaleConfigsE3newINtNtCsj4FhK7DZU1O_5alloc3vec3VecNtNtB7_8gaussian8GaussianEECslQCpptksoiT_3mod
FN:104,_RINvMNtNtCsap2RCL79A4I_14wgpu_3dgs_core6buffer8gaussianINtB3_15GaussiansBufferNtB3_41GaussianPodWithShHalfCov3dRotScaleConfigsE6updateINtNtCsj4FhK7DZU1O_5alloc3vec3VecNtNtB7_8gaussian8GaussianEECslQCpptksoiT_3mod
FN:33,_RINvMNtNtCsap2RCL79A4I_14wgpu_3dgs_core6buffer8gaussianINtB3_15GaussiansBufferNtB3_41GaussianPodWithShNoneCov3dRotScaleConfigsE14new_with_usageINtNtCsj4FhK7DZU1O_5alloc3vec3VecNtNtB7_8gaussian8GaussianEECslQCpptksoiT_3mod
FN:21,_RINvMNtNtCsap2RCL79A4I_14wgpu_3dgs_core6buffer8gaussianINtB3_15GaussiansBufferNtB3_41GaussianPodWithShNoneCov3dRotScaleConfigsE3newINtNtCsj4FhK7DZU1O_5alloc3vec3VecNtNtB7_8gaussian8GaussianEECslQCpptksoiT_3mod
FN:104,_RINvMNtNtCsap2RCL79A4I_14wgpu_3dgs_core6buffer8gaussianINtB3_15GaussiansBufferNtB3_41GaussianPodWithShNoneCov3dRotScaleConfigsE6updateINtNtCsj4FhK7DZU1O_5alloc3vec3VecNtNtB7_8gaussian8GaussianEECslQCpptksoiT_3mod
FN:33,_RINvMNtNtCsap2RCL79A4I_14wgpu_3dgs_core6buffer8gaussianINtB3_15GaussiansBufferNtB3_41GaussianPodWithShSingleCov3dSingleConfigsE14new_with_usageINtNtCsj4FhK7DZU1O_5alloc3vec3VecNtNtB7_8gaussian8GaussianEECslQCpptksoiT_3mod
FN:21,_RINvMNtNtCsap2RCL79A4I_14wgpu_3dgs_core6buffer8gaussianINtB3_15GaussiansBufferNtB3_41GaussianPodWithShSingleCov3dSingleConfigsE3newINtNtCsj4FhK7DZU1O_5alloc3vec3VecNtNtB7_8gaussian8GaussianEECslQCpptksoiT_3mod
FN:104,_RINvMNtNtCsap2RCL79A4I_14wgpu_3dgs_core6buffer8gaussianINtB3_15GaussiansBufferNtB3_41GaussianPodWithShSingleCov3dSingleConfigsE6updateINtNtCsj4FhK7DZU1O_5alloc3vec3VecNtNtB7_8gaussian8GaussianEECslQCpptksoiT_3mod
FN:33,_RINvMNtNtCsap2RCL79A4I_14wgpu_3dgs_core6buffer8gaussianINtB3_15GaussiansBufferNtB3_42GaussianPodWithShNorm8Cov3dRotScaleConfigsE14new_with_usageINtNtCsj4FhK7DZU1O_5alloc3vec3VecNtNtB7_8gaussian8GaussianEECslQCpptksoiT_3mod
FN:21,_RINvMNtNtCsap2RCL79A4I_14wgpu_3dgs_core6buffer8gaussianINtB3_15GaussiansBufferNtB3_42GaussianPodWithShNorm8Cov3dRotScaleConfigsE3newINtNtCsj4FhK7DZU1O_5alloc3vec3VecNtNtB7_8gaussian8GaussianEECslQCpptksoiT_3mod
FN:104,_RINvMNtNtCsap2RCL79A4I_14wgpu_3dgs_core6buffer8gaussianINtB3_15GaussiansBufferNtB3_42GaussianPodWithShNorm8Cov3dRotScaleConfigsE6updateINtNtCsj4FhK7DZU1O_5alloc3vec3VecNtNtB7_8gaussian8GaussianEECslQCpptksoiT_3mod
FN:33,_RINvMNtNtCsap2RCL79A4I_14wgpu_3dgs_core6buffer8gaussianINtB3_15GaussiansBufferNtB3_43GaussianPodWithShSingleCov3dRotScaleConfigsE14new_with_usageINtNtCsj4FhK7DZU1O_5alloc3vec3VecNtNtB7_8gaussian8GaussianEECslQCpptksoiT_3mod
FN:21,_RINvMNtNtCsap2RCL79A4I_14wgpu_3dgs_core6buffer8gaussianINtB3_15GaussiansBufferNtB3_43GaussianPodWithShSingleCov3dRotScaleConfigsE3newINtNtCsj4FhK7DZU1O_5alloc3vec3VecNtNtB7_8gaussian8GaussianEECslQCpptksoiT_3mod
FN:104,_RINvMNtNtCsap2RCL79A4I_14wgpu_3dgs_core6buffer8gaussianINtB3_15GaussiansBufferNtB3_43GaussianPodWithShSingleCov3dRotScaleConfigsE6updateINtNtCsj4FhK7DZU1O_5alloc3vec3VecNtNtB7_8gaussian8GaussianEECslQCpptksoiT_3mod
FN:42,_RNCINvMNtNtCsap2RCL79A4I_14wgpu_3dgs_core6buffer8gaussianINtB5_15GaussiansBufferNtB5_37GaussianPodWithShHalfCov3dHalfConfigsE14new_with_usageINtNtCsj4FhK7DZU1O_5alloc3vec3VecNtNtB9_8gaussian8GaussianEE0CslQCpptksoiT_3mod
FN:26,_RNCINvMNtNtCsap2RCL79A4I_14wgpu_3dgs_core6buffer8gaussianINtB5_15GaussiansBufferNtB5_37GaussianPodWithShHalfCov3dHalfConfigsE3newINtNtCsj4FhK7DZU1O_5alloc3vec3VecNtNtB9_8gaussian8GaussianEE0CslQCpptksoiT_3mod
FN:113,_RNCINvMNtNtCsap2RCL79A4I_14wgpu_3dgs_core6buffer8gaussianINtB5_15GaussiansBufferNtB5_37GaussianPodWithShHalfCov3dHalfConfigsE6updateINtNtCsj4FhK7DZU1O_5alloc3vec3VecNtNtB9_8gaussian8GaussianEE0CslQCpptksoiT_3mod
FN:42,_RNCINvMNtNtCsap2RCL79A4I_14wgpu_3dgs_core6buffer8gaussianINtB5_15GaussiansBufferNtB5_37GaussianPodWithShNoneCov3dHalfConfigsE14new_with_usageINtNtCsj4FhK7DZU1O_5alloc3vec3VecNtNtB9_8gaussian8GaussianEE0CslQCpptksoiT_3mod
FN:26,_RNCINvMNtNtCsap2RCL79A4I_14wgpu_3dgs_core6buffer8gaussianINtB5_15GaussiansBufferNtB5_37GaussianPodWithShNoneCov3dHalfConfigsE3newINtNtCsj4FhK7DZU1O_5alloc3vec3VecNtNtB9_8gaussian8GaussianEE0CslQCpptksoiT_3mod
FN:113,_RNCINvMNtNtCsap2RCL79A4I_14wgpu_3dgs_core6buffer8gaussianINtB5_15GaussiansBufferNtB5_37GaussianPodWithShNoneCov3dHalfConfigsE6updateINtNtCsj4FhK7DZU1O_5alloc3vec3VecNtNtB9_8gaussian8GaussianEE0CslQCpptksoiT_3mod
FN:42,_RNCINvMNtNtCsap2RCL79A4I_14wgpu_3dgs_core6buffer8gaussianINtB5_15GaussiansBufferNtB5_38GaussianPodWithShNorm8Cov3dHalfConfigsE14new_with_usageINtNtCsj4FhK7DZU1O_5alloc3vec3VecNtNtB9_8gaussian8GaussianEE0CslQCpptksoiT_3mod
FN:26,_RNCINvMNtNtCsap2RCL79A4I_14wgpu_3dgs_core6buffer8gaussianINtB5_15GaussiansBufferNtB5_38GaussianPodWithShNorm8Cov3dHalfConfigsE3newINtNtCsj4FhK7DZU1O_5alloc3vec3VecNtNtB9_8gaussian8GaussianEE0CslQCpptksoiT_3mod
FN:113,_RNCINvMNtNtCsap2RCL79A4I_14wgpu_3dgs_core6buffer8gaussianINtB5_15GaussiansBufferNtB5_38GaussianPodWithShNorm8Cov3dHalfConfigsE6updateINtNtCsj4FhK7DZU1O_5alloc3vec3VecNtNtB9_8gaussian8GaussianEE0CslQCpptksoiT_3mod
FN:42,_RNCINvMNtNtCsap2RCL79A4I_14wgpu_3dgs_core6buffer8gaussianINtB5_15GaussiansBufferNtB5_39GaussianPodWithShHalfCov3dSingleConfigsE14new_with_usageINtNtCsj4FhK7DZU1O_5alloc3vec3VecNtNtB9_8gaussian8GaussianEE0CslQCpptksoiT_3mod
FN:26,_RNCINvMNtNtCsap2RCL79A4I_14wgpu_3dgs_core6buffer8gaussianINtB5_15GaussiansBufferNtB5_39GaussianPodWithShHalfCov3dSingleConfigsE3newINtNtCsj4FhK7DZU1O_5alloc3vec3VecNtNtB9_8gaussian8GaussianEE0CslQCpptksoiT_3mod
FN:113,_RNCINvMNtNtCsap2RCL79A4I_14wgpu_3dgs_core6buffer8gaussianINtB5_15GaussiansBufferNtB5_39GaussianPodWithShHalfCov3dSingleConfigsE6updateINtNtCsj4FhK7DZU1O_5alloc3vec3VecNtNtB9_8gaussian8GaussianEE0CslQCpptksoiT_3mod
FN:42,_RNCINvMNtNtCsap2RCL79A4I_14wgpu_3dgs_core6buffer8gaussianINtB5_15GaussiansBufferNtB5_39GaussianPodWithShNoneCov3dSingleConfigsE14new_with_usageINtNtCsj4FhK7DZU1O_5alloc3vec3VecNtNtB9_8gaussian8GaussianEE0CslQCpptksoiT_3mod
FN:26,_RNCINvMNtNtCsap2RCL79A4I_14wgpu_3dgs_core6buffer8gaussianINtB5_15GaussiansBufferNtB5_39GaussianPodWithShNoneCov3dSingleConfigsE3newINtNtCsj4FhK7DZU1O_5alloc3vec3VecNtNtB9_8gaussian8GaussianEE0CslQCpptksoiT_3mod
FN:113,_RNCINvMNtNtCsap2RCL79A4I_14wgpu_3dgs_core6buffer8gaussianINtB5_15GaussiansBufferNtB5_39GaussianPodWithShNoneCov3dSingleConfigsE6updateINtNtCsj4FhK7DZU1O_5alloc3vec3VecNtNtB9_8gaussian8GaussianEE0CslQCpptksoiT_3mod
FN:42,_RNCINvMNtNtCsap2RCL79A4I_14wgpu_3dgs_core6buffer8gaussianINtB5_15GaussiansBufferNtB5_39GaussianPodWithShSingleCov3dHalfConfigsE14new_with_usageINtNtCsj4FhK7DZU1O_5alloc3vec3VecNtNtB9_8gaussian8GaussianEE0CslQCpptksoiT_3mod
FN:26,_RNCINvMNtNtCsap2RCL79A4I_14wgpu_3dgs_core6buffer8gaussianINtB5_15GaussiansBufferNtB5_39GaussianPodWithShSingleCov3dHalfConfigsE3newINtNtCsj4FhK7DZU1O_5alloc3vec3VecNtNtB9_8gaussian8GaussianEE0CslQCpptksoiT_3mod
FN:113,_RNCINvMNtNtCsap2RCL79A4I_14wgpu_3dgs_core6buffer8gaussianINtB5_15GaussiansBufferNtB5_39GaussianPodWithShSingleCov3dHalfConfigsE6updateINtNtCsj4FhK7DZU1O_5alloc3vec3VecNtNtB9_8gaussian8GaussianEE0CslQCpptksoiT_3mod
FN:42,_RNCINvMNtNtCsap2RCL79A4I_14wgpu_3dgs_core6buffer8gaussianINtB5_15GaussiansBufferNtB5_40GaussianPodWithShNorm8Cov3dSingleConfigsE14new_with_usageINtNtCsj4FhK7DZU1O_5alloc3vec3VecNtNtB9_8gaussian8GaussianEE0CslQCpptksoiT_3mod
FN:26,_RNCINvMNtNtCsap2RCL79A4I_14wgpu_3dgs_core6buffer8gaussianINtB5_15GaussiansBufferNtB5_40GaussianPodWithShNorm8Cov3dSingleConfigsE3newINtNtCsj4FhK7DZU1O_5alloc3vec3VecNtNtB9_8gaussian8GaussianEE0CslQCpptksoiT_3mod
FN:113,_RNCINvMNtNtCsap2RCL79A4I_14wgpu_3dgs_core6buffer8gaussianINtB5_15GaussiansBufferNtB5_40GaussianPodWithShNorm8Cov3dSingleConfigsE6updateINtNtCsj4FhK7DZU1O_5alloc3vec3VecNtNtB9_8gaussian8GaussianEE0CslQCpptksoiT_3mod
FN:42,_RNCINvMNtNtCsap2RCL79A4I_14wgpu_3dgs_core6buffer8gaussianINtB5_15GaussiansBufferNtB5_41GaussianPodWithShHalfCov3dRotScaleConfigsE14new_with_usageINtNtCsj4FhK7DZU1O_5alloc3vec3VecNtNtB9_8gaussian8GaussianEE0CslQCpptksoiT_3mod
FN:26,_RNCINvMNtNtCsap2RCL79A4I_14wgpu_3dgs_core6buffer8gaussianINtB5_15GaussiansBufferNtB5_41GaussianPodWithShHalfCov3dRotScaleConfigsE3newINtNtCsj4FhK7DZU1O_5alloc3vec3VecNtNtB9_8gaussian8GaussianEE0CslQCpptksoiT_3mod
FN:113,_RNCINvMNtNtCsap2RCL79A4I_14wgpu_3dgs_core6buffer8gaussianINtB5_15GaussiansBufferNtB5_41GaussianPodWithShHalfCov3dRotScaleConfigsE6updateINtNtCsj4FhK7DZU1O_5alloc3vec3VecNtNtB9_8gaussian8GaussianEE0CslQCpptksoiT_3mod
FN:42,_RNCINvMNtNtCsap2RCL79A4I_14wgpu_3dgs_core6buffer8gaussianINtB5_15GaussiansBufferNtB5_41GaussianPodWithShNoneCov3dRotScaleConfigsE14new_with_usageINtNtCsj4FhK7DZU1O_5alloc3vec3VecNtNtB9_8gaussian8GaussianEE0CslQCpptksoiT_3mod
FN:26,_RNCINvMNtNtCsap2RCL79A4I_14wgpu_3dgs_core6buffer8gaussianINtB5_15GaussiansBufferNtB5_41GaussianPodWithShNoneCov3dRotScaleConfigsE3newINtNtCsj4FhK7DZU1O_5alloc3vec3VecNtNtB9_8gaussian8GaussianEE0CslQCpptksoiT_3mod
FN:113,_RNCINvMNtNtCsap2RCL79A4I_14wgpu_3dgs_core6buffer8gaussianINtB5_15GaussiansBufferNtB5_41GaussianPodWithShNoneCov3dRotScaleConfigsE6updateINtNtCsj4FhK7DZU1O_5alloc3vec3VecNtNtB9_8gaussian8GaussianEE0CslQCpptksoiT_3mod
FN:42,_RNCINvMNtNtCsap2RCL79A4I_14wgpu_3dgs_core6buffer8gaussianINtB5_15GaussiansBufferNtB5_41GaussianPodWithShSingleCov3dSingleConfigsE14new_with_usageINtNtCsj4FhK7DZU1O_5alloc3vec3VecNtNtB9_8gaussian8GaussianEE0CslQCpptksoiT_3mod
FN:26,_RNCINvMNtNtCsap2RCL79A4I_14wgpu_3dgs_core6buffer8gaussianINtB5_15GaussiansBufferNtB5_41GaussianPodWithShSingleCov3dSingleConfigsE3newINtNtCsj4FhK7DZU1O_5alloc3vec3VecNtNtB9_8gaussian8GaussianEE0CslQCpptksoiT_3mod
FN:113,_RNCINvMNtNtCsap2RCL79A4I_14wgpu_3dgs_core6buffer8gaussianINtB5_15GaussiansBufferNtB5_41GaussianPodWithShSingleCov3dSingleConfigsE6updateINtNtCsj4FhK7DZU1O_5alloc3vec3VecNtNtB9_8gaussian8GaussianEE0CslQCpptksoiT_3mod
FN:42,_RNCINvMNtNtCsap2RCL79A4I_14wgpu_3dgs_core6buffer8gaussianINtB5_15GaussiansBufferNtB5_42GaussianPodWithShNorm8Cov3dRotScaleConfigsE14new_with_usageINtNtCsj4FhK7DZU1O_5alloc3vec3VecNtNtB9_8gaussian8GaussianEE0CslQCpptksoiT_3mod
FN:26,_RNCINvMNtNtCsap2RCL79A4I_14wgpu_3dgs_core6buffer8gaussianINtB5_15GaussiansBufferNtB5_42GaussianPodWithShNorm8Cov3dRotScaleConfigsE3newINtNtCsj4FhK7DZU1O_5alloc3vec3VecNtNtB9_8gaussian8GaussianEE0CslQCpptksoiT_3mod
FN:113,_RNCINvMNtNtCsap2RCL79A4I_14wgpu_3dgs_core6buffer8gaussianINtB5_15GaussiansBufferNtB5_42GaussianPodWithShNorm8Cov3dRotScaleConfigsE6updateINtNtCsj4FhK7DZU1O_5alloc3vec3VecNtNtB9_8gaussian8GaussianEE0CslQCpptksoiT_3mod
FN:42,_RNCINvMNtNtCsap2RCL79A4I_14wgpu_3dgs_core6buffer8gaussianINtB5_15GaussiansBufferNtB5_43GaussianPodWithShSingleCov3dRotScaleConfigsE14new_with_usageINtNtCsj4FhK7DZU1O_5alloc3vec3VecNtNtB9_8gaussian8GaussianEE0CslQCpptksoiT_3mod
FN:26,_RNCINvMNtNtCsap2RCL79A4I_14wgpu_3dgs_core6buffer8gaussianINtB5_15GaussiansBufferNtB5_43GaussianPodWithShSingleCov3dRotScaleConfigsE3newINtNtCsj4FhK7DZU1O_5alloc3vec3VecNtNtB9_8gaussian8GaussianEE0CslQCpptksoiT_3mod
FN:113,_RNCINvMNtNtCsap2RCL79A4I_14wgpu_3dgs_core6buffer8gaussianINtB5_15GaussiansBufferNtB5_43GaussianPodWithShSingleCov3dRotScaleConfigsE6updateINtNtCsj4FhK7DZU1O_5alloc3vec3VecNtNtB9_8gaussian8GaussianEE0CslQCpptksoiT_3mod
FN:193,_RNCNCNvMNtNtCsap2RCL79A4I_14wgpu_3dgs_core6buffer8gaussianINtB6_15GaussiansBufferNtB6_37GaussianPodWithShHalfCov3dHalfConfigsE18download_gaussians00CslQCpptksoiT_3mod
FN:193,_RNCNCNvMNtNtCsap2RCL79A4I_14wgpu_3dgs_core6buffer8gaussianINtB6_15GaussiansBufferNtB6_37GaussianPodWithShNoneCov3dHalfConfigsE18download_gaussians00CslQCpptksoiT_3mod
FN:193,_RNCNCNvMNtNtCsap2RCL79A4I_14wgpu_3dgs_core6buffer8gaussianINtB6_15GaussiansBufferNtB6_38GaussianPodWithShNorm8Cov3dHalfConfigsE18download_gaussians00CslQCpptksoiT_3mod
FN:193,_RNCNCNvMNtNtCsap2RCL79A4I_14wgpu_3dgs_core6buffer8gaussianINtB6_15GaussiansBufferNtB6_39GaussianPodWithShHalfCov3dSingleConfigsE18download_gaussians00CslQCpptksoiT_3mod
FN:193,_RNCNCNvMNtNtCsap2RCL79A4I_14wgpu_3dgs_core6buffer8gaussianINtB6_15GaussiansBufferNtB6_39GaussianPodWithShNoneCov3dSingleConfigsE18download_gaussians00CslQCpptksoiT_3mod
FN:193,_RNCNCNvMNtNtCsap2RCL79A4I_14wgpu_3dgs_core6buffer8gaussianINtB6_15GaussiansBufferNtB6_39GaussianPodWithShSingleCov3dHalfConfigsE18download_gaussians00CslQCpptksoiT_3mod
FN:193,_RNCNCNvMNtNtCsap2RCL79A4I_14wgpu_3dgs_core6buffer8gaussianINtB6_15GaussiansBufferNtB6_40GaussianPodWithShNorm8Cov3dSingleConfigsE18download_gaussians00CslQCpptksoiT_3mod
FN:193,_RNCNCNvMNtNtCsap2RCL79A4I_14wgpu_3dgs_core6buffer8gaussianINtB6_15GaussiansBufferNtB6_41GaussianPodWithShHalfCov3dRotScaleConfigsE18download_gaussians00CslQCpptksoiT_3mod
FN:193,_RNCNCNvMNtNtCsap2RCL79A4I_14wgpu_3dgs_core6buffer8gaussianINtB6_15GaussiansBufferNtB6_41GaussianPodWithShNoneCov3dRotScaleConfigsE18download_gaussians00CslQCpptksoiT_3mod
FN:193,_RNCNCNvMNtNtCsap2RCL79A4I_14wgpu_3dgs_core6buffer8gaussianINtB6_15GaussiansBufferNtB6_41GaussianPodWithShSingleCov3dSingleConfigsE18download_gaussians00CslQCpptksoiT_3mod
FN:193,_RNCNCNvMNtNtCsap2RCL79A4I_14wgpu_3dgs_core6buffer8gaussianINtB6_15GaussiansBufferNtB6_42GaussianPodWithShNorm8Cov3dRotScaleConfigsE18download_gaussians00CslQCpptksoiT_3mod
FN:193,_RNCNCNvMNtNtCsap2RCL79A4I_14wgpu_3dgs_core6buffer8gaussianINtB6_15GaussiansBufferNtB6_43GaussianPodWithShSingleCov3dRotScaleConfigsE18download_gaussians00CslQCpptksoiT_3mod
FN:190,_RNCNvMNtNtCsap2RCL79A4I_14wgpu_3dgs_core6buffer8gaussianINtB4_15GaussiansBufferNtB4_37GaussianPodWithShHalfCov3dHalfConfigsE18download_gaussians0CslQCpptksoiT_3mod
FN:190,_RNCNvMNtNtCsap2RCL79A4I_14wgpu_3dgs_core6buffer8gaussianINtB4_15GaussiansBufferNtB4_37GaussianPodWithShNoneCov3dHalfConfigsE18download_gaussians0CslQCpptksoiT_3mod
FN:190,_RNCNvMNtNtCsap2RCL79A4I_14wgpu_3dgs_core6buffer8gaussianINtB4_15GaussiansBufferNtB4_38GaussianPodWithShNorm8Cov3dHalfConfigsE18download_gaussians0CslQCpptksoiT_3mod
FN:190,_RNCNvMNtNtCsap2RCL79A4I_14wgpu_3dgs_core6buffer8gaussianINtB4_15GaussiansBufferNtB4_39GaussianPodWithShHalfCov3dSingleConfigsE18download_gaussians0CslQCpptksoiT_3mod
FN:190,_RNCNvMNtNtCsap2RCL79A4I_14wgpu_3dgs_core6buffer8gaussianINtB4_15GaussiansBufferNtB4_39GaussianPodWithShNoneCov3dSingleConfigsE18download_gaussians0CslQCpptksoiT_3mod
FN:190,_RNCNvMNtNtCsap2RCL79A4I_14wgpu_3dgs_core6buffer8gaussianINtB4_15GaussiansBufferNtB4_39GaussianPodWithShSingleCov3dHalfConfigsE18download_gaussians0CslQCpptksoiT_3mod
FN:190,_RNCNvMNtNtCsap2RCL79A4I_14wgpu_3dgs_core6buffer8gaussianINtB4_15GaussiansBufferNtB4_40GaussianPodWithShNorm8Cov3dSingleConfigsE18download_gaussians0CslQCpptksoiT_3mod
FN:190,_RNCNvMNtNtCsap2RCL79A4I_14wgpu_3dgs_core6buffer8gaussianINtB4_15GaussiansBufferNtB4_41GaussianPodWithShHalfCov3dRotScaleConfigsE18download_gaussians0CslQCpptksoiT_3mod
FN:190,_RNCNvMNtNtCsap2RCL79A4I_14wgpu_3dgs_core6buffer8gaussianINtB4_15GaussiansBufferNtB4_41GaussianPodWithShNoneCov3dRotScaleConfigsE18download_gaussians0CslQCpptksoiT_3mod
FN:190,_RNCNvMNtNtCsap2RCL79A4I_14wgpu_3dgs_core6buffer8gaussianINtB4_15GaussiansBufferNtB4_41GaussianPodWithShSingleCov3dSingleConfigsE18download_gaussians0CslQCpptksoiT_3mod
FN:190,_RNCNvMNtNtCsap2RCL79A4I_14wgpu_3dgs_core6buffer8gaussianINtB4_15GaussiansBufferNtB4_42GaussianPodWithShNorm8Cov3dRotScaleConfigsE18download_gaussians0CslQCpptksoiT_3mod
FN:190,_RNCNvMNtNtCsap2RCL79A4I_14wgpu_3dgs_core6buffer8gaussianINtB4_15GaussiansBufferNtB4_43GaussianPodWithShSingleCov3dRotScaleConfigsE18download_gaussians0CslQCpptksoiT_3mod
FN:293,_RNCNvYNtNtNtCsap2RCL79A4I_14wgpu_3dgs_core6buffer8gaussian39GaussianPodWithShHalfCov3dSingleConfigsNtB6_11GaussianPod13wesl_features0CslQCpptksoiT_3mod
FN:280,_RNCNvYNtNtNtCsap2RCL79A4I_14wgpu_3dgs_core6buffer8gaussian39GaussianPodWithShHalfCov3dSingleConfigsNtB6_11GaussianPod8features0CslQCpptksoiT_3mod
FN:293,_RNCNvYNtNtNtCsap2RCL79A4I_14wgpu_3dgs_core6buffer8gaussian39GaussianPodWithShSingleCov3dHalfConfigsNtB6_11GaussianPod13wesl_features0CslQCpptksoiT_3mod
FN:280,_RNCNvYNtNtNtCsap2RCL79A4I_14wgpu_3dgs_core6buffer8gaussian39GaussianPodWithShSingleCov3dHalfConfigsNtB6_11GaussianPod8features0CslQCpptksoiT_3mod
FN:293,_RNCNvYNtNtNtCsap2RCL79A4I_14wgpu_3dgs_core6buffer8gaussian40GaussianPodWithShNorm8Cov3dSingleConfigsNtB6_11GaussianPod13wesl_features0CslQCpptksoiT_3mod
FN:280,_RNCNvYNtNtNtCsap2RCL79A4I_14wgpu_3dgs_core6buffer8gaussian40GaussianPodWithShNorm8Cov3dSingleConfigsNtB6_11GaussianPod8features0CslQCpptksoiT_3mod
FN:293,_RNCNvYNtNtNtCsap2RCL79A4I_14wgpu_3dgs_core6buffer8gaussian41GaussianPodWithShSingleCov3dSingleConfigsNtB6_11GaussianPod13wesl_features0CslQCpptksoiT_3mod
FN:280,_RNCNvYNtNtNtCsap2RCL79A4I_14wgpu_3dgs_core6buffer8gaussian41GaussianPodWithShSingleCov3dSingleConfigsNtB6_11GaussianPod8features0CslQCpptksoiT_3mod
FN:293,_RNCNvYNtNtNtCsap2RCL79A4I_14wgpu_3dgs_core6buffer8gaussian43GaussianPodWithShSingleCov3dRotScaleConfigsNtB6_11GaussianPod13wesl_features0CslQCpptksoiT_3mod
FN:280,_RNCNvYNtNtNtCsap2RCL79A4I_14wgpu_3dgs_core6buffer8gaussian43GaussianPodWithShSingleCov3dRotScaleConfigsNtB6_11GaussianPod8features0CslQCpptksoiT_3mod
FN:142,_RNvMNtNtCsap2RCL79A4I_14wgpu_3dgs_core6buffer8gaussianINtB2_15GaussiansBufferNtB2_37GaussianPodWithShHalfCov3dHalfConfigsE12update_rangeCslQCpptksoiT_3mod
FN:50,_RNvMNtNtCsap2RCL79A4I_14wgpu_3dgs_core6buffer8gaussianINtB2_15GaussiansBufferNtB2_37GaussianPodWithShHalfCov3dHalfConfigsE13new_with_podsCslQCpptksoiT_3mod
FN:122,_RNvMNtNtCsap2RCL79A4I_14wgpu_3dgs_core6buffer8gaussianINtB2_15GaussiansBufferNtB2_37GaussianPodWithShHalfCov3dHalfConfigsE15update_with_podCslQCpptksoiT_3mod
FN:186,_RNvMNtNtCsap2RCL79A4I_14wgpu_3dgs_core6buffer8gaussianINtB2_15GaussiansBufferNtB2_37GaussianPodWithShHalfCov3dHalfConfigsE18download_gaussiansCslQCpptksoiT_3mod
FN:76,_RNvMNtNtCsap2RCL79A4I_14wgpu_3dgs_core6buffer8gaussianINtB2_15GaussiansBufferNtB2_37GaussianPodWithShHalfCov3dHalfConfigsE20new_empty_with_usageCslQCpptksoiT_3mod
FN:162,_RNvMNtNtCsap2RCL79A4I_14wgpu_3dgs_core6buffer8gaussianINtB2_15GaussiansBufferNtB2_37GaussianPodWithShHalfCov3dHalfConfigsE21update_range_with_podCslQCpptksoiT_3mod
FN:56,_RNvMNtNtCsap2RCL79A4I_14wgpu_3dgs_core6buffer8gaussianINtB2_15GaussiansBufferNtB2_37GaussianPodWithShHalfCov3dHalfConfigsE23new_with_pods_and_usageCslQCpptksoiT_3mod
FN:92,_RNvMNtNtCsap2RCL79A4I_14wgpu_3dgs_core6buffer8gaussianINtB2_15GaussiansBufferNtB2_37GaussianPodWithShHalfCov3dHalfConfigsE3lenCslQCpptksoiT_3mod
FN:97,_RNvMNtNtCsap2RCL79A4I_14wgpu_3dgs_core6buffer8gaussianINtB2_15GaussiansBufferNtB2_37GaussianPodWithShHalfCov3dHalfConfigsE8is_emptyCslQCpptksoiT_3mod
FN:71,_RNvMNtNtCsap2RCL79A4I_14wgpu_3dgs_core6buffer8gaussianINtB2_15GaussiansBufferNtB2_37GaussianPodWithShHalfCov3dHalfConfigsE9new_emptyCslQCpptksoiT_3mod
FN:142,_RNvMNtNtCsap2RCL79A4I_14wgpu_3dgs_core6buffer8gaussianINtB2_15GaussiansBufferNtB2_37GaussianPodWithShNoneCov3dHalfConfigsE12update_rangeCslQCpptksoiT_3mod
FN:50,_RNvMNtNtCsap2RCL79A4I_14wgpu_3dgs_core6buffer8gaussianINtB2_15GaussiansBufferNtB2_37GaussianPodWithShNoneCov3dHalfConfigsE13new_with_podsCslQCpptksoiT_3mod
FN:122,_RNvMNtNtCsap2RCL79A4I_14wgpu_3dgs_core6buffer8gaussianINtB2_15GaussiansBufferNtB2_37GaussianPodWithShNoneCov3dHalfConfigsE15update_with_podCslQCpptksoiT_3mod
FN:186,_RNvMNtNtCsap2RCL79A4I_14wgpu_3dgs_core6buffer8gaussianINtB2_15GaussiansBufferNtB2_37GaussianPodWithShNoneCov3dHalfConfigsE18download_gaussiansCslQCpptksoiT_3mod
FN:76,_RNvMNtNtCsap2RCL79A4I_14wgpu_3dgs_core6buffer8gaussianINtB2_15GaussiansBufferNtB2_37GaussianPodWithShNoneCov3dHalfConfigsE20new_empty_with_usageCslQCpptksoiT_3mod
FN:162,_RNvMNtNtCsap2RCL79A4I_14wgpu_3dgs_core6buffer8gaussianINtB2_15GaussiansBufferNtB2_37GaussianPodWithShNoneCov3dHalfConfigsE21update_range_with_podCslQCpptksoiT_3mod
FN:56,_RNvMNtNtCsap2RCL79A4I_14wgpu_3dgs_core6buffer8gaussianINtB2_15GaussiansBufferNtB2_37GaussianPodWithShNoneCov3dHalfConfigsE23new_with_pods_and_usageCslQCpptksoiT_3mod
FN:92,_RNvMNtNtCsap2RCL79A4I_14wgpu_3dgs_core6buffer8gaussianINtB2_15GaussiansBufferNtB2_37GaussianPodWithShNoneCov3dHalfConfigsE3lenCslQCpptksoiT_3mod
FN:97,_RNvMNtNtCsap2RCL79A4I_14wgpu_3dgs_core6buffer8gaussianINtB2_15GaussiansBufferNtB2_37GaussianPodWithShNoneCov3dHalfConfigsE8is_emptyCslQCpptksoiT_3mod
FN:71,_RNvMNtNtCsap2RCL79A4I_14wgpu_3dgs_core6buffer8gaussianINtB2_15GaussiansBufferNtB2_37GaussianPodWithShNoneCov3dHalfConfigsE9new_emptyCslQCpptksoiT_3mod
FN:142,_RNvMNtNtCsap2RCL79A4I_14wgpu_3dgs_core6buffer8gaussianINtB2_15GaussiansBufferNtB2_38GaussianPodWithShNorm8Cov3dHalfConfigsE12update_rangeCslQCpptksoiT_3mod
FN:50,_RNvMNtNtCsap2RCL79A4I_14wgpu_3dgs_core6buffer8gaussianINtB2_15GaussiansBufferNtB2_38GaussianPodWithShNorm8Cov3dHalfConfigsE13new_with_podsCslQCpptksoiT_3mod
FN:122,_RNvMNtNtCsap2RCL79A4I_14wgpu_3dgs_core6buffer8gaussianINtB2_15GaussiansBufferNtB2_38GaussianPodWithShNorm8Cov3dHalfConfigsE15update_with_podCslQCpptksoiT_3mod
FN:186,_RNvMNtNtCsap2RCL79A4I_14wgpu_3dgs_core6buffer8gaussianINtB2_15GaussiansBufferNtB2_38GaussianPodWithShNorm8Cov3dHalfConfigsE18download_gaussiansCslQCpptksoiT_3mod
FN:76,_RNvMNtNtCsap2RCL79A4I_14wgpu_3dgs_core6buffer8gaussianINtB2_15GaussiansBufferNtB2_38GaussianPodWithShNorm8Cov3dHalfConfigsE20new_empty_with_usageCslQCpptksoiT_3mod
FN:162,_RNvMNtNtCsap2RCL79A4I_14wgpu_3dgs_core6buffer8gaussianINtB2_15GaussiansBufferNtB2_38GaussianPodWithShNorm8Cov3dHalfConfigsE21update_range_with_podCslQCpptksoiT_3mod
FN:56,_RNvMNtNtCsap2RCL79A4I_14wgpu_3dgs_core6buffer8gaussianINtB2_15GaussiansBufferNtB2_38GaussianPodWithShNorm8Cov3dHalfConfigsE23new_with_pods_and_usageCslQCpptksoiT_3mod
FN:92,_RNvMNtNtCsap2RCL79A4I_14wgpu_3dgs_core6buffer8gaussianINtB2_15GaussiansBufferNtB2_38GaussianPodWithShNorm8Cov3dHalfConfigsE3lenCslQCpptksoiT_3mod
FN:97,_RNvMNtNtCsap2RCL79A4I_14wgpu_3dgs_core6buffer8gaussianINtB2_15GaussiansBufferNtB2_38GaussianPodWithShNorm8Cov3dHalfConfigsE8is_emptyCslQCpptksoiT_3mod
FN:71,_RNvMNtNtCsap2RCL79A4I_14wgpu_3dgs_core6buffer8gaussianINtB2_15GaussiansBufferNtB2_38GaussianPodWithShNorm8Cov3dHalfConfigsE9new_emptyCslQCpptksoiT_3mod
FN:142,_RNvMNtNtCsap2RCL79A4I_14wgpu_3dgs_core6buffer8gaussianINtB2_15GaussiansBufferNtB2_39GaussianPodWithShHalfCov3dSingleConfigsE12update_rangeCslQCpptksoiT_3mod
FN:50,_RNvMNtNtCsap2RCL79A4I_14wgpu_3dgs_core6buffer8gaussianINtB2_15GaussiansBufferNtB2_39GaussianPodWithShHalfCov3dSingleConfigsE13new_with_podsCslQCpptksoiT_3mod
FN:122,_RNvMNtNtCsap2RCL79A4I_14wgpu_3dgs_core6buffer8gaussianINtB2_15GaussiansBufferNtB2_39GaussianPodWithShHalfCov3dSingleConfigsE15update_with_podCslQCpptksoiT_3mod
FN:186,_RNvMNtNtCsap2RCL79A4I_14wgpu_3dgs_core6buffer8gaussianINtB2_15GaussiansBufferNtB2_39GaussianPodWithShHalfCov3dSingleConfigsE18download_gaussiansCslQCpptksoiT_3mod
FN:76,_RNvMNtNtCsap2RCL79A4I_14wgpu_3dgs_core6buffer8gaussianINtB2_15GaussiansBufferNtB2_39GaussianPodWithShHalfCov3dSingleConfigsE20new_empty_with_usageCslQCpptksoiT_3mod
FN:162,_RNvMNtNtCsap2RCL79A4I_14wgpu_3dgs_core6buffer8gaussianINtB2_15GaussiansBufferNtB2_39GaussianPodWithShHalfCov3dSingleConfigsE21update_range_with_podCslQCpptksoiT_3mod
FN:56,_RNvMNtNtCsap2RCL79A4I_14wgpu_3dgs_core6buffer8gaussianINtB2_15GaussiansBufferNtB2_39GaussianPodWithShHalfCov3dSingleConfigsE23new_with_pods_and_usageCslQCpptksoiT_3mod
FN:92,_RNvMNtNtCsap2RCL79A4I_14wgpu_3dgs_core6buffer8gaussianINtB2_15GaussiansBufferNtB2_39GaussianPodWithShHalfCov3dSingleConfigsE3lenCslQCpptksoiT_3mod
FN:97,_RNvMNtNtCsap2RCL79A4I_14wgpu_3dgs_core6buffer8gaussianINtB2_15GaussiansBufferNtB2_39GaussianPodWithShHalfCov3dSingleConfigsE8is_emptyCslQCpptksoiT_3mod
FN:71,_RNvMNtNtCsap2RCL79A4I_14wgpu_3dgs_core6buffer8gaussianINtB2_15GaussiansBufferNtB2_39GaussianPodWithShHalfCov3dSingleConfigsE9new_emptyCslQCpptksoiT_3mod
FN:142,_RNvMNtNtCsap2RCL79A4I_14wgpu_3dgs_core6buffer8gaussianINtB2_15GaussiansBufferNtB2_39GaussianPodWithShNoneCov3dSingleConfigsE12update_rangeCslQCpptksoiT_3mod
FN:50,_RNvMNtNtCsap2RCL79A4I_14wgpu_3dgs_core6buffer8gaussianINtB2_15GaussiansBufferNtB2_39GaussianPodWithShNoneCov3dSingleConfigsE13new_with_podsCslQCpptksoiT_3mod
FN:122,_RNvMNtNtCsap2RCL79A4I_14wgpu_3dgs_core6buffer8gaussianINtB2_15GaussiansBufferNtB2_39GaussianPodWithShNoneCov3dSingleConfigsE15update_with_podCslQCpptksoiT_3mod
FN:186,_RNvMNtNtCsap2RCL79A4I_14wgpu_3dgs_core6buffer8gaussianINtB2_15GaussiansBufferNtB2_39GaussianPodWithShNoneCov3dSingleConfigsE18download_gaussiansCslQCpptksoiT_3mod
FN:76,_RNvMNtNtCsap2RCL79A4I_14wgpu_3dgs_core6buffer8gaussianINtB2_15GaussiansBufferNtB2_39GaussianPodWithShNoneCov3dSingleConfigsE20new_empty_with_usageCslQCpptksoiT_3mod
FN:162,_RNvMNtNtCsap2RCL79A4I_14wgpu_3dgs_core6buffer8gaussianINtB2_15GaussiansBufferNtB2_39GaussianPodWithShNoneCov3dSingleConfigsE21update_range_with_podCslQCpptksoiT_3mod
FN:56,_RNvMNtNtCsap2RCL79A4I_14wgpu_3dgs_core6buffer8gaussianINtB2_15GaussiansBufferNtB2_39GaussianPodWithShNoneCov3dSingleConfigsE23new_with_pods_and_usageCslQCpptksoiT_3mod
FN:92,_RNvMNtNtCsap2RCL79A4I_14wgpu_3dgs_core6buffer8gaussianINtB2_15GaussiansBufferNtB2_39GaussianPodWithShNoneCov3dSingleConfigsE3lenCslQCpptksoiT_3mod
FN:97,_RNvMNtNtCsap2RCL79A4I_14wgpu_3dgs_core6buffer8gaussianINtB2_15GaussiansBufferNtB2_39GaussianPodWithShNoneCov3dSingleConfigsE8is_emptyCslQCpptksoiT_3mod
FN:71,_RNvMNtNtCsap2RCL79A4I_14wgpu_3dgs_core6buffer8gaussianINtB2_15GaussiansBufferNtB2_39GaussianPodWithShNoneCov3dSingleConfigsE9new_emptyCslQCpptksoiT_3mod
FN:142,_RNvMNtNtCsap2RCL79A4I_14wgpu_3dgs_core6buffer8gaussianINtB2_15GaussiansBufferNtB2_39GaussianPodWithShSingleCov3dHalfConfigsE12update_rangeCslQCpptksoiT_3mod
FN:50,_RNvMNtNtCsap2RCL79A4I_14wgpu_3dgs_core6buffer8gaussianINtB2_15GaussiansBufferNtB2_39GaussianPodWithShSingleCov3dHalfConfigsE13new_with_podsCslQCpptksoiT_3mod
FN:122,_RNvMNtNtCsap2RCL79A4I_14wgpu_3dgs_core6buffer8gaussianINtB2_15GaussiansBufferNtB2_39GaussianPodWithShSingleCov3dHalfConfigsE15update_with_podCslQCpptksoiT_3mod
FN:186,_RNvMNtNtCsap2RCL79A4I_14wgpu_3dgs_core6buffer8gaussianINtB2_15GaussiansBufferNtB2_39GaussianPodWithShSingleCov3dHalfConfigsE18download_gaussiansCslQCpptksoiT_3mod
FN:76,_RNvMNtNtCsap2RCL79A4I_14wgpu_3dgs_core6buffer8gaussianINtB2_15GaussiansBufferNtB2_39GaussianPodWithShSingleCov3dHalfConfigsE20new_empty_with_usageCslQCpptksoiT_3mod
FN:162,_RNvMNtNtCsap2RCL79A4I_14wgpu_3dgs_core6buffer8gaussianINtB2_15GaussiansBufferNtB2_39GaussianPodWithShSingleCov3dHalfConfigsE21update_range_with_podCslQCpptksoiT_3mod
FN:56,_RNvMNtNtCsap2RCL79A4I_14wgpu_3dgs_core6buffer8gaussianINtB2_15GaussiansBufferNtB2_39GaussianPodWithShSingleCov3dHalfConfigsE23new_with_pods_and_usageCslQCpptksoiT_3mod
FN:92,_RNvMNtNtCsap2RCL79A4I_14wgpu_3dgs_core6buffer8gaussianINtB2_15GaussiansBufferNtB2_39GaussianPodWithShSingleCov3dHalfConfigsE3lenCslQCpptksoiT_3mod
FN:97,_RNvMNtNtCsap2RCL79A4I_14wgpu_3dgs_core6buffer8gaussianINtB2_15GaussiansBufferNtB2_39GaussianPodWithShSingleCov3dHalfConfigsE8is_emptyCslQCpptksoiT_3mod
FN:71,_RNvMNtNtCsap2RCL79A4I_14wgpu_3dgs_core6buffer8gaussianINtB2_15GaussiansBufferNtB2_39GaussianPodWithShSingleCov3dHalfConfigsE9new_emptyCslQCpptksoiT_3mod
FN:142,_RNvMNtNtCsap2RCL79A4I_14wgpu_3dgs_core6buffer8gaussianINtB2_15GaussiansBufferNtB2_40GaussianPodWithShNorm8Cov3dSingleConfigsE12update_rangeCslQCpptksoiT_3mod
FN:50,_RNvMNtNtCsap2RCL79A4I_14wgpu_3dgs_core6buffer8gaussianINtB2_15GaussiansBufferNtB2_40GaussianPodWithShNorm8Cov3dSingleConfigsE13new_with_podsCslQCpptksoiT_3mod
FN:122,_RNvMNtNtCsap2RCL79A4I_14wgpu_3dgs_core6buffer8gaussianINtB2_15GaussiansBufferNtB2_40GaussianPodWithShNorm8Cov3dSingleConfigsE15update_with_podCslQCpptksoiT_3mod
FN:186,_RNvMNtNtCsap2RCL79A4I_14wgpu_3dgs_core6buffer8gaussianINtB2_15GaussiansBufferNtB2_40GaussianPodWithShNorm8Cov3dSingleConfigsE18download_gaussiansCslQCpptksoiT_3mod
FN:76,_RNvMNtNtCsap2RCL79A4I_14wgpu_3dgs_core6buffer8gaussianINtB2_15GaussiansBufferNtB2_40GaussianPodWithShNorm8Cov3dSingleConfigsE20new_empty_with_usageCslQCpptksoiT_3mod
FN:162,_RNvMNtNtCsap2RCL79A4I_14wgpu_3dgs_core6buffer8gaussianINtB2_15GaussiansBufferNtB2_40GaussianPodWithShNorm8Cov3dSingleConfigsE21update_range_with_podCslQCpptksoiT_3mod
FN:56,_RNvMNtNtCsap2RCL79A4I_14wgpu_3dgs_core6buffer8gaussianINtB2_15GaussiansBufferNtB2_40GaussianPodWithShNorm8Cov3dSingleConfigsE23new_with_pods_and_usageCslQCpptksoiT_3mod
FN:92,_RNvMNtNtCsap2RCL79A4I_14wgpu_3dgs_core6buffer8gaussianINtB2_15GaussiansBufferNtB2_40GaussianPodWithShNorm8Cov3dSingleConfigsE3lenCslQCpptksoiT_3mod
FN:97,_RNvMNtNtCsap2RCL79A4I_14wgpu_3dgs_core6buffer8gaussianINtB2_15GaussiansBufferNtB2_40GaussianPodWithShNorm8Cov3dSingleConfigsE8is_emptyCslQCpptksoiT_3mod
FN:71,_RNvMNtNtCsap2RCL79A4I_14wgpu_3dgs_core6buffer8gaussianINtB2_15GaussiansBufferNtB2_40GaussianPodWithShNorm8Cov3dSingleConfigsE9new_emptyCslQCpptksoiT_3mod
FN:142,_RNvMNtNtCsap2RCL79A4I_14wgpu_3dgs_core6buffer8gaussianINtB2_15GaussiansBufferNtB2_41GaussianPodWithShHalfCov3dRotScaleConfigsE12update_rangeCslQCpptksoiT_3mod
FN:50,_RNvMNtNtCsap2RCL79A4I_14wgpu_3dgs_core6buffer8gaussianINtB2_15GaussiansBufferNtB2_41GaussianPodWithShHalfCov3dRotScaleConfigsE13new_with_podsCslQCpptksoiT_3mod
FN:122,_RNvMNtNtCsap2RCL79A4I_14wgpu_3dgs_core6buffer8gaussianINtB2_15GaussiansBufferNtB2_41GaussianPodWithShHalfCov3dRotScaleConfigsE15update_with_podCslQCpptksoiT_3mod
FN:186,_RNvMNtNtCsap2RCL79A4I_14wgpu_3dgs_core6buffer8gaussianINtB2_15GaussiansBufferNtB2_41GaussianPodWithShHalfCov3dRotScaleConfigsE18download_gaussiansCslQCpptksoiT_3mod
FN:76,_RNvMNtNtCsap2RCL79A4I_14wgpu_3dgs_core6buffer8gaussianINtB2_15GaussiansBufferNtB2_41GaussianPodWithShHalfCov3dRotScaleConfigsE20new_empty_with_usageCslQCpptksoiT_3mod
FN:162,_RNvMNtNtCsap2RCL79A4I_14wgpu_3dgs_core6buffer8gaussianINtB2_15GaussiansBufferNtB2_41GaussianPodWithShHalfCov3dRotScaleConfigsE21update_range_with_podCslQCpptksoiT_3mod
FN:56,_RNvMNtNtCsap2RCL79A4I_14wgpu_3dgs_core6buffer8gaussianINtB2_15GaussiansBufferNtB2_41GaussianPodWithShHalfCov3dRotScaleConfigsE23new_with_pods_and_usageCslQCpptksoiT_3mod
FN:92,_RNvMNtNtCsap2RCL79A4I_14wgpu_3dgs_core6buffer8gaussianINtB2_15GaussiansBufferNtB2_41GaussianPodWithShHalfCov3dRotScaleConfigsE3lenCslQCpptksoiT_3mod
FN:97,_RNvMNtNtCsap2RCL79A4I_14wgpu_3dgs_core6buffer8gaussianINtB2_15GaussiansBufferNtB2_41GaussianPodWithShHalfCov3dRotScaleConfigsE8is_emptyCslQCpptksoiT_3mod
FN:71,_RNvMNtNtCsap2RCL79A4I_14wgpu_3dgs_core6buffer8gaussianINtB2_15GaussiansBufferNtB2_41GaussianPodWithShHalfCov3dRotScaleConfigsE9new_emptyCslQCpptksoiT_3mod
FN:142,_RNvMNtNtCsap2RCL79A4I_14wgpu_3dgs_core6buffer8gaussianINtB2_15GaussiansBufferNtB2_41GaussianPodWithShNoneCov3dRotScaleConfigsE12update_rangeCslQCpptksoiT_3mod
FN:50,_RNvMNtNtCsap2RCL79A4I_14wgpu_3dgs_core6buffer8gaussianINtB2_15GaussiansBufferNtB2_41GaussianPodWithShNoneCov3dRotScaleConfigsE13new_with_podsCslQCpptksoiT_3mod
FN:122,_RNvMNtNtCsap2RCL79A4I_14wgpu_3dgs_core6buffer8gaussianINtB2_15GaussiansBufferNtB2_41GaussianPodWithShNoneCov3dRotScaleConfigsE15update_with_podCslQCpptksoiT_3mod
FN:186,_RNvMNtNtCsap2RCL79A4I_14wgpu_3dgs_core6buffer8gaussianINtB2_15GaussiansBufferNtB2_41GaussianPodWithShNoneCov3dRotScaleConfigsE18download_gaussiansCslQCpptksoiT_3mod
FN:76,_RNvMNtNtCsap2RCL79A4I_14wgpu_3dgs_core6buffer8gaussianINtB2_15GaussiansBufferNtB2_41GaussianPodWithShNoneCov3dRotScaleConfigsE20new_empty_with_usageCslQCpptksoiT_3mod
FN:162,_RNvMNtNtCsap2RCL79A4I_14wgpu_3dgs_core6buffer8gaussianINtB2_15GaussiansBufferNtB2_41GaussianPodWithShNoneCov3dRotScaleConfigsE21update_range_with_podCslQCpptksoiT_3mod
FN:56,_RNvMNtNtCsap2RCL79A4I_14wgpu_3dgs_core6buffer8gaussianINtB2_15GaussiansBufferNtB2_41GaussianPodWithShNoneCov3dRotScaleConfigsE23new_with_pods_and_usageCslQCpptksoiT_3mod
FN:92,_RNvMNtNtCsap2RCL79A4I_14wgpu_3dgs_core6buffer8gaussianINtB2_15GaussiansBufferNtB2_41GaussianPodWithShNoneCov3dRotScaleConfigsE3lenCslQCpptksoiT_3mod
FN:97,_RNvMNtNtCsap2RCL79A4I_14wgpu_3dgs_core6buffer8gaussianINtB2_15GaussiansBufferNtB2_41GaussianPodWithShNoneCov3dRotScaleConfigsE8is_emptyCslQCpptksoiT_3mod
FN:71,_RNvMNtNtCsap2RCL79A4I_14wgpu_3dgs_core6buffer8gaussianINtB2_15GaussiansBufferNtB2_41GaussianPodWithShNoneCov3dRotScaleConfigsE9new_emptyCslQCpptksoiT_3mod
FN:142,_RNvMNtNtCsap2RCL79A4I_14wgpu_3dgs_core6buffer8gaussianINtB2_15GaussiansBufferNtB2_41GaussianPodWithShSingleCov3dSingleConfigsE12update_rangeCslQCpptksoiT_3mod
FN:50,_RNvMNtNtCsap2RCL79A4I_14wgpu_3dgs_core6buffer8gaussianINtB2_15GaussiansBufferNtB2_41GaussianPodWithShSingleCov3dSingleConfigsE13new_with_podsCslQCpptksoiT_3mod
FN:122,_RNvMNtNtCsap2RCL79A4I_14wgpu_3dgs_core6buffer8gaussianINtB2_15GaussiansBufferNtB2_41GaussianPodWithShSingleCov3dSingleConfigsE15update_with_podCslQCpptksoiT_3mod
FN:186,_RNvMNtNtCsap2RCL79A4I_14wgpu_3dgs_core6buffer8gaussianINtB2_15GaussiansBufferNtB2_41GaussianPodWithShSingleCov3dSingleConfigsE18download_gaussiansCslQCpptksoiT_3mod
FN:76,_RNvMNtNtCsap2RCL79A4I_14wgpu_3dgs_core6buffer8gaussianINtB2_15GaussiansBufferNtB2_41GaussianPodWithShSingleCov3dSingleConfigsE20new_empty_with_usageCslQCpptksoiT_3mod
FN:162,_RNvMNtNtCsap2RCL79A4I_14wgpu_3dgs_core6buffer8gaussianINtB2_15GaussiansBufferNtB2_41GaussianPodWithShSingleCov3dSingleConfigsE21update_range_with_podCslQCpptksoiT_3mod
FN:56,_RNvMNtNtCsap2RCL79A4I_14wgpu_3dgs_core6buffer8gaussianINtB2_15GaussiansBufferNtB2_41GaussianPodWithShSingleCov3dSingleConfigsE23new_with_pods_and_usageCslQCpptksoiT_3mod
FN:92,_RNvMNtNtCsap2RCL79A4I_14wgpu_3dgs_core6buffer8gaussianINtB2_15GaussiansBufferNtB2_41GaussianPodWithShSingleCov3dSingleConfigsE3lenCslQCpptksoiT_3mod
FN:97,_RNvMNtNtCsap2RCL79A4I_14wgpu_3dgs_core6buffer8gaussianINtB2_15GaussiansBufferNtB2_41GaussianPodWithShSingleCov3dSingleConfigsE8is_emptyCslQCpptksoiT_3mod
FN:71,_RNvMNtNtCsap2RCL79A4I_14wgpu_3dgs_core6buffer8gaussianINtB2_15GaussiansBufferNtB2_41GaussianPodWithShSingleCov3dSingleConfigsE9new_emptyCslQCpptksoiT_3mod
FN:142,_RNvMNtNtCsap2RCL79A4I_14wgpu_3dgs_core6buffer8gaussianINtB2_15GaussiansBufferNtB2_42GaussianPodWithShNorm8Cov3dRotScaleConfigsE12update_rangeCslQCpptksoiT_3mod
FN:50,_RNvMNtNtCsap2RCL79A4I_14wgpu_3dgs_core6buffer8gaussianINtB2_15GaussiansBufferNtB2_42GaussianPodWithShNorm8Cov3dRotScaleConfigsE13new_with_podsCslQCpptksoiT_3mod
FN:122,_RNvMNtNtCsap2RCL79A4I_14wgpu_3dgs_core6buffer8gaussianINtB2_15GaussiansBufferNtB2_42GaussianPodWithShNorm8Cov3dRotScaleConfigsE15update_with_podCslQCpptksoiT_3mod
FN:186,_RNvMNtNtCsap2RCL79A4I_14wgpu_3dgs_core6buffer8gaussianINtB2_15GaussiansBufferNtB2_42GaussianPodWithShNorm8Cov3dRotScaleConfigsE18download_gaussiansCslQCpptksoiT_3mod
FN:76,_RNvMNtNtCsap2RCL79A4I_14wgpu_3dgs_core6buffer8gaussianINtB2_15GaussiansBufferNtB2_42GaussianPodWithShNorm8Cov3dRotScaleConfigsE20new_empty_with_usageCslQCpptksoiT_3mod
FN:162,_RNvMNtNtCsap2RCL79A4I_14wgpu_3dgs_core6buffer8gaussianINtB2_15GaussiansBufferNtB2_42GaussianPodWithShNorm8Cov3dRotScaleConfigsE21update_range_with_podCslQCpptksoiT_3mod
FN:56,_RNvMNtNtCsap2RCL79A4I_14wgpu_3dgs_core6buffer8gaussianINtB2_15GaussiansBufferNtB2_42GaussianPodWithShNorm8Cov3dRotScaleConfigsE23new_with_pods_and_usageCslQCpptksoiT_3mod
FN:92,_RNvMNtNtCsap2RCL79A4I_14wgpu_3dgs_core6buffer8gaussianINtB2_15GaussiansBufferNtB2_42GaussianPodWithShNorm8Cov3dRotScaleConfigsE3lenCslQCpptksoiT_3mod
FN:97,_RNvMNtNtCsap2RCL79A4I_14wgpu_3dgs_core6buffer8gaussianINtB2_15GaussiansBufferNtB2_42GaussianPodWithShNorm8Cov3dRotScaleConfigsE8is_emptyCslQCpptksoiT_3mod
FN:71,_RNvMNtNtCsap2RCL79A4I_14wgpu_3dgs_core6buffer8gaussianINtB2_15GaussiansBufferNtB2_42GaussianPodWithShNorm8Cov3dRotScaleConfigsE9new_emptyCslQCpptksoiT_3mod
FN:142,_RNvMNtNtCsap2RCL79A4I_14wgpu_3dgs_core6buffer8gaussianINtB2_15GaussiansBufferNtB2_43GaussianPodWithShSingleCov3dRotScaleConfigsE12update_rangeCslQCpptksoiT_3mod
FN:50,_RNvMNtNtCsap2RCL79A4I_14wgpu_3dgs_core6buffer8gaussianINtB2_15GaussiansBufferNtB2_43GaussianPodWithShSingleCov3dRotScaleConfigsE13new_with_podsCslQCpptksoiT_3mod
FN:122,_RNvMNtNtCsap2RCL79A4I_14wgpu_3dgs_core6buffer8gaussianINtB2_15GaussiansBufferNtB2_43GaussianPodWithShSingleCov3dRotScaleConfigsE15update_with_podCslQCpptksoiT_3mod
FN:186,_RNvMNtNtCsap2RCL79A4I_14wgpu_3dgs_core6buffer8gaussianINtB2_15GaussiansBufferNtB2_43GaussianPodWithShSingleCov3dRotScaleConfigsE18download_gaussiansCslQCpptksoiT_3mod
FN:76,_RNvMNtNtCsap2RCL79A4I_14wgpu_3dgs_core6buffer8gaussianINtB2_15GaussiansBufferNtB2_43GaussianPodWithShSingleCov3dRotScaleConfigsE20new_empty_with_usageCslQCpptksoiT_3mod
FN:162,_RNvMNtNtCsap2RCL79A4I_14wgpu_3dgs_core6buffer8gaussianINtB2_15GaussiansBufferNtB2_43GaussianPodWithShSingleCov3dRotScaleConfigsE21update_range_with_podCslQCpptksoiT_3mod
FN:56,_RNvMNtNtCsap2RCL79A4I_14wgpu_3dgs_core6buffer8gaussianINtB2_15GaussiansBufferNtB2_43GaussianPodWithShSingleCov3dRotScaleConfigsE23new_with_pods_and_usageCslQCpptksoiT_3mod
FN:92,_RNvMNtNtCsap2RCL79A4I_14wgpu_3dgs_core6buffer8gaussianINtB2_15GaussiansBufferNtB2_43GaussianPodWithShSingleCov3dRotScaleConfigsE3lenCslQCpptksoiT_3mod
FN:97,_RNvMNtNtCsap2RCL79A4I_14wgpu_3dgs_core6buffer8gaussianINtB2_15GaussiansBufferNtB2_43GaussianPodWithShSingleCov3dRotScaleConfigsE8is_emptyCslQCpptksoiT_3mod
FN:71,_RNvMNtNtCsap2RCL79A4I_14wgpu_3dgs_core6buffer8gaussianINtB2_15GaussiansBufferNtB2_43GaussianPodWithShSingleCov3dRotScaleConfigsE9new_emptyCslQCpptksoiT_3mod
FN:216,_RNvXs1_NtNtCsap2RCL79A4I_14wgpu_3dgs_core6buffer8gaussianINtB5_15GaussiansBufferNtB5_37GaussianPodWithShHalfCov3dHalfConfigsEINtNtCsmHtFwzCQ9E_4core7convert7TryFromNtNtNtCsebiihMPZ3Ak_4wgpu3api6buffer6BufferE8try_fromCslQCpptksoiT_3mod
FN:216,_RNvXs1_NtNtCsap2RCL79A4I_14wgpu_3dgs_core6buffer8gaussianINtB5_15GaussiansBufferNtB5_37GaussianPodWithShNoneCov3dHalfConfigsEINtNtCsmHtFwzCQ9E_4core7convert7TryFromNtNtNtCsebiihMPZ3Ak_4wgpu3api6buffer6BufferE8try_fromCslQCpptksoiT_3mod
FN:216,_RNvXs1_NtNtCsap2RCL79A4I_14wgpu_3dgs_core6buffer8gaussianINtB5_15GaussiansBufferNtB5_38GaussianPodWithShNorm8Cov3dHalfConfigsEINtNtCsmHtFwzCQ9E_4core7convert7TryFromNtNtNtCsebiihMPZ3Ak_4wgpu3api6buffer6BufferE8try_fromCslQCpptksoiT_3mod
FN:216,_RNvXs1_NtNtCsap2RCL79A4I_14wgpu_3dgs_core6buffer8gaussianINtB5_15GaussiansBufferNtB5_39GaussianPodWithShHalfCov3dSingleConfigsEINtNtCsmHtFwzCQ9E_4core7convert7TryFromNtNtNtCsebiihMPZ3Ak_4wgpu3api6buffer6BufferE8try_fromCslQCpptksoiT_3mod
FN:216,_RNvXs1_NtNtCsap2RCL79A4I_14wgpu_3dgs_core6buffer8gaussianINtB5_15GaussiansBufferNtB5_39GaussianPodWithShNoneCov3dSingleConfigsEINtNtCsmHtFwzCQ9E_4core7convert7TryFromNtNtNtCsebiihMPZ3Ak_4wgpu3api6buffer6BufferE8try_fromCslQCpptksoiT_3mod
FN:216,_RNvXs1_NtNtCsap2RCL79A4I_14wgpu_3dgs_core6buffer8gaussianINtB5_15GaussiansBufferNtB5_39GaussianPodWithShSingleCov3dHalfConfigsEINtNtCsmHtFwzCQ9E_4core7convert7TryFromNtNtNtCsebiihMPZ3Ak_4wgpu3api6buffer6BufferE8try_fromCslQCpptksoiT_3mod
FN:216,_RNvXs1_NtNtCsap2RCL79A4I_14wgpu_3dgs_core6buffer8gaussianINtB5_15GaussiansBufferNtB5_40GaussianPodWithShNorm8Cov3dSingleConfigsEINtNtCsmHtFwzCQ9E_4core7convert7TryFromNtNtNtCsebiihMPZ3Ak_4wgpu3api6buffer6BufferE8try_fromCslQCpptksoiT_3mod
FN:216,_RNvXs1_NtNtCsap2RCL79A4I_14wgpu_3dgs_core6buffer8gaussianINtB5_15GaussiansBufferNtB5_41GaussianPodWithShHalfCov3dRotScaleConfigsEINtNtCsmHtFwzCQ9E_4core7convert7TryFromNtNtNtCsebiihMPZ3Ak_4wgpu3api6buffer6BufferE8try_fromCslQCpptksoiT_3mod
FN:216,_RNvXs1_NtNtCsap2RCL79A4I_14wgpu_3dgs_core6buffer8gaussianINtB5_15GaussiansBufferNtB5_41GaussianPodWithShNoneCov3dRotScaleConfigsEINtNtCsmHtFwzCQ9E_4core7convert7TryFromNtNtNtCsebiihMPZ3Ak_4wgpu3api6buffer6BufferE8try_fromCslQCpptksoiT_3mod
FN:216,_RNvXs1_NtNtCsap2RCL79A4I_14wgpu_3dgs_core6buffer8gaussianINtB5_15GaussiansBufferNtB5_41GaussianPodWithShSingleCov3dSingleConfigsEINtNtCsmHtFwzCQ9E_4core7convert7TryFromNtNtNtCsebiihMPZ3Ak_4wgpu3api6buffer6BufferE8try_fromCslQCpptksoiT_3mod
FN:216,_RNvXs1_NtNtCsap2RCL79A4I_14wgpu_3dgs_core6buffer8gaussianINtB5_15GaussiansBufferNtB5_42GaussianPodWithShNorm8Cov3dRotScaleConfigsEINtNtCsmHtFwzCQ9E_4core7convert7TryFromNtNtNtCsebiihMPZ3Ak_4wgpu3api6buffer6BufferE8try_fromCslQCpptksoiT_3mod
FN:216,_RNvXs1_NtNtCsap2RCL79A4I_14wgpu_3dgs_core6buffer8gaussianINtB5_15GaussiansBufferNtB5_43GaussianPodWithShSingleCov3dRotScaleConfigsEINtNtCsmHtFwzCQ9E_4core7convert7TryFromNtNtNtCsebiihMPZ3Ak_4wgpu3api6buffer6BufferE8try_fromCslQCpptksoiT_3mod
FN:202,_RNvXs_NtNtCsap2RCL79A4I_14wgpu_3dgs_core6buffer8gaussianINtB4_15GaussiansBufferNtB4_37GaussianPodWithShHalfCov3dHalfConfigsENtB6_13BufferWrapper6bufferCslQCpptksoiT_3mod
FN:202,_RNvXs_NtNtCsap2RCL79A4I_14wgpu_3dgs_core6buffer8gaussianINtB4_15GaussiansBufferNtB4_37GaussianPodWithShNoneCov3dHalfConfigsENtB6_13BufferWrapper6bufferCslQCpptksoiT_3mod
FN:202,_RNvXs_NtNtCsap2RCL79A4I_14wgpu_3dgs_core6buffer8gaussianINtB4_15GaussiansBufferNtB4_38GaussianPodWithShNorm8Cov3dHalfConfigsENtB6_13BufferWrapper6bufferCslQCpptksoiT_3mod
FN:202,_RNvXs_NtNtCsap2RCL79A4I_14wgpu_3dgs_core6buffer8gaussianINtB4_15GaussiansBufferNtB4_39GaussianPodWithShHalfCov3dSingleConfigsENtB6_13BufferWrapper6bufferCslQCpptksoiT_3mod
FN:202,_RNvXs_NtNtCsap2RCL79A4I_14wgpu_3dgs_core6buffer8gaussianINtB4_15GaussiansBufferNtB4_39GaussianPodWithShNoneCov3dSingleConfigsENtB6_13BufferWrapper6bufferCslQCpptksoiT_3mod
FN:202,_RNvXs_NtNtCsap2RCL79A4I_14wgpu_3dgs_core6buffer8gaussianINtB4_15GaussiansBufferNtB4_39GaussianPodWithShSingleCov3dHalfConfigsENtB6_13BufferWrapper6bufferCslQCpptksoiT_3mod
FN:202,_RNvXs_NtNtCsap2RCL79A4I_14wgpu_3dgs_core6buffer8gaussianINtB4_15GaussiansBufferNtB4_40GaussianPodWithShNorm8Cov3dSingleConfigsENtB6_13BufferWrapper6bufferCslQCpptksoiT_3mod
FN:202,_RNvXs_NtNtCsap2RCL79A4I_14wgpu_3dgs_core6buffer8gaussianINtB4_15GaussiansBufferNtB4_41GaussianPodWithShHalfCov3dRotScaleConfigsENtB6_13BufferWrapper6bufferCslQCpptksoiT_3mod
FN:202,_RNvXs_NtNtCsap2RCL79A4I_14wgpu_3dgs_core6buffer8gaussianINtB4_15GaussiansBufferNtB4_41GaussianPodWithShNoneCov3dRotScaleConfigsENtB6_13BufferWrapper6bufferCslQCpptksoiT_3mod
FN:202,_RNvXs_NtNtCsap2RCL79A4I_14wgpu_3dgs_core6buffer8gaussianINtB4_15GaussiansBufferNtB4_41GaussianPodWithShSingleCov3dSingleConfigsENtB6_13BufferWrapper6bufferCslQCpptksoiT_3mod
FN:202,_RNvXs_NtNtCsap2RCL79A4I_14wgpu_3dgs_core6buffer8gaussianINtB4_15GaussiansBufferNtB4_42GaussianPodWithShNorm8Cov3dRotScaleConfigsENtB6_13BufferWrapper6bufferCslQCpptksoiT_3mod
FN:202,_RNvXs_NtNtCsap2RCL79A4I_14wgpu_3dgs_core6buffer8gaussianINtB4_15GaussiansBufferNtB4_43GaussianPodWithShSingleCov3dRotScaleConfigsENtB6_13BufferWrapper6bufferCslQCpptksoiT_3mod
FN:263,_RNvYNtNtNtCsap2RCL79A4I_14wgpu_3dgs_core6buffer8gaussian37GaussianPodWithShHalfCov3dHalfConfigsNtB4_11GaussianPod13from_gaussianCslQCpptksoiT_3mod
FN:263,_RNvYNtNtNtCsap2RCL79A4I_14wgpu_3dgs_core6buffer8gaussian37GaussianPodWithShNoneCov3dHalfConfigsNtB4_11GaussianPod13from_gaussianCslQCpptksoiT_3mod
FN:263,_RNvYNtNtNtCsap2RCL79A4I_14wgpu_3dgs_core6buffer8gaussian38GaussianPodWithShNorm8Cov3dHalfConfigsNtB4_11GaussianPod13from_gaussianCslQCpptksoiT_3mod
FN:263,_RNvYNtNtNtCsap2RCL79A4I_14wgpu_3dgs_core6buffer8gaussian39GaussianPodWithShHalfCov3dSingleConfigsNtB4_11GaussianPod13from_gaussianCslQCpptksoiT_3mod
FN:289,_RNvYNtNtNtCsap2RCL79A4I_14wgpu_3dgs_core6buffer8gaussian39GaussianPodWithShHalfCov3dSingleConfigsNtB4_11GaussianPod13wesl_featuresCslQCpptksoiT_3mod
FN:270,_RNvYNtNtNtCsap2RCL79A4I_14wgpu_3dgs_core6buffer8gaussian39GaussianPodWithShHalfCov3dSingleConfigsNtB4_11GaussianPod8featuresCslQCpptksoiT_3mod
FN:263,_RNvYNtNtNtCsap2RCL79A4I_14wgpu_3dgs_core6buffer8gaussian39GaussianPodWithShNoneCov3dSingleConfigsNtB4_11GaussianPod13from_gaussianCslQCpptksoiT_3mod
FN:263,_RNvYNtNtNtCsap2RCL79A4I_14wgpu_3dgs_core6buffer8gaussian39GaussianPodWithShSingleCov3dHalfConfigsNtB4_11GaussianPod13from_gaussianCslQCpptksoiT_3mod
FN:289,_RNvYNtNtNtCsap2RCL79A4I_14wgpu_3dgs_core6buffer8gaussian39GaussianPodWithShSingleCov3dHalfConfigsNtB4_11GaussianPod13wesl_featuresCslQCpptksoiT_3mod
FN:270,_RNvYNtNtNtCsap2RCL79A4I_14wgpu_3dgs_core6buffer8gaussian39GaussianPodWithShSingleCov3dHalfConfigsNtB4_11GaussianPod8featuresCslQCpptksoiT_3mod
FN:263,_RNvYNtNtNtCsap2RCL79A4I_14wgpu_3dgs_core6buffer8gaussian40GaussianPodWithShNorm8Cov3dSingleConfigsNtB4_11GaussianPod13from_gaussianCslQCpptksoiT_3mod
FN:289,_RNvYNtNtNtCsap2RCL79A4I_14wgpu_3dgs_core6buffer8gaussian40GaussianPodWithShNorm8Cov3dSingleConfigsNtB4_11GaussianPod13wesl_featuresCslQCpptksoiT_3mod
FN:270,_RNvYNtNtNtCsap2RCL79A4I_14wgpu_3dgs_core6buffer8gaussian40GaussianPodWithShNorm8Cov3dSingleConfigsNtB4_11GaussianPod8featuresCslQCpptksoiT_3mod
FN:263,_RNvYNtNtNtCsap2RCL79A4I_14wgpu_3dgs_core6buffer8gaussian41GaussianPodWithShHalfCov3dRotScaleConfigsNtB4_11GaussianPod13from_gaussianCslQCpptksoiT_3mod
FN:263,_RNvYNtNtNtCsap2RCL79A4I_14wgpu_3dgs_core6buffer8gaussian41GaussianPodWithShNoneCov3dRotScaleConfigsNtB4_11GaussianPod13from_gaussianCslQCpptksoiT_3mod
FN:263,_RNvYNtNtNtCsap2RCL79A4I_14wgpu_3dgs_core6buffer8gaussian41GaussianPodWithShSingleCov3dSingleConfigsNtB4_11GaussianPod13from_gaussianCslQCpptksoiT_3mod
FN:289,_RNvYNtNtNtCsap2RCL79A4I_14wgpu_3dgs_core6buffer8gaussian41GaussianPodWithShSingleCov3dSingleConfigsNtB4_11GaussianPod13wesl_featuresCslQCpptksoiT_3mod
FN:270,_RNvYNtNtNtCsap2RCL79A4I_14wgpu_3dgs_core6buffer8gaussian41GaussianPodWithShSingleCov3dSingleConfigsNtB4_11GaussianPod8featuresCslQCpptksoiT_3mod
FN:263,_RNvYNtNtNtCsap2RCL79A4I_14wgpu_3dgs_core6buffer8gaussian42GaussianPodWithShNorm8Cov3dRotScaleConfigsNtB4_11GaussianPod13from_gaussianCslQCpptksoiT_3mod
FN:263,_RNvYNtNtNtCsap2RCL79A4I_14wgpu_3dgs_core6buffer8gaussian43GaussianPodWithShSingleCov3dRotScaleConfigsNtB4_11GaussianPod13from_gaussianCslQCpptksoiT_3mod
FN:289,_RNvYNtNtNtCsap2RCL79A4I_14wgpu_3dgs_core6buffer8gaussian43GaussianPodWithShSingleCov3dRotScaleConfigsNtB4_11GaussianPod13wesl_featuresCslQCpptksoiT_3mod
FN:270,_RNvYNtNtNtCsap2RCL79A4I_14wgpu_3dgs_core6buffer8gaussian43GaussianPodWithShSingleCov3dRotScaleConfigsNtB4_11GaussianPod8featuresCslQCpptksoiT_3mod
FN:342,_RNvXs13_NtNtCsap2RCL79A4I_14wgpu_3dgs_core6buffer8gaussianNtNtBa_8gaussian8GaussianINtNtCsmHtFwzCQ9E_4core7convert4FromNtB6_42GaussianPodWithShNorm8Cov3dRotScaleConfigsE4from
FN:342,_RNvXs1H_NtNtCsap2RCL79A4I_14wgpu_3dgs_core6buffer8gaussianNtNtBa_8gaussian8GaussianINtNtCsmHtFwzCQ9E_4core7convert4FromNtB6_39GaussianPodWithShNoneCov3dSingleConfigsE4from
FN:342,_RNvXs1R_NtNtCsap2RCL79A4I_14wgpu_3dgs_core6buffer8gaussianNtNtBa_8gaussian8GaussianINtNtCsmHtFwzCQ9E_4core7convert4FromNtB6_37GaussianPodWithShNoneCov3dHalfConfigsE4from
FN:342,_RNvXs1d_NtNtCsap2RCL79A4I_14wgpu_3dgs_core6buffer8gaussianNtNtBa_8gaussian8GaussianINtNtCsmHtFwzCQ9E_4core7convert4FromNtB6_40GaussianPodWithShNorm8Cov3dSingleConfigsE4from
FN:342,_RNvXs1n_NtNtCsap2RCL79A4I_14wgpu_3dgs_core6buffer8gaussianNtNtBa_8gaussian8GaussianINtNtCsmHtFwzCQ9E_4core7convert4FromNtB6_38GaussianPodWithShNorm8Cov3dHalfConfigsE4from
FN:342,_RNvXs1x_NtNtCsap2RCL79A4I_14wgpu_3dgs_core6buffer8gaussianNtNtBa_8gaussian8GaussianINtNtCsmHtFwzCQ9E_4core7convert4FromNtB6_41GaussianPodWithShNoneCov3dRotScaleConfigsE4from
FN:342,_RNvXs5_NtNtCsap2RCL79A4I_14wgpu_3dgs_core6buffer8gaussianNtNtB9_8gaussian8GaussianINtNtCsmHtFwzCQ9E_4core7convert4FromNtB5_43GaussianPodWithShSingleCov3dRotScaleConfigsE4from
FN:342,_RNvXsJ_NtNtCsap2RCL79A4I_14wgpu_3dgs_core6buffer8gaussianNtNtB9_8gaussian8GaussianINtNtCsmHtFwzCQ9E_4core7convert4FromNtB5_39GaussianPodWithShHalfCov3dSingleConfigsE4from
FN:342,_RNvXsT_NtNtCsap2RCL79A4I_14wgpu_3dgs_core6buffer8gaussianNtNtB9_8gaussian8GaussianINtNtCsmHtFwzCQ9E_4core7convert4FromNtB5_37GaussianPodWithShHalfCov3dHalfConfigsE4from
FN:342,_RNvXsf_NtNtCsap2RCL79A4I_14wgpu_3dgs_core6buffer8gaussianNtNtB9_8gaussian8GaussianINtNtCsmHtFwzCQ9E_4core7convert4FromNtB5_41GaussianPodWithShSingleCov3dSingleConfigsE4from
FN:342,_RNvXsp_NtNtCsap2RCL79A4I_14wgpu_3dgs_core6buffer8gaussianNtNtB9_8gaussian8GaussianINtNtCsmHtFwzCQ9E_4core7convert4FromNtB5_39GaussianPodWithShSingleCov3dHalfConfigsE4from
FN:342,_RNvXsz_NtNtCsap2RCL79A4I_14wgpu_3dgs_core6buffer8gaussianNtNtB9_8gaussian8GaussianINtNtCsmHtFwzCQ9E_4core7convert4FromNtB5_41GaussianPodWithShHalfCov3dRotScaleConfigsE4from
FN:315,_RNvXs12_NtNtCsap2RCL79A4I_14wgpu_3dgs_core6buffer8gaussianNtB6_42GaussianPodWithShNorm8Cov3dRotScaleConfigsINtNtCsmHtFwzCQ9E_4core7convert4FromRNtNtBa_8gaussian8GaussianE4from
FN:315,_RNvXs1G_NtNtCsap2RCL79A4I_14wgpu_3dgs_core6buffer8gaussianNtB6_39GaussianPodWithShNoneCov3dSingleConfigsINtNtCsmHtFwzCQ9E_4core7convert4FromRNtNtBa_8gaussian8GaussianE4from
FN:315,_RNvXs1Q_NtNtCsap2RCL79A4I_14wgpu_3dgs_core6buffer8gaussianNtB6_37GaussianPodWithShNoneCov3dHalfConfigsINtNtCsmHtFwzCQ9E_4core7convert4FromRNtNtBa_8gaussian8GaussianE4from
FN:315,_RNvXs1c_NtNtCsap2RCL79A4I_14wgpu_3dgs_core6buffer8gaussianNtB6_40GaussianPodWithShNorm8Cov3dSingleConfigsINtNtCsmHtFwzCQ9E_4core7convert4FromRNtNtBa_8gaussian8GaussianE4from
FN:315,_RNvXs1m_NtNtCsap2RCL79A4I_14wgpu_3dgs_core6buffer8gaussianNtB6_38GaussianPodWithShNorm8Cov3dHalfConfigsINtNtCsmHtFwzCQ9E_4core7convert4FromRNtNtBa_8gaussian8GaussianE4from
FN:315,_RNvXs1w_NtNtCsap2RCL79A4I_14wgpu_3dgs_core6buffer8gaussianNtB6_41GaussianPodWithShNoneCov3dRotScaleConfigsINtNtCsmHtFwzCQ9E_4core7convert4FromRNtNtBa_8gaussian8GaussianE4from
FN:315,_RNvXs4_NtNtCsap2RCL79A4I_14wgpu_3dgs_core6buffer8gaussianNtB5_43GaussianPodWithShSingleCov3dRotScaleConfigsINtNtCsmHtFwzCQ9E_4core7convert4FromRNtNtB9_8gaussian8GaussianE4from
FN:315,_RNvXsI_NtNtCsap2RCL79A4I_14wgpu_3dgs_core6buffer8gaussianNtB5_39GaussianPodWithShHalfCov3dSingleConfigsINtNtCsmHtFwzCQ9E_4core7convert4FromRNtNtB9_8gaussian8GaussianE4from
FN:315,_RNvXsS_NtNtCsap2RCL79A4I_14wgpu_3dgs_core6buffer8gaussianNtB5_37GaussianPodWithShHalfCov3dHalfConfigsINtNtCsmHtFwzCQ9E_4core7convert4FromRNtNtB9_8gaussian8GaussianE4from
FN:315,_RNvXse_NtNtCsap2RCL79A4I_14wgpu_3dgs_core6buffer8gaussianNtB5_41GaussianPodWithShSingleCov3dSingleConfigsINtNtCsmHtFwzCQ9E_4core7convert4FromRNtNtB9_8gaussian8GaussianE4from
FN:315,_RNvXso_NtNtCsap2RCL79A4I_14wgpu_3dgs_core6buffer8gaussianNtB5_39GaussianPodWithShSingleCov3dHalfConfigsINtNtCsmHtFwzCQ9E_4core7convert4FromRNtNtB9_8gaussian8GaussianE4from
FN:315,_RNvXsy_NtNtCsap2RCL79A4I_14wgpu_3dgs_core6buffer8gaussianNtB5_41GaussianPodWithShHalfCov3dRotScaleConfigsINtNtCsmHtFwzCQ9E_4core7convert4FromRNtNtB9_8gaussian8GaussianE4from
FN:473,_RNvNtNtNtNtCs3bDQ3tnbls4_14wgpu_3dgs_core6buffer8gaussian5tests3pods_41test_none_half_features_should_be_correct
FN:395,_RNvNtNtNtNtCs3bDQ3tnbls4_14wgpu_3dgs_core6buffer8gaussian5tests3pods_41test_none_half_into_gaussian_should_panic
FN:473,_RNvNtNtNtNtCs3bDQ3tnbls4_14wgpu_3dgs_core6buffer8gaussian5tests3pods_42test_norm8_half_features_should_be_correct
FN:395,_RNvNtNtNtNtCs3bDQ3tnbls4_14wgpu_3dgs_core6buffer8gaussian5tests3pods_42test_norm8_half_into_gaussian_should_panic
FN:473,_RNvNtNtNtNtCs3bDQ3tnbls4_14wgpu_3dgs_core6buffer8gaussian5tests3pods_43test_none_single_features_should_be_correct
FN:395,_RNvNtNtNtNtCs3bDQ3tnbls4_14wgpu_3dgs_core6buffer8gaussian5tests3pods_43test_none_single_into_gaussian_should_panic
FN:473,_RNvNtNtNtNtCs3bDQ3tnbls4_14wgpu_3dgs_core6buffer8gaussian5tests3pods_43test_single_half_features_should_be_correct
FN:395,_RNvNtNtNtNtCs3bDQ3tnbls4_14wgpu_3dgs_core6buffer8gaussian5tests3pods_43test_single_half_into_gaussian_should_panic
FN:473,_RNvNtNtNtNtCs3bDQ3tnbls4_14wgpu_3dgs_core6buffer8gaussian5tests3pods_44test_norm8_single_features_should_be_correct
FN:395,_RNvNtNtNtNtCs3bDQ3tnbls4_14wgpu_3dgs_core6buffer8gaussian5tests3pods_44test_norm8_single_into_gaussian_should_panic
FN:473,_RNvNtNtNtNtCs3bDQ3tnbls4_14wgpu_3dgs_core6buffer8gaussian5tests3pods_45test_half_rotscale_features_should_be_correct
FN:473,_RNvNtNtNtNtCs3bDQ3tnbls4_14wgpu_3dgs_core6buffer8gaussian5tests3pods_45test_none_rotscale_features_should_be_correct
FN:395,_RNvNtNtNtNtCs3bDQ3tnbls4_14wgpu_3dgs_core6buffer8gaussian5tests3pods_45test_none_rotscale_into_gaussian_should_panic
FN:473,_RNvNtNtNtNtCs3bDQ3tnbls4_14wgpu_3dgs_core6buffer8gaussian5tests3pods_45test_single_single_features_should_be_correct
FN:395,_RNvNtNtNtNtCs3bDQ3tnbls4_14wgpu_3dgs_core6buffer8gaussian5tests3pods_45test_single_single_into_gaussian_should_panic
FN:488,_RNvNtNtNtNtCs3bDQ3tnbls4_14wgpu_3dgs_core6buffer8gaussian5tests3pods_46test_none_half_wesl_features_should_be_correct
FN:473,_RNvNtNtNtNtCs3bDQ3tnbls4_14wgpu_3dgs_core6buffer8gaussian5tests3pods_46test_norm8_rotscale_features_should_be_correct
FN:473,_RNvNtNtNtNtCs3bDQ3tnbls4_14wgpu_3dgs_core6buffer8gaussian5tests3pods_46test_test_half_half_features_should_be_correct
FN:395,_RNvNtNtNtNtCs3bDQ3tnbls4_14wgpu_3dgs_core6buffer8gaussian5tests3pods_46test_test_half_half_into_gaussian_should_panic
FN:488,_RNvNtNtNtNtCs3bDQ3tnbls4_14wgpu_3dgs_core6buffer8gaussian5tests3pods_47test_norm8_half_wesl_features_should_be_correct
FN:473,_RNvNtNtNtNtCs3bDQ3tnbls4_14wgpu_3dgs_core6buffer8gaussian5tests3pods_47test_single_rotscale_features_should_be_correct
FN:488,_RNvNtNtNtNtCs3bDQ3tnbls4_14wgpu_3dgs_core6buffer8gaussian5tests3pods_48test_none_single_wesl_features_should_be_correct
FN:488,_RNvNtNtNtNtCs3bDQ3tnbls4_14wgpu_3dgs_core6buffer8gaussian5tests3pods_48test_single_half_wesl_features_should_be_correct
FN:473,_RNvNtNtNtNtCs3bDQ3tnbls4_14wgpu_3dgs_core6buffer8gaussian5tests3pods_48test_test_half_single_features_should_be_correct
FN:395,_RNvNtNtNtNtCs3bDQ3tnbls4_14wgpu_3dgs_core6buffer8gaussian5tests3pods_48test_test_half_single_into_gaussian_should_panic
FN:488,_RNvNtNtNtNtCs3bDQ3tnbls4_14wgpu_3dgs_core6buffer8gaussian5tests3pods_49test_norm8_single_wesl_features_should_be_correct
FN:488,_RNvNtNtNtNtCs3bDQ3tnbls4_14wgpu_3dgs_core6buffer8gaussian5tests3pods_50test_half_rotscale_wesl_features_should_be_correct
FN:488,_RNvNtNtNtNtCs3bDQ3tnbls4_14wgpu_3dgs_core6buffer8gaussian5tests3pods_50test_none_rotscale_wesl_features_should_be_correct
FN:488,_RNvNtNtNtNtCs3bDQ3tnbls4_14wgpu_3dgs_core6buffer8gaussian5tests3pods_50test_single_single_wesl_features_should_be_correct
FN:488,_RNvNtNtNtNtCs3bDQ3tnbls4_14wgpu_3dgs_core6buffer8gaussian5tests3pods_51test_norm8_rotscale_wesl_features_should_be_correct
FN:488,_RNvNtNtNtNtCs3bDQ3tnbls4_14wgpu_3dgs_core6buffer8gaussian5tests3pods_51test_test_half_half_wesl_features_should_be_correct
FN:488,_RNvNtNtNtNtCs3bDQ3tnbls4_14wgpu_3dgs_core6buffer8gaussian5tests3pods_52test_single_rotscale_wesl_features_should_be_correct
FN:488,_RNvNtNtNtNtCs3bDQ3tnbls4_14wgpu_3dgs_core6buffer8gaussian5tests3pods_53test_test_half_single_wesl_features_should_be_correct
FN:411,_RNvNtNtNtNtCs3bDQ3tnbls4_14wgpu_3dgs_core6buffer8gaussian5tests3pods_58test_half_rotscale_into_gaussian_should_equal_original_pod
FN:444,_RNvNtNtNtNtCs3bDQ3tnbls4_14wgpu_3dgs_core6buffer8gaussian5tests3pods_59test_none_half_from_gaussian_should_equal_original_gaussian
FN:411,_RNvNtNtNtNtCs3bDQ3tnbls4_14wgpu_3dgs_core6buffer8gaussian5tests3pods_59test_norm8_rotscale_into_gaussian_should_equal_original_pod
FN:444,_RNvNtNtNtNtCs3bDQ3tnbls4_14wgpu_3dgs_core6buffer8gaussian5tests3pods_60test_norm8_half_from_gaussian_should_equal_original_gaussian
FN:411,_RNvNtNtNtNtCs3bDQ3tnbls4_14wgpu_3dgs_core6buffer8gaussian5tests3pods_60test_single_rotscale_into_gaussian_should_equal_original_pod
FN:444,_RNvNtNtNtNtCs3bDQ3tnbls4_14wgpu_3dgs_core6buffer8gaussian5tests3pods_61test_none_single_from_gaussian_should_equal_original_gaussian
FN:444,_RNvNtNtNtNtCs3bDQ3tnbls4_14wgpu_3dgs_core6buffer8gaussian5tests3pods_61test_single_half_from_gaussian_should_equal_original_gaussian
FN:444,_RNvNtNtNtNtCs3bDQ3tnbls4_14wgpu_3dgs_core6buffer8gaussian5tests3pods_62test_norm8_single_from_gaussian_should_equal_original_gaussian
FN:444,_RNvNtNtNtNtCs3bDQ3tnbls4_14wgpu_3dgs_core6buffer8gaussian5tests3pods_63test_half_rotscale_from_gaussian_should_equal_original_gaussian
FN:444,_RNvNtNtNtNtCs3bDQ3tnbls4_14wgpu_3dgs_core6buffer8gaussian5tests3pods_63test_none_rotscale_from_gaussian_should_equal_original_gaussian
FN:444,_RNvNtNtNtNtCs3bDQ3tnbls4_14wgpu_3dgs_core6buffer8gaussian5tests3pods_63test_single_single_from_gaussian_should_equal_original_gaussian
FN:444,_RNvNtNtNtNtCs3bDQ3tnbls4_14wgpu_3dgs_core6buffer8gaussian5tests3pods_64test_norm8_rotscale_from_gaussian_should_equal_original_gaussian
FN:444,_RNvNtNtNtNtCs3bDQ3tnbls4_14wgpu_3dgs_core6buffer8gaussian5tests3pods_64test_test_half_half_from_gaussian_should_equal_original_gaussian
FN:444,_RNvNtNtNtNtCs3bDQ3tnbls4_14wgpu_3dgs_core6buffer8gaussian5tests3pods_65test_single_rotscale_from_gaussian_should_equal_original_gaussian
FN:444,_RNvNtNtNtNtCs3bDQ3tnbls4_14wgpu_3dgs_core6buffer8gaussian5tests3pods_66test_test_half_single_from_gaussian_should_equal_original_gaussian
FN:293,_RNCNvYNtNtNtCs3bDQ3tnbls4_14wgpu_3dgs_core6buffer8gaussian37GaussianPodWithShHalfCov3dHalfConfigsNtB6_11GaussianPod13wesl_features0Ba_
FN:280,_RNCNvYNtNtNtCs3bDQ3tnbls4_14wgpu_3dgs_core6buffer8gaussian37GaussianPodWithShHalfCov3dHalfConfigsNtB6_11GaussianPod8features0Ba_
FN:293,_RNCNvYNtNtNtCs3bDQ3tnbls4_14wgpu_3dgs_core6buffer8gaussian37GaussianPodWithShNoneCov3dHalfConfigsNtB6_11GaussianPod13wesl_features0Ba_
FN:280,_RNCNvYNtNtNtCs3bDQ3tnbls4_14wgpu_3dgs_core6buffer8gaussian37GaussianPodWithShNoneCov3dHalfConfigsNtB6_11GaussianPod8features0Ba_
FN:293,_RNCNvYNtNtNtCs3bDQ3tnbls4_14wgpu_3dgs_core6buffer8gaussian38GaussianPodWithShNorm8Cov3dHalfConfigsNtB6_11GaussianPod13wesl_features0Ba_
FN:280,_RNCNvYNtNtNtCs3bDQ3tnbls4_14wgpu_3dgs_core6buffer8gaussian38GaussianPodWithShNorm8Cov3dHalfConfigsNtB6_11GaussianPod8features0Ba_
FN:293,_RNCNvYNtNtNtCs3bDQ3tnbls4_14wgpu_3dgs_core6buffer8gaussian39GaussianPodWithShHalfCov3dSingleConfigsNtB6_11GaussianPod13wesl_features0Ba_
FN:280,_RNCNvYNtNtNtCs3bDQ3tnbls4_14wgpu_3dgs_core6buffer8gaussian39GaussianPodWithShHalfCov3dSingleConfigsNtB6_11GaussianPod8features0Ba_
FN:293,_RNCNvYNtNtNtCs3bDQ3tnbls4_14wgpu_3dgs_core6buffer8gaussian39GaussianPodWithShNoneCov3dSingleConfigsNtB6_11GaussianPod13wesl_features0Ba_
FN:280,_RNCNvYNtNtNtCs3bDQ3tnbls4_14wgpu_3dgs_core6buffer8gaussian39GaussianPodWithShNoneCov3dSingleConfigsNtB6_11GaussianPod8features0Ba_
FN:293,_RNCNvYNtNtNtCs3bDQ3tnbls4_14wgpu_3dgs_core6buffer8gaussian39GaussianPodWithShSingleCov3dHalfConfigsNtB6_11GaussianPod13wesl_features0Ba_
FN:280,_RNCNvYNtNtNtCs3bDQ3tnbls4_14wgpu_3dgs_core6buffer8gaussian39GaussianPodWithShSingleCov3dHalfConfigsNtB6_11GaussianPod8features0Ba_
FN:293,_RNCNvYNtNtNtCs3bDQ3tnbls4_14wgpu_3dgs_core6buffer8gaussian40GaussianPodWithShNorm8Cov3dSingleConfigsNtB6_11GaussianPod13wesl_features0Ba_
FN:280,_RNCNvYNtNtNtCs3bDQ3tnbls4_14wgpu_3dgs_core6buffer8gaussian40GaussianPodWithShNorm8Cov3dSingleConfigsNtB6_11GaussianPod8features0Ba_
FN:293,_RNCNvYNtNtNtCs3bDQ3tnbls4_14wgpu_3dgs_core6buffer8gaussian41GaussianPodWithShHalfCov3dRotScaleConfigsNtB6_11GaussianPod13wesl_features0Ba_
FN:280,_RNCNvYNtNtNtCs3bDQ3tnbls4_14wgpu_3dgs_core6buffer8gaussian41GaussianPodWithShHalfCov3dRotScaleConfigsNtB6_11GaussianPod8features0Ba_
FN:293,_RNCNvYNtNtNtCs3bDQ3tnbls4_14wgpu_3dgs_core6buffer8gaussian41GaussianPodWithShNoneCov3dRotScaleConfigsNtB6_11GaussianPod13wesl_features0Ba_
FN:280,_RNCNvYNtNtNtCs3bDQ3tnbls4_14wgpu_3dgs_core6buffer8gaussian41GaussianPodWithShNoneCov3dRotScaleConfigsNtB6_11GaussianPod8features0Ba_
FN:293,_RNCNvYNtNtNtCs3bDQ3tnbls4_14wgpu_3dgs_core6buffer8gaussian41GaussianPodWithShSingleCov3dSingleConfigsNtB6_11GaussianPod13wesl_features0Ba_
FN:280,_RNCNvYNtNtNtCs3bDQ3tnbls4_14wgpu_3dgs_core6buffer8gaussian41GaussianPodWithShSingleCov3dSingleConfigsNtB6_11GaussianPod8features0Ba_
FN:293,_RNCNvYNtNtNtCs3bDQ3tnbls4_14wgpu_3dgs_core6buffer8gaussian42GaussianPodWithShNorm8Cov3dRotScaleConfigsNtB6_11GaussianPod13wesl_features0Ba_
FN:280,_RNCNvYNtNtNtCs3bDQ3tnbls4_14wgpu_3dgs_core6buffer8gaussian42GaussianPodWithShNorm8Cov3dRotScaleConfigsNtB6_11GaussianPod8features0Ba_
FN:293,_RNCNvYNtNtNtCs3bDQ3tnbls4_14wgpu_3dgs_core6buffer8gaussian43GaussianPodWithShSingleCov3dRotScaleConfigsNtB6_11GaussianPod13wesl_features0Ba_
FN:280,_RNCNvYNtNtNtCs3bDQ3tnbls4_14wgpu_3dgs_core6buffer8gaussian43GaussianPodWithShSingleCov3dRotScaleConfigsNtB6_11GaussianPod8features0Ba_
FN:263,_RNvYNtNtNtCs3bDQ3tnbls4_14wgpu_3dgs_core6buffer8gaussian37GaussianPodWithShHalfCov3dHalfConfigsNtB4_11GaussianPod13from_gaussianB8_
FN:258,_RNvYNtNtNtCs3bDQ3tnbls4_14wgpu_3dgs_core6buffer8gaussian37GaussianPodWithShHalfCov3dHalfConfigsNtB4_11GaussianPod13into_gaussianB8_
FN:289,_RNvYNtNtNtCs3bDQ3tnbls4_14wgpu_3dgs_core6buffer8gaussian37GaussianPodWithShHalfCov3dHalfConfigsNtB4_11GaussianPod13wesl_featuresB8_
FN:270,_RNvYNtNtNtCs3bDQ3tnbls4_14wgpu_3dgs_core6buffer8gaussian37GaussianPodWithShHalfCov3dHalfConfigsNtB4_11GaussianPod8featuresB8_
FN:263,_RNvYNtNtNtCs3bDQ3tnbls4_14wgpu_3dgs_core6buffer8gaussian37GaussianPodWithShNoneCov3dHalfConfigsNtB4_11GaussianPod13from_gaussianB8_
FN:258,_RNvYNtNtNtCs3bDQ3tnbls4_14wgpu_3dgs_core6buffer8gaussian37GaussianPodWithShNoneCov3dHalfConfigsNtB4_11GaussianPod13into_gaussianB8_
FN:289,_RNvYNtNtNtCs3bDQ3tnbls4_14wgpu_3dgs_core6buffer8gaussian37GaussianPodWithShNoneCov3dHalfConfigsNtB4_11GaussianPod13wesl_featuresB8_
FN:270,_RNvYNtNtNtCs3bDQ3tnbls4_14wgpu_3dgs_core6buffer8gaussian37GaussianPodWithShNoneCov3dHalfConfigsNtB4_11GaussianPod8featuresB8_
FN:263,_RNvYNtNtNtCs3bDQ3tnbls4_14wgpu_3dgs_core6buffer8gaussian38GaussianPodWithShNorm8Cov3dHalfConfigsNtB4_11GaussianPod13from_gaussianB8_
FN:258,_RNvYNtNtNtCs3bDQ3tnbls4_14wgpu_3dgs_core6buffer8gaussian38GaussianPodWithShNorm8Cov3dHalfConfigsNtB4_11GaussianPod13into_gaussianB8_
FN:289,_RNvYNtNtNtCs3bDQ3tnbls4_14wgpu_3dgs_core6buffer8gaussian38GaussianPodWithShNorm8Cov3dHalfConfigsNtB4_11GaussianPod13wesl_featuresB8_
FN:270,_RNvYNtNtNtCs3bDQ3tnbls4_14wgpu_3dgs_core6buffer8gaussian38GaussianPodWithShNorm8Cov3dHalfConfigsNtB4_11GaussianPod8featuresB8_
FN:263,_RNvYNtNtNtCs3bDQ3tnbls4_14wgpu_3dgs_core6buffer8gaussian39GaussianPodWithShHalfCov3dSingleConfigsNtB4_11GaussianPod13from_gaussianB8_
FN:258,_RNvYNtNtNtCs3bDQ3tnbls4_14wgpu_3dgs_core6buffer8gaussian39GaussianPodWithShHalfCov3dSingleConfigsNtB4_11GaussianPod13into_gaussianB8_
FN:289,_RNvYNtNtNtCs3bDQ3tnbls4_14wgpu_3dgs_core6buffer8gaussian39GaussianPodWithShHalfCov3dSingleConfigsNtB4_11GaussianPod13wesl_featuresB8_
FN:270,_RNvYNtNtNtCs3bDQ3tnbls4_14wgpu_3dgs_core6buffer8gaussian39GaussianPodWithShHalfCov3dSingleConfigsNtB4_11GaussianPod8featuresB8_
FN:263,_RNvYNtNtNtCs3bDQ3tnbls4_14wgpu_3dgs_core6buffer8gaussian39GaussianPodWithShNoneCov3dSingleConfigsNtB4_11GaussianPod13from_gaussianB8_
FN:258,_RNvYNtNtNtCs3bDQ3tnbls4_14wgpu_3dgs_core6buffer8gaussian39GaussianPodWithShNoneCov3dSingleConfigsNtB4_11GaussianPod13into_gaussianB8_
FN:289,_RNvYNtNtNtCs3bDQ3tnbls4_14wgpu_3dgs_core6buffer8gaussian39GaussianPodWithShNoneCov3dSingleConfigsNtB4_11GaussianPod13wesl_featuresB8_
FN:270,_RNvYNtNtNtCs3bDQ3tnbls4_14wgpu_3dgs_core6buffer8gaussian39GaussianPodWithShNoneCov3dSingleConfigsNtB4_11GaussianPod8featuresB8_
FN:263,_RNvYNtNtNtCs3bDQ3tnbls4_14wgpu_3dgs_core6buffer8gaussian39GaussianPodWithShSingleCov3dHalfConfigsNtB4_11GaussianPod13from_gaussianB8_
FN:258,_RNvYNtNtNtCs3bDQ3tnbls4_14wgpu_3dgs_core6buffer8gaussian39GaussianPodWithShSingleCov3dHalfConfigsNtB4_11GaussianPod13into_gaussianB8_
FN:289,_RNvYNtNtNtCs3bDQ3tnbls4_14wgpu_3dgs_core6buffer8gaussian39GaussianPodWithShSingleCov3dHalfConfigsNtB4_11GaussianPod13wesl_featuresB8_
FN:270,_RNvYNtNtNtCs3bDQ3tnbls4_14wgpu_3dgs_core6buffer8gaussian39GaussianPodWithShSingleCov3dHalfConfigsNtB4_11GaussianPod8featuresB8_
FN:263,_RNvYNtNtNtCs3bDQ3tnbls4_14wgpu_3dgs_core6buffer8gaussian40GaussianPodWithShNorm8Cov3dSingleConfigsNtB4_11GaussianPod13from_gaussianB8_
FN:258,_RNvYNtNtNtCs3bDQ3tnbls4_14wgpu_3dgs_core6buffer8gaussian40GaussianPodWithShNorm8Cov3dSingleConfigsNtB4_11GaussianPod13into_gaussianB8_
FN:289,_RNvYNtNtNtCs3bDQ3tnbls4_14wgpu_3dgs_core6buffer8gaussian40GaussianPodWithShNorm8Cov3dSingleConfigsNtB4_11GaussianPod13wesl_featuresB8_
FN:270,_RNvYNtNtNtCs3bDQ3tnbls4_14wgpu_3dgs_core6buffer8gaussian40GaussianPodWithShNorm8Cov3dSingleConfigsNtB4_11GaussianPod8featuresB8_
FN:263,_RNvYNtNtNtCs3bDQ3tnbls4_14wgpu_3dgs_core6buffer8gaussian41GaussianPodWithShHalfCov3dRotScaleConfigsNtB4_11GaussianPod13from_gaussianB8_
FN:258,_RNvYNtNtNtCs3bDQ3tnbls4_14wgpu_3dgs_core6buffer8gaussian41GaussianPodWithShHalfCov3dRotScaleConfigsNtB4_11GaussianPod13into_gaussianB8_
FN:289,_RNvYNtNtNtCs3bDQ3tnbls4_14wgpu_3dgs_core6buffer8gaussian41GaussianPodWithShHalfCov3dRotScaleConfigsNtB4_11GaussianPod13wesl_featuresB8_
FN:270,_RNvYNtNtNtCs3bDQ3tnbls4_14wgpu_3dgs_core6buffer8gaussian41GaussianPodWithShHalfCov3dRotScaleConfigsNtB4_11GaussianPod8featuresB8_
FN:263,_RNvYNtNtNtCs3bDQ3tnbls4_14wgpu_3dgs_core6buffer8gaussian41GaussianPodWithShNoneCov3dRotScaleConfigsNtB4_11GaussianPod13from_gaussianB8_
FN:258,_RNvYNtNtNtCs3bDQ3tnbls4_14wgpu_3dgs_core6buffer8gaussian41GaussianPodWithShNoneCov3dRotScaleConfigsNtB4_11GaussianPod13into_gaussianB8_
FN:289,_RNvYNtNtNtCs3bDQ3tnbls4_14wgpu_3dgs_core6buffer8gaussian41GaussianPodWithShNoneCov3dRotScaleConfigsNtB4_11GaussianPod13wesl_featuresB8_
FN:270,_RNvYNtNtNtCs3bDQ3tnbls4_14wgpu_3dgs_core6buffer8gaussian41GaussianPodWithShNoneCov3dRotScaleConfigsNtB4_11GaussianPod8featuresB8_
FN:263,_RNvYNtNtNtCs3bDQ3tnbls4_14wgpu_3dgs_core6buffer8gaussian41GaussianPodWithShSingleCov3dSingleConfigsNtB4_11GaussianPod13from_gaussianB8_
FN:258,_RNvYNtNtNtCs3bDQ3tnbls4_14wgpu_3dgs_core6buffer8gaussian41GaussianPodWithShSingleCov3dSingleConfigsNtB4_11GaussianPod13into_gaussianB8_
FN:289,_RNvYNtNtNtCs3bDQ3tnbls4_14wgpu_3dgs_core6buffer8gaussian41GaussianPodWithShSingleCov3dSingleConfigsNtB4_11GaussianPod13wesl_featuresB8_
FN:270,_RNvYNtNtNtCs3bDQ3tnbls4_14wgpu_3dgs_core6buffer8gaussian41GaussianPodWithShSingleCov3dSingleConfigsNtB4_11GaussianPod8featuresB8_
FN:263,_RNvYNtNtNtCs3bDQ3tnbls4_14wgpu_3dgs_core6buffer8gaussian42GaussianPodWithShNorm8Cov3dRotScaleConfigsNtB4_11GaussianPod13from_gaussianB8_
FN:258,_RNvYNtNtNtCs3bDQ3tnbls4_14wgpu_3dgs_core6buffer8gaussian42GaussianPodWithShNorm8Cov3dRotScaleConfigsNtB4_11GaussianPod13into_gaussianB8_
FN:289,_RNvYNtNtNtCs3bDQ3tnbls4_14wgpu_3dgs_core6buffer8gaussian42GaussianPodWithShNorm8Cov3dRotScaleConfigsNtB4_11GaussianPod13wesl_featuresB8_
FN:270,_RNvYNtNtNtCs3bDQ3tnbls4_14wgpu_3dgs_core6buffer8gaussian42GaussianPodWithShNorm8Cov3dRotScaleConfigsNtB4_11GaussianPod8featuresB8_
FN:263,_RNvYNtNtNtCs3bDQ3tnbls4_14wgpu_3dgs_core6buffer8gaussian43GaussianPodWithShSingleCov3dRotScaleConfigsNtB4_11GaussianPod13from_gaussianB8_
FN:258,_RNvYNtNtNtCs3bDQ3tnbls4_14wgpu_3dgs_core6buffer8gaussian43GaussianPodWithShSingleCov3dRotScaleConfigsNtB4_11GaussianPod13into_gaussianB8_
FN:289,_RNvYNtNtNtCs3bDQ3tnbls4_14wgpu_3dgs_core6buffer8gaussian43GaussianPodWithShSingleCov3dRotScaleConfigsNtB4_11GaussianPod13wesl_featuresB8_
FN:270,_RNvYNtNtNtCs3bDQ3tnbls4_14wgpu_3dgs_core6buffer8gaussian43GaussianPodWithShSingleCov3dRotScaleConfigsNtB4_11GaussianPod8featuresB8_
FN:315,_RNvXs12_NtNtCs3bDQ3tnbls4_14wgpu_3dgs_core6buffer8gaussianNtB6_42GaussianPodWithShNorm8Cov3dRotScaleConfigsINtNtCsmHtFwzCQ9E_4core7convert4FromRNtNtBa_8gaussian8GaussianE4from
FN:315,_RNvXs1G_NtNtCs3bDQ3tnbls4_14wgpu_3dgs_core6buffer8gaussianNtB6_39GaussianPodWithShNoneCov3dSingleConfigsINtNtCsmHtFwzCQ9E_4core7convert4FromRNtNtBa_8gaussian8GaussianE4from
FN:315,_RNvXs1Q_NtNtCs3bDQ3tnbls4_14wgpu_3dgs_core6buffer8gaussianNtB6_37GaussianPodWithShNoneCov3dHalfConfigsINtNtCsmHtFwzCQ9E_4core7convert4FromRNtNtBa_8gaussian8GaussianE4from
FN:315,_RNvXs1c_NtNtCs3bDQ3tnbls4_14wgpu_3dgs_core6buffer8gaussianNtB6_40GaussianPodWithShNorm8Cov3dSingleConfigsINtNtCsmHtFwzCQ9E_4core7convert4FromRNtNtBa_8gaussian8GaussianE4from
FN:315,_RNvXs1m_NtNtCs3bDQ3tnbls4_14wgpu_3dgs_core6buffer8gaussianNtB6_38GaussianPodWithShNorm8Cov3dHalfConfigsINtNtCsmHtFwzCQ9E_4core7convert4FromRNtNtBa_8gaussian8GaussianE4from
FN:315,_RNvXs1w_NtNtCs3bDQ3tnbls4_14wgpu_3dgs_core6buffer8gaussianNtB6_41GaussianPodWithShNoneCov3dRotScaleConfigsINtNtCsmHtFwzCQ9E_4core7convert4FromRNtNtBa_8gaussian8GaussianE4from
FN:315,_RNvXs4_NtNtCs3bDQ3tnbls4_14wgpu_3dgs_core6buffer8gaussianNtB5_43GaussianPodWithShSingleCov3dRotScaleConfigsINtNtCsmHtFwzCQ9E_4core7convert4FromRNtNtB9_8gaussian8GaussianE4from
FN:315,_RNvXsI_NtNtCs3bDQ3tnbls4_14wgpu_3dgs_core6buffer8gaussianNtB5_39GaussianPodWithShHalfCov3dSingleConfigsINtNtCsmHtFwzCQ9E_4core7convert4FromRNtNtB9_8gaussian8GaussianE4from
FN:315,_RNvXsS_NtNtCs3bDQ3tnbls4_14wgpu_3dgs_core6buffer8gaussianNtB5_37GaussianPodWithShHalfCov3dHalfConfigsINtNtCsmHtFwzCQ9E_4core7convert4FromRNtNtB9_8gaussian8GaussianE4from
FN:315,_RNvXse_NtNtCs3bDQ3tnbls4_14wgpu_3dgs_core6buffer8gaussianNtB5_41GaussianPodWithShSingleCov3dSingleConfigsINtNtCsmHtFwzCQ9E_4core7convert4FromRNtNtB9_8gaussian8GaussianE4from
FN:315,_RNvXso_NtNtCs3bDQ3tnbls4_14wgpu_3dgs_core6buffer8gaussianNtB5_39GaussianPodWithShSingleCov3dHalfConfigsINtNtCsmHtFwzCQ9E_4core7convert4FromRNtNtB9_8gaussian8GaussianE4from
FN:315,_RNvXsy_NtNtCs3bDQ3tnbls4_14wgpu_3dgs_core6buffer8gaussianNtB5_41GaussianPodWithShHalfCov3dRotScaleConfigsINtNtCsmHtFwzCQ9E_4core7convert4FromRNtNtB9_8gaussian8GaussianE4from
FN:342,_RNvXs13_NtNtCs3bDQ3tnbls4_14wgpu_3dgs_core6buffer8gaussianNtNtBa_8gaussian8GaussianINtNtCsmHtFwzCQ9E_4core7convert4FromNtB6_42GaussianPodWithShNorm8Cov3dRotScaleConfigsE4from
FN:342,_RNvXs1H_NtNtCs3bDQ3tnbls4_14wgpu_3dgs_core6buffer8gaussianNtNtBa_8gaussian8GaussianINtNtCsmHtFwzCQ9E_4core7convert4FromNtB6_39GaussianPodWithShNoneCov3dSingleConfigsE4from
FN:342,_RNvXs1R_NtNtCs3bDQ3tnbls4_14wgpu_3dgs_core6buffer8gaussianNtNtBa_8gaussian8GaussianINtNtCsmHtFwzCQ9E_4core7convert4FromNtB6_37GaussianPodWithShNoneCov3dHalfConfigsE4from
FN:342,_RNvXs1d_NtNtCs3bDQ3tnbls4_14wgpu_3dgs_core6buffer8gaussianNtNtBa_8gaussian8GaussianINtNtCsmHtFwzCQ9E_4core7convert4FromNtB6_40GaussianPodWithShNorm8Cov3dSingleConfigsE4from
FN:342,_RNvXs1n_NtNtCs3bDQ3tnbls4_14wgpu_3dgs_core6buffer8gaussianNtNtBa_8gaussian8GaussianINtNtCsmHtFwzCQ9E_4core7convert4FromNtB6_38GaussianPodWithShNorm8Cov3dHalfConfigsE4from
FN:342,_RNvXs1x_NtNtCs3bDQ3tnbls4_14wgpu_3dgs_core6buffer8gaussianNtNtBa_8gaussian8GaussianINtNtCsmHtFwzCQ9E_4core7convert4FromNtB6_41GaussianPodWithShNoneCov3dRotScaleConfigsE4from
FN:342,_RNvXs5_NtNtCs3bDQ3tnbls4_14wgpu_3dgs_core6buffer8gaussianNtNtB9_8gaussian8GaussianINtNtCsmHtFwzCQ9E_4core7convert4FromNtB5_43GaussianPodWithShSingleCov3dRotScaleConfigsE4from
FN:342,_RNvXsJ_NtNtCs3bDQ3tnbls4_14wgpu_3dgs_core6buffer8gaussianNtNtB9_8gaussian8GaussianINtNtCsmHtFwzCQ9E_4core7convert4FromNtB5_39GaussianPodWithShHalfCov3dSingleConfigsE4from
FN:342,_RNvXsT_NtNtCs3bDQ3tnbls4_14wgpu_3dgs_core6buffer8gaussianNtNtB9_8gaussian8GaussianINtNtCsmHtFwzCQ9E_4core7convert4FromNtB5_37GaussianPodWithShHalfCov3dHalfConfigsE4from
FN:342,_RNvXsf_NtNtCs3bDQ3tnbls4_14wgpu_3dgs_core6buffer8gaussianNtNtB9_8gaussian8GaussianINtNtCsmHtFwzCQ9E_4core7convert4FromNtB5_41GaussianPodWithShSingleCov3dSingleConfigsE4from
FN:342,_RNvXsp_NtNtCs3bDQ3tnbls4_14wgpu_3dgs_core6buffer8gaussianNtNtB9_8gaussian8GaussianINtNtCsmHtFwzCQ9E_4core7convert4FromNtB5_39GaussianPodWithShSingleCov3dHalfConfigsE4from
FN:342,_RNvXsz_NtNtCs3bDQ3tnbls4_14wgpu_3dgs_core6buffer8gaussianNtNtB9_8gaussian8GaussianINtNtCsmHtFwzCQ9E_4core7convert4FromNtB5_41GaussianPodWithShHalfCov3dRotScaleConfigsE4from
FN:496,_RNCNvNtNtNtNtCs3bDQ3tnbls4_14wgpu_3dgs_core6buffer8gaussian5tests3pods_46test_none_half_wesl_features_should_be_correct0Bb_
FN:496,_RNCNvNtNtNtNtCs3bDQ3tnbls4_14wgpu_3dgs_core6buffer8gaussian5tests3pods_47test_norm8_half_wesl_features_should_be_correct0Bb_
FN:496,_RNCNvNtNtNtNtCs3bDQ3tnbls4_14wgpu_3dgs_core6buffer8gaussian5tests3pods_48test_none_single_wesl_features_should_be_correct0Bb_
FN:496,_RNCNvNtNtNtNtCs3bDQ3tnbls4_14wgpu_3dgs_core6buffer8gaussian5tests3pods_48test_single_half_wesl_features_should_be_correct0Bb_
FN:496,_RNCNvNtNtNtNtCs3bDQ3tnbls4_14wgpu_3dgs_core6buffer8gaussian5tests3pods_49test_norm8_single_wesl_features_should_be_correct0Bb_
FN:496,_RNCNvNtNtNtNtCs3bDQ3tnbls4_14wgpu_3dgs_core6buffer8gaussian5tests3pods_50test_half_rotscale_wesl_features_should_be_correct0Bb_
FN:496,_RNCNvNtNtNtNtCs3bDQ3tnbls4_14wgpu_3dgs_core6buffer8gaussian5tests3pods_50test_none_rotscale_wesl_features_should_be_correct0Bb_
FN:496,_RNCNvNtNtNtNtCs3bDQ3tnbls4_14wgpu_3dgs_core6buffer8gaussian5tests3pods_50test_single_single_wesl_features_should_be_correct0Bb_
FN:496,_RNCNvNtNtNtNtCs3bDQ3tnbls4_14wgpu_3dgs_core6buffer8gaussian5tests3pods_51test_norm8_rotscale_wesl_features_should_be_correct0Bb_
FN:496,_RNCNvNtNtNtNtCs3bDQ3tnbls4_14wgpu_3dgs_core6buffer8gaussian5tests3pods_51test_test_half_half_wesl_features_should_be_correct0Bb_
FN:496,_RNCNvNtNtNtNtCs3bDQ3tnbls4_14wgpu_3dgs_core6buffer8gaussian5tests3pods_52test_single_rotscale_wesl_features_should_be_correct0Bb_
FN:496,_RNCNvNtNtNtNtCs3bDQ3tnbls4_14wgpu_3dgs_core6buffer8gaussian5tests3pods_53test_test_half_single_wesl_features_should_be_correct0Bb_
FN:33,_RINvMNtNtCs3bDQ3tnbls4_14wgpu_3dgs_core6buffer8gaussianINtB3_15GaussiansBufferpE14new_with_usagepEB7_
FN:21,_RINvMNtNtCs3bDQ3tnbls4_14wgpu_3dgs_core6buffer8gaussianINtB3_15GaussiansBufferpE3newpEB7_
FN:104,_RINvMNtNtCs3bDQ3tnbls4_14wgpu_3dgs_core6buffer8gaussianINtB3_15GaussiansBufferpE6updatepEB7_
FN:42,_RNCINvMNtNtCs3bDQ3tnbls4_14wgpu_3dgs_core6buffer8gaussianINtB5_15GaussiansBufferpE14new_with_usagepE0B9_
FN:26,_RNCINvMNtNtCs3bDQ3tnbls4_14wgpu_3dgs_core6buffer8gaussianINtB5_15GaussiansBufferpE3newpE0B9_
FN:113,_RNCINvMNtNtCs3bDQ3tnbls4_14wgpu_3dgs_core6buffer8gaussianINtB5_15GaussiansBufferpE6updatepE0B9_
FN:193,_RNCNCNvMNtNtCs3bDQ3tnbls4_14wgpu_3dgs_core6buffer8gaussianINtB6_15GaussiansBufferpE18download_gaussians00Ba_
FN:190,_RNCNvMNtNtCs3bDQ3tnbls4_14wgpu_3dgs_core6buffer8gaussianINtB4_15GaussiansBufferpE18download_gaussians0B8_
FN:142,_RNvMNtNtCs3bDQ3tnbls4_14wgpu_3dgs_core6buffer8gaussianINtB2_15GaussiansBufferpE12update_rangeB6_
FN:50,_RNvMNtNtCs3bDQ3tnbls4_14wgpu_3dgs_core6buffer8gaussianINtB2_15GaussiansBufferpE13new_with_podsB6_
FN:122,_RNvMNtNtCs3bDQ3tnbls4_14wgpu_3dgs_core6buffer8gaussianINtB2_15GaussiansBufferpE15update_with_podB6_
FN:186,_RNvMNtNtCs3bDQ3tnbls4_14wgpu_3dgs_core6buffer8gaussianINtB2_15GaussiansBufferpE18download_gaussiansB6_
FN:76,_RNvMNtNtCs3bDQ3tnbls4_14wgpu_3dgs_core6buffer8gaussianINtB2_15GaussiansBufferpE20new_empty_with_usageB6_
FN:162,_RNvMNtNtCs3bDQ3tnbls4_14wgpu_3dgs_core6buffer8gaussianINtB2_15GaussiansBufferpE21update_range_with_podB6_
FN:56,_RNvMNtNtCs3bDQ3tnbls4_14wgpu_3dgs_core6buffer8gaussianINtB2_15GaussiansBufferpE23new_with_pods_and_usageB6_
FN:92,_RNvMNtNtCs3bDQ3tnbls4_14wgpu_3dgs_core6buffer8gaussianINtB2_15GaussiansBufferpE3lenB6_
FN:97,_RNvMNtNtCs3bDQ3tnbls4_14wgpu_3dgs_core6buffer8gaussianINtB2_15GaussiansBufferpE8is_emptyB6_
FN:71,_RNvMNtNtCs3bDQ3tnbls4_14wgpu_3dgs_core6buffer8gaussianINtB2_15GaussiansBufferpE9new_emptyB6_
FN:208,_RNvXININtNtCs3bDQ3tnbls4_14wgpu_3dgs_core6buffer8gaussians0_0pENtNtNtCsebiihMPZ3Ak_4wgpu3api6buffer6BufferINtNtCsmHtFwzCQ9E_4core7convert4FromINtB5_15GaussiansBufferpEE4fromB9_
FN:216,_RNvXININtNtCs3bDQ3tnbls4_14wgpu_3dgs_core6buffer8gaussians1_0pEINtB5_15GaussiansBufferpEINtNtCsmHtFwzCQ9E_4core7convert7TryFromNtNtNtCsebiihMPZ3Ak_4wgpu3api6buffer6BufferE8try_fromB9_
FN:202,_RNvXININtNtCs3bDQ3tnbls4_14wgpu_3dgs_core6buffer8gaussians_0pEINtB5_15GaussiansBufferpENtB7_13BufferWrapper6bufferB9_
FN:21,_RINvMNtNtCsap2RCL79A4I_14wgpu_3dgs_core6buffer8gaussianINtB3_15GaussiansBufferNtB3_37GaussianPodWithShHalfCov3dHalfConfigsE3newNtNtNtB7_13source_format3ply12PlyGaussiansECskiFSrz17jIX_8read_ply
FN:26,_RNCINvMNtNtCsap2RCL79A4I_14wgpu_3dgs_core6buffer8gaussianINtB5_15GaussiansBufferNtB5_37GaussianPodWithShHalfCov3dHalfConfigsE3newNtNtNtB9_13source_format3ply12PlyGaussiansE0CskiFSrz17jIX_8read_ply
FN:50,_RNvMNtNtCsap2RCL79A4I_14wgpu_3dgs_core6buffer8gaussianINtB2_15GaussiansBufferNtB2_37GaussianPodWithShHalfCov3dHalfConfigsE13new_with_podsCskiFSrz17jIX_8read_ply
FN:56,_RNvMNtNtCsap2RCL79A4I_14wgpu_3dgs_core6buffer8gaussianINtB2_15GaussiansBufferNtB2_37GaussianPodWithShHalfCov3dHalfConfigsE23new_with_pods_and_usageCskiFSrz17jIX_8read_ply
FN:92,_RNvMNtNtCsap2RCL79A4I_14wgpu_3dgs_core6buffer8gaussianINtB2_15GaussiansBufferNtB2_37GaussianPodWithShHalfCov3dHalfConfigsE3lenCskiFSrz17jIX_8read_ply
FN:202,_RNvXs_NtNtCsap2RCL79A4I_14wgpu_3dgs_core6buffer8gaussianINtB4_15GaussiansBufferNtB4_37GaussianPodWithShHalfCov3dHalfConfigsENtB6_13BufferWrapper6bufferCskiFSrz17jIX_8read_ply
FN:263,_RNvYNtNtNtCsap2RCL79A4I_14wgpu_3dgs_core6buffer8gaussian37GaussianPodWithShHalfCov3dHalfConfigsNtB4_11GaussianPod13from_gaussianCskiFSrz17jIX_8read_ply
FN:21,_RINvMNtNtCsap2RCL79A4I_14wgpu_3dgs_core6buffer8gaussianINtB3_15GaussiansBufferNtB3_37GaussianPodWithShHalfCov3dHalfConfigsE3newNtNtNtB7_13source_format3spz12SpzGaussiansECs3RzkXnBrBnu_8read_spz
FN:26,_RNCINvMNtNtCsap2RCL79A4I_14wgpu_3dgs_core6buffer8gaussianINtB5_15GaussiansBufferNtB5_37GaussianPodWithShHalfCov3dHalfConfigsE3newNtNtNtB9_13source_format3spz12SpzGaussiansE0Cs3RzkXnBrBnu_8read_spz
FN:50,_RNvMNtNtCsap2RCL79A4I_14wgpu_3dgs_core6buffer8gaussianINtB2_15GaussiansBufferNtB2_37GaussianPodWithShHalfCov3dHalfConfigsE13new_with_podsCs3RzkXnBrBnu_8read_spz
FN:56,_RNvMNtNtCsap2RCL79A4I_14wgpu_3dgs_core6buffer8gaussianINtB2_15GaussiansBufferNtB2_37GaussianPodWithShHalfCov3dHalfConfigsE23new_with_pods_and_usageCs3RzkXnBrBnu_8read_spz
FN:92,_RNvMNtNtCsap2RCL79A4I_14wgpu_3dgs_core6buffer8gaussianINtB2_15GaussiansBufferNtB2_37GaussianPodWithShHalfCov3dHalfConfigsE3lenCs3RzkXnBrBnu_8read_spz
FN:202,_RNvXs_NtNtCsap2RCL79A4I_14wgpu_3dgs_core6buffer8gaussianINtB4_15GaussiansBufferNtB4_37GaussianPodWithShHalfCov3dHalfConfigsENtB6_13BufferWrapper6bufferCs3RzkXnBrBnu_8read_spz
FN:263,_RNvYNtNtNtCsap2RCL79A4I_14wgpu_3dgs_core6buffer8gaussian37GaussianPodWithShHalfCov3dHalfConfigsNtB4_11GaussianPod13from_gaussianCs3RzkXnBrBnu_8read_spz
FNDA:1,_RNvXs0_NtNtCsap2RCL79A4I_14wgpu_3dgs_core6buffer8gaussianNtNtNtCsebiihMPZ3Ak_4wgpu3api6buffer6BufferINtNtCsmHtFwzCQ9E_4core7convert4FromINtB5_15GaussiansBufferNtB5_37GaussianPodWithShHalfCov3dHalfConfigsEE4fromCslQCpptksoiT_3mod
FNDA:1,_RNvXs0_NtNtCsap2RCL79A4I_14wgpu_3dgs_core6buffer8gaussianNtNtNtCsebiihMPZ3Ak_4wgpu3api6buffer6BufferINtNtCsmHtFwzCQ9E_4core7convert4FromINtB5_15GaussiansBufferNtB5_37GaussianPodWithShNoneCov3dHalfConfigsEE4fromCslQCpptksoiT_3mod
FNDA:1,_RNvXs0_NtNtCsap2RCL79A4I_14wgpu_3dgs_core6buffer8gaussianNtNtNtCsebiihMPZ3Ak_4wgpu3api6buffer6BufferINtNtCsmHtFwzCQ9E_4core7convert4FromINtB5_15GaussiansBufferNtB5_38GaussianPodWithShNorm8Cov3dHalfConfigsEE4fromCslQCpptksoiT_3mod
FNDA:1,_RNvXs0_NtNtCsap2RCL79A4I_14wgpu_3dgs_core6buffer8gaussianNtNtNtCsebiihMPZ3Ak_4wgpu3api6buffer6BufferINtNtCsmHtFwzCQ9E_4core7convert4FromINtB5_15GaussiansBufferNtB5_39GaussianPodWithShHalfCov3dSingleConfigsEE4fromCslQCpptksoiT_3mod
FNDA:1,_RNvXs0_NtNtCsap2RCL79A4I_14wgpu_3dgs_core6buffer8gaussianNtNtNtCsebiihMPZ3Ak_4wgpu3api6buffer6BufferINtNtCsmHtFwzCQ9E_4core7convert4FromINtB5_15GaussiansBufferNtB5_39GaussianPodWithShNoneCov3dSingleConfigsEE4fromCslQCpptksoiT_3mod
FNDA:1,_RNvXs0_NtNtCsap2RCL79A4I_14wgpu_3dgs_core6buffer8gaussianNtNtNtCsebiihMPZ3Ak_4wgpu3api6buffer6BufferINtNtCsmHtFwzCQ9E_4core7convert4FromINtB5_15GaussiansBufferNtB5_39GaussianPodWithShSingleCov3dHalfConfigsEE4fromCslQCpptksoiT_3mod
FNDA:1,_RNvXs0_NtNtCsap2RCL79A4I_14wgpu_3dgs_core6buffer8gaussianNtNtNtCsebiihMPZ3Ak_4wgpu3api6buffer6BufferINtNtCsmHtFwzCQ9E_4core7convert4FromINtB5_15GaussiansBufferNtB5_40GaussianPodWithShNorm8Cov3dSingleConfigsEE4fromCslQCpptksoiT_3mod
FNDA:1,_RNvXs0_NtNtCsap2RCL79A4I_14wgpu_3dgs_core6buffer8gaussianNtNtNtCsebiihMPZ3Ak_4wgpu3api6buffer6BufferINtNtCsmHtFwzCQ9E_4core7convert4FromINtB5_15GaussiansBufferNtB5_41GaussianPodWithShHalfCov3dRotScaleConfigsEE4fromCslQCpptksoiT_3mod
FNDA:1,_RNvXs0_NtNtCsap2RCL79A4I_14wgpu_3dgs_core6buffer8gaussianNtNtNtCsebiihMPZ3Ak_4wgpu3api6buffer6BufferINtNtCsmHtFwzCQ9E_4core7convert4FromINtB5_15GaussiansBufferNtB5_41GaussianPodWithShNoneCov3dRotScaleConfigsEE4fromCslQCpptksoiT_3mod
FNDA:1,_RNvXs0_NtNtCsap2RCL79A4I_14wgpu_3dgs_core6buffer8gaussianNtNtNtCsebiihMPZ3Ak_4wgpu3api6buffer6BufferINtNtCsmHtFwzCQ9E_4core7convert4FromINtB5_15GaussiansBufferNtB5_41GaussianPodWithShSingleCov3dSingleConfigsEE4fromCslQCpptksoiT_3mod
FNDA:1,_RNvXs0_NtNtCsap2RCL79A4I_14wgpu_3dgs_core6buffer8gaussianNtNtNtCsebiihMPZ3Ak_4wgpu3api6buffer6BufferINtNtCsmHtFwzCQ9E_4core7convert4FromINtB5_15GaussiansBufferNtB5_42GaussianPodWithShNorm8Cov3dRotScaleConfigsEE4fromCslQCpptksoiT_3mod
FNDA:1,_RNvXs0_NtNtCsap2RCL79A4I_14wgpu_3dgs_core6buffer8gaussianNtNtNtCsebiihMPZ3Ak_4wgpu3api6buffer6BufferINtNtCsmHtFwzCQ9E_4core7convert4FromINtB5_15GaussiansBufferNtB5_43GaussianPodWithShSingleCov3dRotScaleConfigsEE4fromCslQCpptksoiT_3mod
FNDA:7,_RINvMNtNtCsap2RCL79A4I_14wgpu_3dgs_core6buffer8gaussianINtB3_15GaussiansBufferNtB3_37GaussianPodWithShHalfCov3dHalfConfigsE14new_with_usageINtNtCsj4FhK7DZU1O_5alloc3vec3VecNtNtB7_8gaussian8GaussianEECslQCpptksoiT_3mod
FNDA:3,_RINvMNtNtCsap2RCL79A4I_14wgpu_3dgs_core6buffer8gaussianINtB3_15GaussiansBufferNtB3_37GaussianPodWithShHalfCov3dHalfConfigsE3newINtNtCsj4FhK7DZU1O_5alloc3vec3VecNtNtB7_8gaussian8GaussianEECslQCpptksoiT_3mod
FNDA:2,_RINvMNtNtCsap2RCL79A4I_14wgpu_3dgs_core6buffer8gaussianINtB3_15GaussiansBufferNtB3_37GaussianPodWithShHalfCov3dHalfConfigsE6updateINtNtCsj4FhK7DZU1O_5alloc3vec3VecNtNtB7_8gaussian8GaussianEECslQCpptksoiT_3mod
FNDA:7,_RINvMNtNtCsap2RCL79A4I_14wgpu_3dgs_core6buffer8gaussianINtB3_15GaussiansBufferNtB3_37GaussianPodWithShNoneCov3dHalfConfigsE14new_with_usageINtNtCsj4FhK7DZU1O_5alloc3vec3VecNtNtB7_8gaussian8GaussianEECslQCpptksoiT_3mod
FNDA:3,_RINvMNtNtCsap2RCL79A4I_14wgpu_3dgs_core6buffer8gaussianINtB3_15GaussiansBufferNtB3_37GaussianPodWithShNoneCov3dHalfConfigsE3newINtNtCsj4FhK7DZU1O_5alloc3vec3VecNtNtB7_8gaussian8GaussianEECslQCpptksoiT_3mod
FNDA:2,_RINvMNtNtCsap2RCL79A4I_14wgpu_3dgs_core6buffer8gaussianINtB3_15GaussiansBufferNtB3_37GaussianPodWithShNoneCov3dHalfConfigsE6updateINtNtCsj4FhK7DZU1O_5alloc3vec3VecNtNtB7_8gaussian8GaussianEECslQCpptksoiT_3mod
FNDA:7,_RINvMNtNtCsap2RCL79A4I_14wgpu_3dgs_core6buffer8gaussianINtB3_15GaussiansBufferNtB3_38GaussianPodWithShNorm8Cov3dHalfConfigsE14new_with_usageINtNtCsj4FhK7DZU1O_5alloc3vec3VecNtNtB7_8gaussian8GaussianEECslQCpptksoiT_3mod
FNDA:3,_RINvMNtNtCsap2RCL79A4I_14wgpu_3dgs_core6buffer8gaussianINtB3_15GaussiansBufferNtB3_38GaussianPodWithShNorm8Cov3dHalfConfigsE3newINtNtCsj4FhK7DZU1O_5alloc3vec3VecNtNtB7_8gaussian8GaussianEECslQCpptksoiT_3mod
FNDA:2,_RINvMNtNtCsap2RCL79A4I_14wgpu_3dgs_core6buffer8gaussianINtB3_15GaussiansBufferNtB3_38GaussianPodWithShNorm8Cov3dHalfConfigsE6updateINtNtCsj4FhK7DZU1O_5alloc3vec3VecNtNtB7_8gaussian8GaussianEECslQCpptksoiT_3mod
FNDA:8,_RINvMNtNtCsap2RCL79A4I_14wgpu_3dgs_core6buffer8gaussianINtB3_15GaussiansBufferNtB3_39GaussianPodWithShHalfCov3dSingleConfigsE14new_with_usageINtNtCsj4FhK7DZU1O_5alloc3vec3VecNtNtB7_8gaussian8GaussianEECslQCpptksoiT_3mod
FNDA:3,_RINvMNtNtCsap2RCL79A4I_14wgpu_3dgs_core6buffer8gaussianINtB3_15GaussiansBufferNtB3_39GaussianPodWithShHalfCov3dSingleConfigsE3newINtNtCsj4FhK7DZU1O_5alloc3vec3VecNtNtB7_8gaussian8GaussianEECslQCpptksoiT_3mod
FNDA:2,_RINvMNtNtCsap2RCL79A4I_14wgpu_3dgs_core6buffer8gaussianINtB3_15GaussiansBufferNtB3_39GaussianPodWithShHalfCov3dSingleConfigsE6updateINtNtCsj4FhK7DZU1O_5alloc3vec3VecNtNtB7_8gaussian8GaussianEECslQCpptksoiT_3mod
FNDA:7,_RINvMNtNtCsap2RCL79A4I_14wgpu_3dgs_core6buffer8gaussianINtB3_15GaussiansBufferNtB3_39GaussianPodWithShNoneCov3dSingleConfigsE14new_with_usageINtNtCsj4FhK7DZU1O_5alloc3vec3VecNtNtB7_8gaussian8GaussianEECslQCpptksoiT_3mod
FNDA:3,_RINvMNtNtCsap2RCL79A4I_14wgpu_3dgs_core6buffer8gaussianINtB3_15GaussiansBufferNtB3_39GaussianPodWithShNoneCov3dSingleConfigsE3newINtNtCsj4FhK7DZU1O_5alloc3vec3VecNtNtB7_8gaussian8GaussianEECslQCpptksoiT_3mod
FNDA:2,_RINvMNtNtCsap2RCL79A4I_14wgpu_3dgs_core6buffer8gaussianINtB3_15GaussiansBufferNtB3_39GaussianPodWithShNoneCov3dSingleConfigsE6updateINtNtCsj4FhK7DZU1O_5alloc3vec3VecNtNtB7_8gaussian8GaussianEECslQCpptksoiT_3mod
FNDA:8,_RINvMNtNtCsap2RCL79A4I_14wgpu_3dgs_core6buffer8gaussianINtB3_15GaussiansBufferNtB3_39GaussianPodWithShSingleCov3dHalfConfigsE14new_with_usageINtNtCsj4FhK7DZU1O_5alloc3vec3VecNtNtB7_8gaussian8GaussianEECslQCpptksoiT_3mod
FNDA:3,_RINvMNtNtCsap2RCL79A4I_14wgpu_3dgs_core6buffer8gaussianINtB3_15GaussiansBufferNtB3_39GaussianPodWithShSingleCov3dHalfConfigsE3newINtNtCsj4FhK7DZU1O_5alloc3vec3VecNtNtB7_8gaussian8GaussianEECslQCpptksoiT_3mod
FNDA:2,_RINvMNtNtCsap2RCL79A4I_14wgpu_3dgs_core6buffer8gaussianINtB3_15GaussiansBufferNtB3_39GaussianPodWithShSingleCov3dHalfConfigsE6updateINtNtCsj4FhK7DZU1O_5alloc3vec3VecNtNtB7_8gaussian8GaussianEECslQCpptksoiT_3mod
FNDA:8,_RINvMNtNtCsap2RCL79A4I_14wgpu_3dgs_core6buffer8gaussianINtB3_15GaussiansBufferNtB3_40GaussianPodWithShNorm8Cov3dSingleConfigsE14new_with_usageINtNtCsj4FhK7DZU1O_5alloc3vec3VecNtNtB7_8gaussian8GaussianEECslQCpptksoiT_3mod
FNDA:3,_RINvMNtNtCsap2RCL79A4I_14wgpu_3dgs_core6buffer8gaussianINtB3_15GaussiansBufferNtB3_40GaussianPodWithShNorm8Cov3dSingleConfigsE3newINtNtCsj4FhK7DZU1O_5alloc3vec3VecNtNtB7_8gaussian8GaussianEECslQCpptksoiT_3mod
FNDA:2,_RINvMNtNtCsap2RCL79A4I_14wgpu_3dgs_core6buffer8gaussianINtB3_15GaussiansBufferNtB3_40GaussianPodWithShNorm8Cov3dSingleConfigsE6updateINtNtCsj4FhK7DZU1O_5alloc3vec3VecNtNtB7_8gaussian8GaussianEECslQCpptksoiT_3mod
FNDA:7,_RINvMNtNtCsap2RCL79A4I_14wgpu_3dgs_core6buffer8gaussianINtB3_15GaussiansBufferNtB3_41GaussianPodWithShHalfCov3dRotScaleConfigsE14new_with_usageINtNtCsj4FhK7DZU1O_5alloc3vec3VecNtNtB7_8gaussian8GaussianEECslQCpptksoiT_3mod
FNDA:3,_RINvMNtNtCsap2RCL79A4I_14wgpu_3dgs_core6buffer8gaussianINtB3_15GaussiansBufferNtB3_41GaussianPodWithShHalfCov3dRotScaleConfigsE3newINtNtCsj4FhK7DZU1O_5alloc3vec3VecNtNtB7_8gaussian8GaussianEECslQCpptksoiT_3mod
FNDA:2,_RINvMNtNtCsap2RCL79A4I_14wgpu_3dgs_core6buffer8gaussianINtB3_15GaussiansBufferNtB3_41GaussianPodWithShHalfCov3dRotScaleConfigsE6updateINtNtCsj4FhK7DZU1O_5alloc3vec3VecNtNtB7_8gaussian8GaussianEECslQCpptksoiT_3mod
FNDA:7,_RINvMNtNtCsap2RCL79A4I_14wgpu_3dgs_core6buffer8gaussianINtB3_15GaussiansBufferNtB3_41GaussianPodWithShNoneCov3dRotScaleConfigsE14new_with_usageINtNtCsj4FhK7DZU1O_5alloc3vec3VecNtNtB7_8gaussian8GaussianEECslQCpptksoiT_3mod
FNDA:3,_RINvMNtNtCsap2RCL79A4I_14wgpu_3dgs_core6buffer8gaussianINtB3_15GaussiansBufferNtB3_41GaussianPodWithShNoneCov3dRotScaleConfigsE3newINtNtCsj4FhK7DZU1O_5alloc3vec3VecNtNtB7_8gaussian8GaussianEECslQCpptksoiT_3mod
FNDA:2,_RINvMNtNtCsap2RCL79A4I_14wgpu_3dgs_core6buffer8gaussianINtB3_15GaussiansBufferNtB3_41GaussianPodWithShNoneCov3dRotScaleConfigsE6updateINtNtCsj4FhK7DZU1O_5alloc3vec3VecNtNtB7_8gaussian8GaussianEECslQCpptksoiT_3mod
FNDA:10,_RINvMNtNtCsap2RCL79A4I_14wgpu_3dgs_core6buffer8gaussianINtB3_15GaussiansBufferNtB3_41GaussianPodWithShSingleCov3dSingleConfigsE14new_with_usageINtNtCsj4FhK7DZU1O_5alloc3vec3VecNtNtB7_8gaussian8GaussianEECslQCpptksoiT_3mod
FNDA:3,_RINvMNtNtCsap2RCL79A4I_14wgpu_3dgs_core6buffer8gaussianINtB3_15GaussiansBufferNtB3_41GaussianPodWithShSingleCov3dSingleConfigsE3newINtNtCsj4FhK7DZU1O_5alloc3vec3VecNtNtB7_8gaussian8GaussianEECslQCpptksoiT_3mod
FNDA:2,_RINvMNtNtCsap2RCL79A4I_14wgpu_3dgs_core6buffer8gaussianINtB3_15GaussiansBufferNtB3_41GaussianPodWithShSingleCov3dSingleConfigsE6updateINtNtCsj4FhK7DZU1O_5alloc3vec3VecNtNtB7_8gaussian8GaussianEECslQCpptksoiT_3mod
FNDA:7,_RINvMNtNtCsap2RCL79A4I_14wgpu_3dgs_core6buffer8gaussianINtB3_15GaussiansBufferNtB3_42GaussianPodWithShNorm8Cov3dRotScaleConfigsE14new_with_usageINtNtCsj4FhK7DZU1O_5alloc3vec3VecNtNtB7_8gaussian8GaussianEECslQCpptksoiT_3mod
FNDA:3,_RINvMNtNtCsap2RCL79A4I_14wgpu_3dgs_core6buffer8gaussianINtB3_15GaussiansBufferNtB3_42GaussianPodWithShNorm8Cov3dRotScaleConfigsE3newINtNtCsj4FhK7DZU1O_5alloc3vec3VecNtNtB7_8gaussian8GaussianEECslQCpptksoiT_3mod
FNDA:2,_RINvMNtNtCsap2RCL79A4I_14wgpu_3dgs_core6buffer8gaussianINtB3_15GaussiansBufferNtB3_42GaussianPodWithShNorm8Cov3dRotScaleConfigsE6updateINtNtCsj4FhK7DZU1O_5alloc3vec3VecNtNtB7_8gaussian8GaussianEECslQCpptksoiT_3mod
FNDA:8,_RINvMNtNtCsap2RCL79A4I_14wgpu_3dgs_core6buffer8gaussianINtB3_15GaussiansBufferNtB3_43GaussianPodWithShSingleCov3dRotScaleConfigsE14new_with_usageINtNtCsj4FhK7DZU1O_5alloc3vec3VecNtNtB7_8gaussian8GaussianEECslQCpptksoiT_3mod
FNDA:3,_RINvMNtNtCsap2RCL79A4I_14wgpu_3dgs_core6buffer8gaussianINtB3_15GaussiansBufferNtB3_43GaussianPodWithShSingleCov3dRotScaleConfigsE3newINtNtCsj4FhK7DZU1O_5alloc3vec3VecNtNtB7_8gaussian8GaussianEECslQCpptksoiT_3mod
FNDA:2,_RINvMNtNtCsap2RCL79A4I_14wgpu_3dgs_core6buffer8gaussianINtB3_15GaussiansBufferNtB3_43GaussianPodWithShSingleCov3dRotScaleConfigsE6updateINtNtCsj4FhK7DZU1O_5alloc3vec3VecNtNtB7_8gaussian8GaussianEECslQCpptksoiT_3mod
FNDA:35,_RNCINvMNtNtCsap2RCL79A4I_14wgpu_3dgs_core6buffer8gaussianINtB5_15GaussiansBufferNtB5_37GaussianPodWithShHalfCov3dHalfConfigsE14new_with_usageINtNtCsj4FhK7DZU1O_5alloc3vec3VecNtNtB9_8gaussian8GaussianEE0CslQCpptksoiT_3mod
FNDA:9,_RNCINvMNtNtCsap2RCL79A4I_14wgpu_3dgs_core6buffer8gaussianINtB5_15GaussiansBufferNtB5_37GaussianPodWithShHalfCov3dHalfConfigsE3newINtNtCsj4FhK7DZU1O_5alloc3vec3VecNtNtB9_8gaussian8GaussianEE0CslQCpptksoiT_3mod
FNDA:5,_RNCINvMNtNtCsap2RCL79A4I_14wgpu_3dgs_core6buffer8gaussianINtB5_15GaussiansBufferNtB5_37GaussianPodWithShHalfCov3dHalfConfigsE6updateINtNtCsj4FhK7DZU1O_5alloc3vec3VecNtNtB9_8gaussian8GaussianEE0CslQCpptksoiT_3mod
FNDA:35,_RNCINvMNtNtCsap2RCL79A4I_14wgpu_3dgs_core6buffer8gaussianINtB5_15GaussiansBufferNtB5_37GaussianPodWithShNoneCov3dHalfConfigsE14new_with_usageINtNtCsj4FhK7DZU1O_5alloc3vec3VecNtNtB9_8gaussian8GaussianEE0CslQCpptksoiT_3mod
FNDA:9,_RNCINvMNtNtCsap2RCL79A4I_14wgpu_3dgs_core6buffer8gaussianINtB5_15GaussiansBufferNtB5_37GaussianPodWithShNoneCov3dHalfConfigsE3newINtNtCsj4FhK7DZU1O_5alloc3vec3VecNtNtB9_8gaussian8GaussianEE0CslQCpptksoiT_3mod
FNDA:5,_RNCINvMNtNtCsap2RCL79A4I_14wgpu_3dgs_core6buffer8gaussianINtB5_15GaussiansBufferNtB5_37GaussianPodWithShNoneCov3dHalfConfigsE6updateINtNtCsj4FhK7DZU1O_5alloc3vec3VecNtNtB9_8gaussian8GaussianEE0CslQCpptksoiT_3mod
FNDA:35,_RNCINvMNtNtCsap2RCL79A4I_14wgpu_3dgs_core6buffer8gaussianINtB5_15GaussiansBufferNtB5_38GaussianPodWithShNorm8Cov3dHalfConfigsE14new_with_usageINtNtCsj4FhK7DZU1O_5alloc3vec3VecNtNtB9_8gaussian8GaussianEE0CslQCpptksoiT_3mod
FNDA:9,_RNCINvMNtNtCsap2RCL79A4I_14wgpu_3dgs_core6buffer8gaussianINtB5_15GaussiansBufferNtB5_38GaussianPodWithShNorm8Cov3dHalfConfigsE3newINtNtCsj4FhK7DZU1O_5alloc3vec3VecNtNtB9_8gaussian8GaussianEE0CslQCpptksoiT_3mod
FNDA:5,_RNCINvMNtNtCsap2RCL79A4I_14wgpu_3dgs_core6buffer8gaussianINtB5_15GaussiansBufferNtB5_38GaussianPodWithShNorm8Cov3dHalfConfigsE6updateINtNtCsj4FhK7DZU1O_5alloc3vec3VecNtNtB9_8gaussian8GaussianEE0CslQCpptksoiT_3mod
FNDA:36,_RNCINvMNtNtCsap2RCL79A4I_14wgpu_3dgs_core6buffer8gaussianINtB5_15GaussiansBufferNtB5_39GaussianPodWithShHalfCov3dSingleConfigsE14new_with_usageINtNtCsj4FhK7DZU1O_5alloc3vec3VecNtNtB9_8gaussian8GaussianEE0CslQCpptksoiT_3mod
FNDA:9,_RNCINvMNtNtCsap2RCL79A4I_14wgpu_3dgs_core6buffer8gaussianINtB5_15GaussiansBufferNtB5_39GaussianPodWithShHalfCov3dSingleConfigsE3newINtNtCsj4FhK7DZU1O_5alloc3vec3VecNtNtB9_8gaussian8GaussianEE0CslQCpptksoiT_3mod
FNDA:5,_RNCINvMNtNtCsap2RCL79A4I_14wgpu_3dgs_core6buffer8gaussianINtB5_15GaussiansBufferNtB5_39GaussianPodWithShHalfCov3dSingleConfigsE6updateINtNtCsj4FhK7DZU1O_5alloc3vec3VecNtNtB9_8gaussian8GaussianEE0CslQCpptksoiT_3mod
FNDA:35,_RNCINvMNtNtCsap2RCL79A4I_14wgpu_3dgs_core6buffer8gaussianINtB5_15GaussiansBufferNtB5_39GaussianPodWithShNoneCov3dSingleConfigsE14new_with_usageINtNtCsj4FhK7DZU1O_5alloc3vec3VecNtNtB9_8gaussian8GaussianEE0CslQCpptksoiT_3mod
FNDA:9,_RNCINvMNtNtCsap2RCL79A4I_14wgpu_3dgs_core6buffer8gaussianINtB5_15GaussiansBufferNtB5_39GaussianPodWithShNoneCov3dSingleConfigsE3newINtNtCsj4FhK7DZU1O_5alloc3vec3VecNtNtB9_8gaussian8GaussianEE0CslQCpptksoiT_3mod
FNDA:5,_RNCINvMNtNtCsap2RCL79A4I_14wgpu_3dgs_core6buffer8gaussianINtB5_15GaussiansBufferNtB5_39GaussianPodWithShNoneCov3dSingleConfigsE6updateINtNtCsj4FhK7DZU1O_5alloc3vec3VecNtNtB9_8gaussian8GaussianEE0CslQCpptksoiT_3mod
FNDA:36,_RNCINvMNtNtCsap2RCL79A4I_14wgpu_3dgs_core6buffer8gaussianINtB5_15GaussiansBufferNtB5_39GaussianPodWithShSingleCov3dHalfConfigsE14new_with_usageINtNtCsj4FhK7DZU1O_5alloc3vec3VecNtNtB9_8gaussian8GaussianEE0CslQCpptksoiT_3mod
FNDA:9,_RNCINvMNtNtCsap2RCL79A4I_14wgpu_3dgs_core6buffer8gaussianINtB5_15GaussiansBufferNtB5_39GaussianPodWithShSingleCov3dHalfConfigsE3newINtNtCsj4FhK7DZU1O_5alloc3vec3VecNtNtB9_8gaussian8GaussianEE0CslQCpptksoiT_3mod
FNDA:5,_RNCINvMNtNtCsap2RCL79A4I_14wgpu_3dgs_core6buffer8gaussianINtB5_15GaussiansBufferNtB5_39GaussianPodWithShSingleCov3dHalfConfigsE6updateINtNtCsj4FhK7DZU1O_5alloc3vec3VecNtNtB9_8gaussian8GaussianEE0CslQCpptksoiT_3mod
FNDA:36,_RNCINvMNtNtCsap2RCL79A4I_14wgpu_3dgs_core6buffer8gaussianINtB5_15GaussiansBufferNtB5_40GaussianPodWithShNorm8Cov3dSingleConfigsE14new_with_usageINtNtCsj4FhK7DZU1O_5alloc3vec3VecNtNtB9_8gaussian8GaussianEE0CslQCpptksoiT_3mod
FNDA:9,_RNCINvMNtNtCsap2RCL79A4I_14wgpu_3dgs_core6buffer8gaussianINtB5_15GaussiansBufferNtB5_40GaussianPodWithShNorm8Cov3dSingleConfigsE3newINtNtCsj4FhK7DZU1O_5alloc3vec3VecNtNtB9_8gaussian8GaussianEE0CslQCpptksoiT_3mod
FNDA:5,_RNCINvMNtNtCsap2RCL79A4I_14wgpu_3dgs_core6buffer8gaussianINtB5_15GaussiansBufferNtB5_40GaussianPodWithShNorm8Cov3dSingleConfigsE6updateINtNtCsj4FhK7DZU1O_5alloc3vec3VecNtNtB9_8gaussian8GaussianEE0CslQCpptksoiT_3mod
FNDA:35,_RNCINvMNtNtCsap2RCL79A4I_14wgpu_3dgs_core6buffer8gaussianINtB5_15GaussiansBufferNtB5_41GaussianPodWithShHalfCov3dRotScaleConfigsE14new_with_usageINtNtCsj4FhK7DZU1O_5alloc3vec3VecNtNtB9_8gaussian8GaussianEE0CslQCpptksoiT_3mod
FNDA:9,_RNCINvMNtNtCsap2RCL79A4I_14wgpu_3dgs_core6buffer8gaussianINtB5_15GaussiansBufferNtB5_41GaussianPodWithShHalfCov3dRotScaleConfigsE3newINtNtCsj4FhK7DZU1O_5alloc3vec3VecNtNtB9_8gaussian8GaussianEE0CslQCpptksoiT_3mod
FNDA:5,_RNCINvMNtNtCsap2RCL79A4I_14wgpu_3dgs_core6buffer8gaussianINtB5_15GaussiansBufferNtB5_41GaussianPodWithShHalfCov3dRotScaleConfigsE6updateINtNtCsj4FhK7DZU1O_5alloc3vec3VecNtNtB9_8gaussian8GaussianEE0CslQCpptksoiT_3mod
FNDA:35,_RNCINvMNtNtCsap2RCL79A4I_14wgpu_3dgs_core6buffer8gaussianINtB5_15GaussiansBufferNtB5_41GaussianPodWithShNoneCov3dRotScaleConfigsE14new_with_usageINtNtCsj4FhK7DZU1O_5alloc3vec3VecNtNtB9_8gaussian8GaussianEE0CslQCpptksoiT_3mod
FNDA:9,_RNCINvMNtNtCsap2RCL79A4I_14wgpu_3dgs_core6buffer8gaussianINtB5_15GaussiansBufferNtB5_41GaussianPodWithShNoneCov3dRotScaleConfigsE3newINtNtCsj4FhK7DZU1O_5alloc3vec3VecNtNtB9_8gaussian8GaussianEE0CslQCpptksoiT_3mod
FNDA:5,_RNCINvMNtNtCsap2RCL79A4I_14wgpu_3dgs_core6buffer8gaussianINtB5_15GaussiansBufferNtB5_41GaussianPodWithShNoneCov3dRotScaleConfigsE6updateINtNtCsj4FhK7DZU1O_5alloc3vec3VecNtNtB9_8gaussian8GaussianEE0CslQCpptksoiT_3mod
FNDA:38,_RNCINvMNtNtCsap2RCL79A4I_14wgpu_3dgs_core6buffer8gaussianINtB5_15GaussiansBufferNtB5_41GaussianPodWithShSingleCov3dSingleConfigsE14new_with_usageINtNtCsj4FhK7DZU1O_5alloc3vec3VecNtNtB9_8gaussian8GaussianEE0CslQCpptksoiT_3mod
FNDA:9,_RNCINvMNtNtCsap2RCL79A4I_14wgpu_3dgs_core6buffer8gaussianINtB5_15GaussiansBufferNtB5_41GaussianPodWithShSingleCov3dSingleConfigsE3newINtNtCsj4FhK7DZU1O_5alloc3vec3VecNtNtB9_8gaussian8GaussianEE0CslQCpptksoiT_3mod
FNDA:5,_RNCINvMNtNtCsap2RCL79A4I_14wgpu_3dgs_core6buffer8gaussianINtB5_15GaussiansBufferNtB5_41GaussianPodWithShSingleCov3dSingleConfigsE6updateINtNtCsj4FhK7DZU1O_5alloc3vec3VecNtNtB9_8gaussian8GaussianEE0CslQCpptksoiT_3mod
FNDA:35,_RNCINvMNtNtCsap2RCL79A4I_14wgpu_3dgs_core6buffer8gaussianINtB5_15GaussiansBufferNtB5_42GaussianPodWithShNorm8Cov3dRotScaleConfigsE14new_with_usageINtNtCsj4FhK7DZU1O_5alloc3vec3VecNtNtB9_8gaussian8GaussianEE0CslQCpptksoiT_3mod
FNDA:9,_RNCINvMNtNtCsap2RCL79A4I_14wgpu_3dgs_core6buffer8gaussianINtB5_15GaussiansBufferNtB5_42GaussianPodWithShNorm8Cov3dRotScaleConfigsE3newINtNtCsj4FhK7DZU1O_5alloc3vec3VecNtNtB9_8gaussian8GaussianEE0CslQCpptksoiT_3mod
FNDA:5,_RNCINvMNtNtCsap2RCL79A4I_14wgpu_3dgs_core6buffer8gaussianINtB5_15GaussiansBufferNtB5_42GaussianPodWithShNorm8Cov3dRotScaleConfigsE6updateINtNtCsj4FhK7DZU1O_5alloc3vec3VecNtNtB9_8gaussian8GaussianEE0CslQCpptksoiT_3mod
FNDA:36,_RNCINvMNtNtCsap2RCL79A4I_14wgpu_3dgs_core6buffer8gaussianINtB5_15GaussiansBufferNtB5_43GaussianPodWithShSingleCov3dRotScaleConfigsE14new_with_usageINtNtCsj4FhK7DZU1O_5alloc3vec3VecNtNtB9_8gaussian8GaussianEE0CslQCpptksoiT_3mod
FNDA:9,_RNCINvMNtNtCsap2RCL79A4I_14wgpu_3dgs_core6buffer8gaussianINtB5_15GaussiansBufferNtB5_43GaussianPodWithShSingleCov3dRotScaleConfigsE3newINtNtCsj4FhK7DZU1O_5alloc3vec3VecNtNtB9_8gaussian8GaussianEE0CslQCpptksoiT_3mod
FNDA:5,_RNCINvMNtNtCsap2RCL79A4I_14wgpu_3dgs_core6buffer8gaussianINtB5_15GaussiansBufferNtB5_43GaussianPodWithShSingleCov3dRotScaleConfigsE6updateINtNtCsj4FhK7DZU1O_5alloc3vec3VecNtNtB9_8gaussian8GaussianEE0CslQCpptksoiT_3mod
FNDA:1,_RNCNCNvMNtNtCsap2RCL79A4I_14wgpu_3dgs_core6buffer8gaussianINtB6_15GaussiansBufferNtB6_37GaussianPodWithShHalfCov3dHalfConfigsE18download_gaussians00CslQCpptksoiT_3mod
FNDA:1,_RNCNCNvMNtNtCsap2RCL79A4I_14wgpu_3dgs_core6buffer8gaussianINtB6_15GaussiansBufferNtB6_37GaussianPodWithShNoneCov3dHalfConfigsE18download_gaussians00CslQCpptksoiT_3mod
FNDA:1,_RNCNCNvMNtNtCsap2RCL79A4I_14wgpu_3dgs_core6buffer8gaussianINtB6_15GaussiansBufferNtB6_38GaussianPodWithShNorm8Cov3dHalfConfigsE18download_gaussians00CslQCpptksoiT_3mod
FNDA:1,_RNCNCNvMNtNtCsap2RCL79A4I_14wgpu_3dgs_core6buffer8gaussianINtB6_15GaussiansBufferNtB6_39GaussianPodWithShHalfCov3dSingleConfigsE18download_gaussians00CslQCpptksoiT_3mod
FNDA:1,_RNCNCNvMNtNtCsap2RCL79A4I_14wgpu_3dgs_core6buffer8gaussianINtB6_15GaussiansBufferNtB6_39GaussianPodWithShNoneCov3dSingleConfigsE18download_gaussians00CslQCpptksoiT_3mod
FNDA:1,_RNCNCNvMNtNtCsap2RCL79A4I_14wgpu_3dgs_core6buffer8gaussianINtB6_15GaussiansBufferNtB6_39GaussianPodWithShSingleCov3dHalfConfigsE18download_gaussians00CslQCpptksoiT_3mod
FNDA:1,_RNCNCNvMNtNtCsap2RCL79A4I_14wgpu_3dgs_core6buffer8gaussianINtB6_15GaussiansBufferNtB6_40GaussianPodWithShNorm8Cov3dSingleConfigsE18download_gaussians00CslQCpptksoiT_3mod
FNDA:1,_RNCNCNvMNtNtCsap2RCL79A4I_14wgpu_3dgs_core6buffer8gaussianINtB6_15GaussiansBufferNtB6_41GaussianPodWithShHalfCov3dRotScaleConfigsE18download_gaussians00CslQCpptksoiT_3mod
FNDA:1,_RNCNCNvMNtNtCsap2RCL79A4I_14wgpu_3dgs_core6buffer8gaussianINtB6_15GaussiansBufferNtB6_41GaussianPodWithShNoneCov3dRotScaleConfigsE18download_gaussians00CslQCpptksoiT_3mod
FNDA:1,_RNCNCNvMNtNtCsap2RCL79A4I_14wgpu_3dgs_core6buffer8gaussianINtB6_15GaussiansBufferNtB6_41GaussianPodWithShSingleCov3dSingleConfigsE18download_gaussians00CslQCpptksoiT_3mod
FNDA:1,_RNCNCNvMNtNtCsap2RCL79A4I_14wgpu_3dgs_core6buffer8gaussianINtB6_15GaussiansBufferNtB6_42GaussianPodWithShNorm8Cov3dRotScaleConfigsE18download_gaussians00CslQCpptksoiT_3mod
FNDA:1,_RNCNCNvMNtNtCsap2RCL79A4I_14wgpu_3dgs_core6buffer8gaussianINtB6_15GaussiansBufferNtB6_43GaussianPodWithShSingleCov3dRotScaleConfigsE18download_gaussians00CslQCpptksoiT_3mod
FNDA:1,_RNCNvMNtNtCsap2RCL79A4I_14wgpu_3dgs_core6buffer8gaussianINtB4_15GaussiansBufferNtB4_37GaussianPodWithShHalfCov3dHalfConfigsE18download_gaussians0CslQCpptksoiT_3mod
FNDA:1,_RNCNvMNtNtCsap2RCL79A4I_14wgpu_3dgs_core6buffer8gaussianINtB4_15GaussiansBufferNtB4_37GaussianPodWithShNoneCov3dHalfConfigsE18download_gaussians0CslQCpptksoiT_3mod
FNDA:1,_RNCNvMNtNtCsap2RCL79A4I_14wgpu_3dgs_core6buffer8gaussianINtB4_15GaussiansBufferNtB4_38GaussianPodWithShNorm8Cov3dHalfConfigsE18download_gaussians0CslQCpptksoiT_3mod
FNDA:1,_RNCNvMNtNtCsap2RCL79A4I_14wgpu_3dgs_core6buffer8gaussianINtB4_15GaussiansBufferNtB4_39GaussianPodWithShHalfCov3dSingleConfigsE18download_gaussians0CslQCpptksoiT_3mod
FNDA:1,_RNCNvMNtNtCsap2RCL79A4I_14wgpu_3dgs_core6buffer8gaussianINtB4_15GaussiansBufferNtB4_39GaussianPodWithShNoneCov3dSingleConfigsE18download_gaussians0CslQCpptksoiT_3mod
FNDA:1,_RNCNvMNtNtCsap2RCL79A4I_14wgpu_3dgs_core6buffer8gaussianINtB4_15GaussiansBufferNtB4_39GaussianPodWithShSingleCov3dHalfConfigsE18download_gaussians0CslQCpptksoiT_3mod
FNDA:1,_RNCNvMNtNtCsap2RCL79A4I_14wgpu_3dgs_core6buffer8gaussianINtB4_15GaussiansBufferNtB4_40GaussianPodWithShNorm8Cov3dSingleConfigsE18download_gaussians0CslQCpptksoiT_3mod
FNDA:1,_RNCNvMNtNtCsap2RCL79A4I_14wgpu_3dgs_core6buffer8gaussianINtB4_15GaussiansBufferNtB4_41GaussianPodWithShHalfCov3dRotScaleConfigsE18download_gaussians0CslQCpptksoiT_3mod
FNDA:1,_RNCNvMNtNtCsap2RCL79A4I_14wgpu_3dgs_core6buffer8gaussianINtB4_15GaussiansBufferNtB4_41GaussianPodWithShNoneCov3dRotScaleConfigsE18download_gaussians0CslQCpptksoiT_3mod
FNDA:1,_RNCNvMNtNtCsap2RCL79A4I_14wgpu_3dgs_core6buffer8gaussianINtB4_15GaussiansBufferNtB4_41GaussianPodWithShSingleCov3dSingleConfigsE18download_gaussians0CslQCpptksoiT_3mod
FNDA:1,_RNCNvMNtNtCsap2RCL79A4I_14wgpu_3dgs_core6buffer8gaussianINtB4_15GaussiansBufferNtB4_42GaussianPodWithShNorm8Cov3dRotScaleConfigsE18download_gaussians0CslQCpptksoiT_3mod
FNDA:1,_RNCNvMNtNtCsap2RCL79A4I_14wgpu_3dgs_core6buffer8gaussianINtB4_15GaussiansBufferNtB4_43GaussianPodWithShSingleCov3dRotScaleConfigsE18download_gaussians0CslQCpptksoiT_3mod
FNDA:7,_RNCNvYNtNtNtCsap2RCL79A4I_14wgpu_3dgs_core6buffer8gaussian39GaussianPodWithShHalfCov3dSingleConfigsNtB6_11GaussianPod13wesl_features0CslQCpptksoiT_3mod
FNDA:7,_RNCNvYNtNtNtCsap2RCL79A4I_14wgpu_3dgs_core6buffer8gaussian39GaussianPodWithShHalfCov3dSingleConfigsNtB6_11GaussianPod8features0CslQCpptksoiT_3mod
FNDA:7,_RNCNvYNtNtNtCsap2RCL79A4I_14wgpu_3dgs_core6buffer8gaussian39GaussianPodWithShSingleCov3dHalfConfigsNtB6_11GaussianPod13wesl_features0CslQCpptksoiT_3mod
FNDA:7,_RNCNvYNtNtNtCsap2RCL79A4I_14wgpu_3dgs_core6buffer8gaussian39GaussianPodWithShSingleCov3dHalfConfigsNtB6_11GaussianPod8features0CslQCpptksoiT_3mod
FNDA:7,_RNCNvYNtNtNtCsap2RCL79A4I_14wgpu_3dgs_core6buffer8gaussian40GaussianPodWithShNorm8Cov3dSingleConfigsNtB6_11GaussianPod13wesl_features0CslQCpptksoiT_3mod
FNDA:7,_RNCNvYNtNtNtCsap2RCL79A4I_14wgpu_3dgs_core6buffer8gaussian40GaussianPodWithShNorm8Cov3dSingleConfigsNtB6_11GaussianPod8features0CslQCpptksoiT_3mod
FNDA:21,_RNCNvYNtNtNtCsap2RCL79A4I_14wgpu_3dgs_core6buffer8gaussian41GaussianPodWithShSingleCov3dSingleConfigsNtB6_11GaussianPod13wesl_features0CslQCpptksoiT_3mod
FNDA:21,_RNCNvYNtNtNtCsap2RCL79A4I_14wgpu_3dgs_core6buffer8gaussian41GaussianPodWithShSingleCov3dSingleConfigsNtB6_11GaussianPod8features0CslQCpptksoiT_3mod
FNDA:7,_RNCNvYNtNtNtCsap2RCL79A4I_14wgpu_3dgs_core6buffer8gaussian43GaussianPodWithShSingleCov3dRotScaleConfigsNtB6_11GaussianPod13wesl_features0CslQCpptksoiT_3mod
FNDA:7,_RNCNvYNtNtNtCsap2RCL79A4I_14wgpu_3dgs_core6buffer8gaussian43GaussianPodWithShSingleCov3dRotScaleConfigsNtB6_11GaussianPod8features0CslQCpptksoiT_3mod
FNDA:2,_RNvMNtNtCsap2RCL79A4I_14wgpu_3dgs_core6buffer8gaussianINtB2_15GaussiansBufferNtB2_37GaussianPodWithShHalfCov3dHalfConfigsE12update_rangeCslQCpptksoiT_3mod
FNDA:4,_RNvMNtNtCsap2RCL79A4I_14wgpu_3dgs_core6buffer8gaussianINtB2_15GaussiansBufferNtB2_37GaussianPodWithShHalfCov3dHalfConfigsE13new_with_podsCslQCpptksoiT_3mod
FNDA:2,_RNvMNtNtCsap2RCL79A4I_14wgpu_3dgs_core6buffer8gaussianINtB2_15GaussiansBufferNtB2_37GaussianPodWithShHalfCov3dHalfConfigsE15update_with_podCslQCpptksoiT_3mod
FNDA:1,_RNvMNtNtCsap2RCL79A4I_14wgpu_3dgs_core6buffer8gaussianINtB2_15GaussiansBufferNtB2_37GaussianPodWithShHalfCov3dHalfConfigsE18download_gaussiansCslQCpptksoiT_3mod
FNDA:3,_RNvMNtNtCsap2RCL79A4I_14wgpu_3dgs_core6buffer8gaussianINtB2_15GaussiansBufferNtB2_37GaussianPodWithShHalfCov3dHalfConfigsE20new_empty_with_usageCslQCpptksoiT_3mod
FNDA:2,_RNvMNtNtCsap2RCL79A4I_14wgpu_3dgs_core6buffer8gaussianINtB2_15GaussiansBufferNtB2_37GaussianPodWithShHalfCov3dHalfConfigsE21update_range_with_podCslQCpptksoiT_3mod
FNDA:12,_RNvMNtNtCsap2RCL79A4I_14wgpu_3dgs_core6buffer8gaussianINtB2_15GaussiansBufferNtB2_37GaussianPodWithShHalfCov3dHalfConfigsE23new_with_pods_and_usageCslQCpptksoiT_3mod
FNDA:9,_RNvMNtNtCsap2RCL79A4I_14wgpu_3dgs_core6buffer8gaussianINtB2_15GaussiansBufferNtB2_37GaussianPodWithShHalfCov3dHalfConfigsE3lenCslQCpptksoiT_3mod
FNDA:2,_RNvMNtNtCsap2RCL79A4I_14wgpu_3dgs_core6buffer8gaussianINtB2_15GaussiansBufferNtB2_37GaussianPodWithShHalfCov3dHalfConfigsE8is_emptyCslQCpptksoiT_3mod
FNDA:2,_RNvMNtNtCsap2RCL79A4I_14wgpu_3dgs_core6buffer8gaussianINtB2_15GaussiansBufferNtB2_37GaussianPodWithShHalfCov3dHalfConfigsE9new_emptyCslQCpptksoiT_3mod
FNDA:2,_RNvMNtNtCsap2RCL79A4I_14wgpu_3dgs_core6buffer8gaussianINtB2_15GaussiansBufferNtB2_37GaussianPodWithShNoneCov3dHalfConfigsE12update_rangeCslQCpptksoiT_3mod
FNDA:4,_RNvMNtNtCsap2RCL79A4I_14wgpu_3dgs_core6buffer8gaussianINtB2_15GaussiansBufferNtB2_37GaussianPodWithShNoneCov3dHalfConfigsE13new_with_podsCslQCpptksoiT_3mod
FNDA:2,_RNvMNtNtCsap2RCL79A4I_14wgpu_3dgs_core6buffer8gaussianINtB2_15GaussiansBufferNtB2_37GaussianPodWithShNoneCov3dHalfConfigsE15update_with_podCslQCpptksoiT_3mod
FNDA:1,_RNvMNtNtCsap2RCL79A4I_14wgpu_3dgs_core6buffer8gaussianINtB2_15GaussiansBufferNtB2_37GaussianPodWithShNoneCov3dHalfConfigsE18download_gaussiansCslQCpptksoiT_3mod
FNDA:3,_RNvMNtNtCsap2RCL79A4I_14wgpu_3dgs_core6buffer8gaussianINtB2_15GaussiansBufferNtB2_37GaussianPodWithShNoneCov3dHalfConfigsE20new_empty_with_usageCslQCpptksoiT_3mod
FNDA:2,_RNvMNtNtCsap2RCL79A4I_14wgpu_3dgs_core6buffer8gaussianINtB2_15GaussiansBufferNtB2_37GaussianPodWithShNoneCov3dHalfConfigsE21update_range_with_podCslQCpptksoiT_3mod
FNDA:12,_RNvMNtNtCsap2RCL79A4I_14wgpu_3dgs_core6buffer8gaussianINtB2_15GaussiansBufferNtB2_37GaussianPodWithShNoneCov3dHalfConfigsE23new_with_pods_and_usageCslQCpptksoiT_3mod
FNDA:9,_RNvMNtNtCsap2RCL79A4I_14wgpu_3dgs_core6buffer8gaussianINtB2_15GaussiansBufferNtB2_37GaussianPodWithShNoneCov3dHalfConfigsE3lenCslQCpptksoiT_3mod
FNDA:2,_RNvMNtNtCsap2RCL79A4I_14wgpu_3dgs_core6buffer8gaussianINtB2_15GaussiansBufferNtB2_37GaussianPodWithShNoneCov3dHalfConfigsE8is_emptyCslQCpptksoiT_3mod
FNDA:2,_RNvMNtNtCsap2RCL79A4I_14wgpu_3dgs_core6buffer8gaussianINtB2_15GaussiansBufferNtB2_37GaussianPodWithShNoneCov3dHalfConfigsE9new_emptyCslQCpptksoiT_3mod
FNDA:2,_RNvMNtNtCsap2RCL79A4I_14wgpu_3dgs_core6buffer8gaussianINtB2_15GaussiansBufferNtB2_38GaussianPodWithShNorm8Cov3dHalfConfigsE12update_rangeCslQCpptksoiT_3mod
FNDA:4,_RNvMNtNtCsap2RCL79A4I_14wgpu_3dgs_core6buffer8gaussianINtB2_15GaussiansBufferNtB2_38GaussianPodWithShNorm8Cov3dHalfConfigsE13new_with_podsCslQCpptksoiT_3mod
FNDA:2,_RNvMNtNtCsap2RCL79A4I_14wgpu_3dgs_core6buffer8gaussianINtB2_15GaussiansBufferNtB2_38GaussianPodWithShNorm8Cov3dHalfConfigsE15update_with_podCslQCpptksoiT_3mod
FNDA:1,_RNvMNtNtCsap2RCL79A4I_14wgpu_3dgs_core6buffer8gaussianINtB2_15GaussiansBufferNtB2_38GaussianPodWithShNorm8Cov3dHalfConfigsE18download_gaussiansCslQCpptksoiT_3mod
FNDA:3,_RNvMNtNtCsap2RCL79A4I_14wgpu_3dgs_core6buffer8gaussianINtB2_15GaussiansBufferNtB2_38GaussianPodWithShNorm8Cov3dHalfConfigsE20new_empty_with_usageCslQCpptksoiT_3mod
FNDA:2,_RNvMNtNtCsap2RCL79A4I_14wgpu_3dgs_core6buffer8gaussianINtB2_15GaussiansBufferNtB2_38GaussianPodWithShNorm8Cov3dHalfConfigsE21update_range_with_podCslQCpptksoiT_3mod
FNDA:12,_RNvMNtNtCsap2RCL79A4I_14wgpu_3dgs_core6buffer8gaussianINtB2_15GaussiansBufferNtB2_38GaussianPodWithShNorm8Cov3dHalfConfigsE23new_with_pods_and_usageCslQCpptksoiT_3mod
FNDA:9,_RNvMNtNtCsap2RCL79A4I_14wgpu_3dgs_core6buffer8gaussianINtB2_15GaussiansBufferNtB2_38GaussianPodWithShNorm8Cov3dHalfConfigsE3lenCslQCpptksoiT_3mod
FNDA:2,_RNvMNtNtCsap2RCL79A4I_14wgpu_3dgs_core6buffer8gaussianINtB2_15GaussiansBufferNtB2_38GaussianPodWithShNorm8Cov3dHalfConfigsE8is_emptyCslQCpptksoiT_3mod
FNDA:2,_RNvMNtNtCsap2RCL79A4I_14wgpu_3dgs_core6buffer8gaussianINtB2_15GaussiansBufferNtB2_38GaussianPodWithShNorm8Cov3dHalfConfigsE9new_emptyCslQCpptksoiT_3mod
FNDA:2,_RNvMNtNtCsap2RCL79A4I_14wgpu_3dgs_core6buffer8gaussianINtB2_15GaussiansBufferNtB2_39GaussianPodWithShHalfCov3dSingleConfigsE12update_rangeCslQCpptksoiT_3mod
FNDA:4,_RNvMNtNtCsap2RCL79A4I_14wgpu_3dgs_core6buffer8gaussianINtB2_15GaussiansBufferNtB2_39GaussianPodWithShHalfCov3dSingleConfigsE13new_with_podsCslQCpptksoiT_3mod
FNDA:2,_RNvMNtNtCsap2RCL79A4I_14wgpu_3dgs_core6buffer8gaussianINtB2_15GaussiansBufferNtB2_39GaussianPodWithShHalfCov3dSingleConfigsE15update_with_podCslQCpptksoiT_3mod
FNDA:1,_RNvMNtNtCsap2RCL79A4I_14wgpu_3dgs_core6buffer8gaussianINtB2_15GaussiansBufferNtB2_39GaussianPodWithShHalfCov3dSingleConfigsE18download_gaussiansCslQCpptksoiT_3mod
FNDA:3,_RNvMNtNtCsap2RCL79A4I_14wgpu_3dgs_core6buffer8gaussianINtB2_15GaussiansBufferNtB2_39GaussianPodWithShHalfCov3dSingleConfigsE20new_empty_with_usageCslQCpptksoiT_3mod
FNDA:2,_RNvMNtNtCsap2RCL79A4I_14wgpu_3dgs_core6buffer8gaussianINtB2_15GaussiansBufferNtB2_39GaussianPodWithShHalfCov3dSingleConfigsE21update_range_with_podCslQCpptksoiT_3mod
FNDA:13,_RNvMNtNtCsap2RCL79A4I_14wgpu_3dgs_core6buffer8gaussianINtB2_15GaussiansBufferNtB2_39GaussianPodWithShHalfCov3dSingleConfigsE23new_with_pods_and_usageCslQCpptksoiT_3mod
FNDA:9,_RNvMNtNtCsap2RCL79A4I_14wgpu_3dgs_core6buffer8gaussianINtB2_15GaussiansBufferNtB2_39GaussianPodWithShHalfCov3dSingleConfigsE3lenCslQCpptksoiT_3mod
FNDA:2,_RNvMNtNtCsap2RCL79A4I_14wgpu_3dgs_core6buffer8gaussianINtB2_15GaussiansBufferNtB2_39GaussianPodWithShHalfCov3dSingleConfigsE8is_emptyCslQCpptksoiT_3mod
FNDA:2,_RNvMNtNtCsap2RCL79A4I_14wgpu_3dgs_core6buffer8gaussianINtB2_15GaussiansBufferNtB2_39GaussianPodWithShHalfCov3dSingleConfigsE9new_emptyCslQCpptksoiT_3mod
FNDA:2,_RNvMNtNtCsap2RCL79A4I_14wgpu_3dgs_core6buffer8gaussianINtB2_15GaussiansBufferNtB2_39GaussianPodWithShNoneCov3dSingleConfigsE12update_rangeCslQCpptksoiT_3mod
FNDA:4,_RNvMNtNtCsap2RCL79A4I_14wgpu_3dgs_core6buffer8gaussianINtB2_15GaussiansBufferNtB2_39GaussianPodWithShNoneCov3dSingleConfigsE13new_with_podsCslQCpptksoiT_3mod
FNDA:2,_RNvMNtNtCsap2RCL79A4I_14wgpu_3dgs_core6buffer8gaussianINtB2_15GaussiansBufferNtB2_39GaussianPodWithShNoneCov3dSingleConfigsE15update_with_podCslQCpptksoiT_3mod
FNDA:1,_RNvMNtNtCsap2RCL79A4I_14wgpu_3dgs_core6buffer8gaussianINtB2_15GaussiansBufferNtB2_39GaussianPodWithShNoneCov3dSingleConfigsE18download_gaussiansCslQCpptksoiT_3mod
FNDA:3,_RNvMNtNtCsap2RCL79A4I_14wgpu_3dgs_core6buffer8gaussianINtB2_15GaussiansBufferNtB2_39GaussianPodWithShNoneCov3dSingleConfigsE20new_empty_with_usageCslQCpptksoiT_3mod
FNDA:2,_RNvMNtNtCsap2RCL79A4I_14wgpu_3dgs_core6buffer8gaussianINtB2_15GaussiansBufferNtB2_39GaussianPodWithShNoneCov3dSingleConfigsE21update_range_with_podCslQCpptksoiT_3mod
FNDA:12,_RNvMNtNtCsap2RCL79A4I_14wgpu_3dgs_core6buffer8gaussianINtB2_15GaussiansBufferNtB2_39GaussianPodWithShNoneCov3dSingleConfigsE23new_with_pods_and_usageCslQCpptksoiT_3mod
FNDA:9,_RNvMNtNtCsap2RCL79A4I_14wgpu_3dgs_core6buffer8gaussianINtB2_15GaussiansBufferNtB2_39GaussianPodWithShNoneCov3dSingleConfigsE3lenCslQCpptksoiT_3mod
FNDA:2,_RNvMNtNtCsap2RCL79A4I_14wgpu_3dgs_core6buffer8gaussianINtB2_15GaussiansBufferNtB2_39GaussianPodWithShNoneCov3dSingleConfigsE8is_emptyCslQCpptksoiT_3mod
FNDA:2,_RNvMNtNtCsap2RCL79A4I_14wgpu_3dgs_core6buffer8gaussianINtB2_15GaussiansBufferNtB2_39GaussianPodWithShNoneCov3dSingleConfigsE9new_emptyCslQCpptksoiT_3mod
FNDA:2,_RNvMNtNtCsap2RCL79A4I_14wgpu_3dgs_core6buffer8gaussianINtB2_15GaussiansBufferNtB2_39GaussianPodWithShSingleCov3dHalfConfigsE12update_rangeCslQCpptksoiT_3mod
FNDA:4,_RNvMNtNtCsap2RCL79A4I_14wgpu_3dgs_core6buffer8gaussianINtB2_15GaussiansBufferNtB2_39GaussianPodWithShSingleCov3dHalfConfigsE13new_with_podsCslQCpptksoiT_3mod
FNDA:2,_RNvMNtNtCsap2RCL79A4I_14wgpu_3dgs_core6buffer8gaussianINtB2_15GaussiansBufferNtB2_39GaussianPodWithShSingleCov3dHalfConfigsE15update_with_podCslQCpptksoiT_3mod
FNDA:1,_RNvMNtNtCsap2RCL79A4I_14wgpu_3dgs_core6buffer8gaussianINtB2_15GaussiansBufferNtB2_39GaussianPodWithShSingleCov3dHalfConfigsE18download_gaussiansCslQCpptksoiT_3mod
FNDA:3,_RNvMNtNtCsap2RCL79A4I_14wgpu_3dgs_core6buffer8gaussianINtB2_15GaussiansBufferNtB2_39GaussianPodWithShSingleCov3dHalfConfigsE20new_empty_with_usageCslQCpptksoiT_3mod
FNDA:2,_RNvMNtNtCsap2RCL79A4I_14wgpu_3dgs_core6buffer8gaussianINtB2_15GaussiansBufferNtB2_39GaussianPodWithShSingleCov3dHalfConfigsE21update_range_with_podCslQCpptksoiT_3mod
FNDA:13,_RNvMNtNtCsap2RCL79A4I_14wgpu_3dgs_core6buffer8gaussianINtB2_15GaussiansBufferNtB2_39GaussianPodWithShSingleCov3dHalfConfigsE23new_with_pods_and_usageCslQCpptksoiT_3mod
FNDA:9,_RNvMNtNtCsap2RCL79A4I_14wgpu_3dgs_core6buffer8gaussianINtB2_15GaussiansBufferNtB2_39GaussianPodWithShSingleCov3dHalfConfigsE3lenCslQCpptksoiT_3mod
FNDA:2,_RNvMNtNtCsap2RCL79A4I_14wgpu_3dgs_core6buffer8gaussianINtB2_15GaussiansBufferNtB2_39GaussianPodWithShSingleCov3dHalfConfigsE8is_emptyCslQCpptksoiT_3mod
FNDA:2,_RNvMNtNtCsap2RCL79A4I_14wgpu_3dgs_core6buffer8gaussianINtB2_15GaussiansBufferNtB2_39GaussianPodWithShSingleCov3dHalfConfigsE9new_emptyCslQCpptksoiT_3mod
FNDA:2,_RNvMNtNtCsap2RCL79A4I_14wgpu_3dgs_core6buffer8gaussianINtB2_15GaussiansBufferNtB2_40GaussianPodWithShNorm8Cov3dSingleConfigsE12update_rangeCslQCpptksoiT_3mod
FNDA:4,_RNvMNtNtCsap2RCL79A4I_14wgpu_3dgs_core6buffer8gaussianINtB2_15GaussiansBufferNtB2_40GaussianPodWithShNorm8Cov3dSingleConfigsE13new_with_podsCslQCpptksoiT_3mod
FNDA:2,_RNvMNtNtCsap2RCL79A4I_14wgpu_3dgs_core6buffer8gaussianINtB2_15GaussiansBufferNtB2_40GaussianPodWithShNorm8Cov3dSingleConfigsE15update_with_podCslQCpptksoiT_3mod
FNDA:1,_RNvMNtNtCsap2RCL79A4I_14wgpu_3dgs_core6buffer8gaussianINtB2_15GaussiansBufferNtB2_40GaussianPodWithShNorm8Cov3dSingleConfigsE18download_gaussiansCslQCpptksoiT_3mod
FNDA:3,_RNvMNtNtCsap2RCL79A4I_14wgpu_3dgs_core6buffer8gaussianINtB2_15GaussiansBufferNtB2_40GaussianPodWithShNorm8Cov3dSingleConfigsE20new_empty_with_usageCslQCpptksoiT_3mod
FNDA:2,_RNvMNtNtCsap2RCL79A4I_14wgpu_3dgs_core6buffer8gaussianINtB2_15GaussiansBufferNtB2_40GaussianPodWithShNorm8Cov3dSingleConfigsE21update_range_with_podCslQCpptksoiT_3mod
FNDA:13,_RNvMNtNtCsap2RCL79A4I_14wgpu_3dgs_core6buffer8gaussianINtB2_15GaussiansBufferNtB2_40GaussianPodWithShNorm8Cov3dSingleConfigsE23new_with_pods_and_usageCslQCpptksoiT_3mod
FNDA:9,_RNvMNtNtCsap2RCL79A4I_14wgpu_3dgs_core6buffer8gaussianINtB2_15GaussiansBufferNtB2_40GaussianPodWithShNorm8Cov3dSingleConfigsE3lenCslQCpptksoiT_3mod
FNDA:2,_RNvMNtNtCsap2RCL79A4I_14wgpu_3dgs_core6buffer8gaussianINtB2_15GaussiansBufferNtB2_40GaussianPodWithShNorm8Cov3dSingleConfigsE8is_emptyCslQCpptksoiT_3mod
FNDA:2,_RNvMNtNtCsap2RCL79A4I_14wgpu_3dgs_core6buffer8gaussianINtB2_15GaussiansBufferNtB2_40GaussianPodWithShNorm8Cov3dSingleConfigsE9new_emptyCslQCpptksoiT_3mod
FNDA:2,_RNvMNtNtCsap2RCL79A4I_14wgpu_3dgs_core6buffer8gaussianINtB2_15GaussiansBufferNtB2_41GaussianPodWithShHalfCov3dRotScaleConfigsE12update_rangeCslQCpptksoiT_3mod
FNDA:4,_RNvMNtNtCsap2RCL79A4I_14wgpu_3dgs_core6buffer8gaussianINtB2_15GaussiansBufferNtB2_41GaussianPodWithShHalfCov3dRotScaleConfigsE13new_with_podsCslQCpptksoiT_3mod
FNDA:2,_RNvMNtNtCsap2RCL79A4I_14wgpu_3dgs_core6buffer8gaussianINtB2_15GaussiansBufferNtB2_41GaussianPodWithShHalfCov3dRotScaleConfigsE15update_with_podCslQCpptksoiT_3mod
FNDA:1,_RNvMNtNtCsap2RCL79A4I_14wgpu_3dgs_core6buffer8gaussianINtB2_15GaussiansBufferNtB2_41GaussianPodWithShHalfCov3dRotScaleConfigsE18download_gaussiansCslQCpptksoiT_3mod
FNDA:3,_RNvMNtNtCsap2RCL79A4I_14wgpu_3dgs_core6buffer8gaussianINtB2_15GaussiansBufferNtB2_41GaussianPodWithShHalfCov3dRotScaleConfigsE20new_empty_with_usageCslQCpptksoiT_3mod
FNDA:2,_RNvMNtNtCsap2RCL79A4I_14wgpu_3dgs_core6buffer8gaussianINtB2_15GaussiansBufferNtB2_41GaussianPodWithShHalfCov3dRotScaleConfigsE21update_range_with_podCslQCpptksoiT_3mod
FNDA:12,_RNvMNtNtCsap2RCL79A4I_14wgpu_3dgs_core6buffer8gaussianINtB2_15GaussiansBufferNtB2_41GaussianPodWithShHalfCov3dRotScaleConfigsE23new_with_pods_and_usageCslQCpptksoiT_3mod
FNDA:9,_RNvMNtNtCsap2RCL79A4I_14wgpu_3dgs_core6buffer8gaussianINtB2_15GaussiansBufferNtB2_41GaussianPodWithShHalfCov3dRotScaleConfigsE3lenCslQCpptksoiT_3mod
FNDA:2,_RNvMNtNtCsap2RCL79A4I_14wgpu_3dgs_core6buffer8gaussianINtB2_15GaussiansBufferNtB2_41GaussianPodWithShHalfCov3dRotScaleConfigsE8is_emptyCslQCpptksoiT_3mod
FNDA:2,_RNvMNtNtCsap2RCL79A4I_14wgpu_3dgs_core6buffer8gaussianINtB2_15GaussiansBufferNtB2_41GaussianPodWithShHalfCov3dRotScaleConfigsE9new_emptyCslQCpptksoiT_3mod
FNDA:2,_RNvMNtNtCsap2RCL79A4I_14wgpu_3dgs_core6buffer8gaussianINtB2_15GaussiansBufferNtB2_41GaussianPodWithShNoneCov3dRotScaleConfigsE12update_rangeCslQCpptksoiT_3mod
FNDA:4,_RNvMNtNtCsap2RCL79A4I_14wgpu_3dgs_core6buffer8gaussianINtB2_15GaussiansBufferNtB2_41GaussianPodWithShNoneCov3dRotScaleConfigsE13new_with_podsCslQCpptksoiT_3mod
FNDA:2,_RNvMNtNtCsap2RCL79A4I_14wgpu_3dgs_core6buffer8gaussianINtB2_15GaussiansBufferNtB2_41GaussianPodWithShNoneCov3dRotScaleConfigsE15update_with_podCslQCpptksoiT_3mod
FNDA:1,_RNvMNtNtCsap2RCL79A4I_14wgpu_3dgs_core6buffer8gaussianINtB2_15GaussiansBufferNtB2_41GaussianPodWithShNoneCov3dRotScaleConfigsE18download_gaussiansCslQCpptksoiT_3mod
FNDA:3,_RNvMNtNtCsap2RCL79A4I_14wgpu_3dgs_core6buffer8gaussianINtB2_15GaussiansBufferNtB2_41GaussianPodWithShNoneCov3dRotScaleConfigsE20new_empty_with_usageCslQCpptksoiT_3mod
FNDA:2,_RNvMNtNtCsap2RCL79A4I_14wgpu_3dgs_core6buffer8gaussianINtB2_15GaussiansBufferNtB2_41GaussianPodWithShNoneCov3dRotScaleConfigsE21update_range_with_podCslQCpptksoiT_3mod
FNDA:12,_RNvMNtNtCsap2RCL79A4I_14wgpu_3dgs_core6buffer8gaussianINtB2_15GaussiansBufferNtB2_41GaussianPodWithShNoneCov3dRotScaleConfigsE23new_with_pods_and_usageCslQCpptksoiT_3mod
FNDA:9,_RNvMNtNtCsap2RCL79A4I_14wgpu_3dgs_core6buffer8gaussianINtB2_15GaussiansBufferNtB2_41GaussianPodWithShNoneCov3dRotScaleConfigsE3lenCslQCpptksoiT_3mod
FNDA:2,_RNvMNtNtCsap2RCL79A4I_14wgpu_3dgs_core6buffer8gaussianINtB2_15GaussiansBufferNtB2_41GaussianPodWithShNoneCov3dRotScaleConfigsE8is_emptyCslQCpptksoiT_3mod
FNDA:2,_RNvMNtNtCsap2RCL79A4I_14wgpu_3dgs_core6buffer8gaussianINtB2_15GaussiansBufferNtB2_41GaussianPodWithShNoneCov3dRotScaleConfigsE9new_emptyCslQCpptksoiT_3mod
FNDA:2,_RNvMNtNtCsap2RCL79A4I_14wgpu_3dgs_core6buffer8gaussianINtB2_15GaussiansBufferNtB2_41GaussianPodWithShSingleCov3dSingleConfigsE12update_rangeCslQCpptksoiT_3mod
FNDA:4,_RNvMNtNtCsap2RCL79A4I_14wgpu_3dgs_core6buffer8gaussianINtB2_15GaussiansBufferNtB2_41GaussianPodWithShSingleCov3dSingleConfigsE13new_with_podsCslQCpptksoiT_3mod
FNDA:2,_RNvMNtNtCsap2RCL79A4I_14wgpu_3dgs_core6buffer8gaussianINtB2_15GaussiansBufferNtB2_41GaussianPodWithShSingleCov3dSingleConfigsE15update_with_podCslQCpptksoiT_3mod
FNDA:1,_RNvMNtNtCsap2RCL79A4I_14wgpu_3dgs_core6buffer8gaussianINtB2_15GaussiansBufferNtB2_41GaussianPodWithShSingleCov3dSingleConfigsE18download_gaussiansCslQCpptksoiT_3mod
FNDA:3,_RNvMNtNtCsap2RCL79A4I_14wgpu_3dgs_core6buffer8gaussianINtB2_15GaussiansBufferNtB2_41GaussianPodWithShSingleCov3dSingleConfigsE20new_empty_with_usageCslQCpptksoiT_3mod
FNDA:2,_RNvMNtNtCsap2RCL79A4I_14wgpu_3dgs_core6buffer8gaussianINtB2_15GaussiansBufferNtB2_41GaussianPodWithShSingleCov3dSingleConfigsE21update_range_with_podCslQCpptksoiT_3mod
FNDA:15,_RNvMNtNtCsap2RCL79A4I_14wgpu_3dgs_core6buffer8gaussianINtB2_15GaussiansBufferNtB2_41GaussianPodWithShSingleCov3dSingleConfigsE23new_with_pods_and_usageCslQCpptksoiT_3mod
FNDA:9,_RNvMNtNtCsap2RCL79A4I_14wgpu_3dgs_core6buffer8gaussianINtB2_15GaussiansBufferNtB2_41GaussianPodWithShSingleCov3dSingleConfigsE3lenCslQCpptksoiT_3mod
FNDA:2,_RNvMNtNtCsap2RCL79A4I_14wgpu_3dgs_core6buffer8gaussianINtB2_15GaussiansBufferNtB2_41GaussianPodWithShSingleCov3dSingleConfigsE8is_emptyCslQCpptksoiT_3mod
FNDA:2,_RNvMNtNtCsap2RCL79A4I_14wgpu_3dgs_core6buffer8gaussianINtB2_15GaussiansBufferNtB2_41GaussianPodWithShSingleCov3dSingleConfigsE9new_emptyCslQCpptksoiT_3mod
FNDA:2,_RNvMNtNtCsap2RCL79A4I_14wgpu_3dgs_core6buffer8gaussianINtB2_15GaussiansBufferNtB2_42GaussianPodWithShNorm8Cov3dRotScaleConfigsE12update_rangeCslQCpptksoiT_3mod
FNDA:4,_RNvMNtNtCsap2RCL79A4I_14wgpu_3dgs_core6buffer8gaussianINtB2_15GaussiansBufferNtB2_42GaussianPodWithShNorm8Cov3dRotScaleConfigsE13new_with_podsCslQCpptksoiT_3mod
FNDA:2,_RNvMNtNtCsap2RCL79A4I_14wgpu_3dgs_core6buffer8gaussianINtB2_15GaussiansBufferNtB2_42GaussianPodWithShNorm8Cov3dRotScaleConfigsE15update_with_podCslQCpptksoiT_3mod
FNDA:1,_RNvMNtNtCsap2RCL79A4I_14wgpu_3dgs_core6buffer8gaussianINtB2_15GaussiansBufferNtB2_42GaussianPodWithShNorm8Cov3dRotScaleConfigsE18download_gaussiansCslQCpptksoiT_3mod
FNDA:3,_RNvMNtNtCsap2RCL79A4I_14wgpu_3dgs_core6buffer8gaussianINtB2_15GaussiansBufferNtB2_42GaussianPodWithShNorm8Cov3dRotScaleConfigsE20new_empty_with_usageCslQCpptksoiT_3mod
FNDA:2,_RNvMNtNtCsap2RCL79A4I_14wgpu_3dgs_core6buffer8gaussianINtB2_15GaussiansBufferNtB2_42GaussianPodWithShNorm8Cov3dRotScaleConfigsE21update_range_with_podCslQCpptksoiT_3mod
FNDA:12,_RNvMNtNtCsap2RCL79A4I_14wgpu_3dgs_core6buffer8gaussianINtB2_15GaussiansBufferNtB2_42GaussianPodWithShNorm8Cov3dRotScaleConfigsE23new_with_pods_and_usageCslQCpptksoiT_3mod
FNDA:9,_RNvMNtNtCsap2RCL79A4I_14wgpu_3dgs_core6buffer8gaussianINtB2_15GaussiansBufferNtB2_42GaussianPodWithShNorm8Cov3dRotScaleConfigsE3lenCslQCpptksoiT_3mod
FNDA:2,_RNvMNtNtCsap2RCL79A4I_14wgpu_3dgs_core6buffer8gaussianINtB2_15GaussiansBufferNtB2_42GaussianPodWithShNorm8Cov3dRotScaleConfigsE8is_emptyCslQCpptksoiT_3mod
FNDA:2,_RNvMNtNtCsap2RCL79A4I_14wgpu_3dgs_core6buffer8gaussianINtB2_15GaussiansBufferNtB2_42GaussianPodWithShNorm8Cov3dRotScaleConfigsE9new_emptyCslQCpptksoiT_3mod
FNDA:2,_RNvMNtNtCsap2RCL79A4I_14wgpu_3dgs_core6buffer8gaussianINtB2_15GaussiansBufferNtB2_43GaussianPodWithShSingleCov3dRotScaleConfigsE12update_rangeCslQCpptksoiT_3mod
FNDA:4,_RNvMNtNtCsap2RCL79A4I_14wgpu_3dgs_core6buffer8gaussianINtB2_15GaussiansBufferNtB2_43GaussianPodWithShSingleCov3dRotScaleConfigsE13new_with_podsCslQCpptksoiT_3mod
FNDA:2,_RNvMNtNtCsap2RCL79A4I_14wgpu_3dgs_core6buffer8gaussianINtB2_15GaussiansBufferNtB2_43GaussianPodWithShSingleCov3dRotScaleConfigsE15update_with_podCslQCpptksoiT_3mod
FNDA:1,_RNvMNtNtCsap2RCL79A4I_14wgpu_3dgs_core6buffer8gaussianINtB2_15GaussiansBufferNtB2_43GaussianPodWithShSingleCov3dRotScaleConfigsE18download_gaussiansCslQCpptksoiT_3mod
FNDA:3,_RNvMNtNtCsap2RCL79A4I_14wgpu_3dgs_core6buffer8gaussianINtB2_15GaussiansBufferNtB2_43GaussianPodWithShSingleCov3dRotScaleConfigsE20new_empty_with_usageCslQCpptksoiT_3mod
FNDA:2,_RNvMNtNtCsap2RCL79A4I_14wgpu_3dgs_core6buffer8gaussianINtB2_15GaussiansBufferNtB2_43GaussianPodWithShSingleCov3dRotScaleConfigsE21update_range_with_podCslQCpptksoiT_3mod
FNDA:13,_RNvMNtNtCsap2RCL79A4I_14wgpu_3dgs_core6buffer8gaussianINtB2_15GaussiansBufferNtB2_43GaussianPodWithShSingleCov3dRotScaleConfigsE23new_with_pods_and_usageCslQCpptksoiT_3mod
FNDA:9,_RNvMNtNtCsap2RCL79A4I_14wgpu_3dgs_core6buffer8gaussianINtB2_15GaussiansBufferNtB2_43GaussianPodWithShSingleCov3dRotScaleConfigsE3lenCslQCpptksoiT_3mod
FNDA:2,_RNvMNtNtCsap2RCL79A4I_14wgpu_3dgs_core6buffer8gaussianINtB2_15GaussiansBufferNtB2_43GaussianPodWithShSingleCov3dRotScaleConfigsE8is_emptyCslQCpptksoiT_3mod
FNDA:2,_RNvMNtNtCsap2RCL79A4I_14wgpu_3dgs_core6buffer8gaussianINtB2_15GaussiansBufferNtB2_43GaussianPodWithShSingleCov3dRotScaleConfigsE9new_emptyCslQCpptksoiT_3mod
FNDA:2,_RNvXs1_NtNtCsap2RCL79A4I_14wgpu_3dgs_core6buffer8gaussianINtB5_15GaussiansBufferNtB5_37GaussianPodWithShHalfCov3dHalfConfigsEINtNtCsmHtFwzCQ9E_4core7convert7TryFromNtNtNtCsebiihMPZ3Ak_4wgpu3api6buffer6BufferE8try_fromCslQCpptksoiT_3mod
FNDA:2,_RNvXs1_NtNtCsap2RCL79A4I_14wgpu_3dgs_core6buffer8gaussianINtB5_15GaussiansBufferNtB5_37GaussianPodWithShNoneCov3dHalfConfigsEINtNtCsmHtFwzCQ9E_4core7convert7TryFromNtNtNtCsebiihMPZ3Ak_4wgpu3api6buffer6BufferE8try_fromCslQCpptksoiT_3mod
FNDA:2,_RNvXs1_NtNtCsap2RCL79A4I_14wgpu_3dgs_core6buffer8gaussianINtB5_15GaussiansBufferNtB5_38GaussianPodWithShNorm8Cov3dHalfConfigsEINtNtCsmHtFwzCQ9E_4core7convert7TryFromNtNtNtCsebiihMPZ3Ak_4wgpu3api6buffer6BufferE8try_fromCslQCpptksoiT_3mod
FNDA:2,_RNvXs1_NtNtCsap2RCL79A4I_14wgpu_3dgs_core6buffer8gaussianINtB5_15GaussiansBufferNtB5_39GaussianPodWithShHalfCov3dSingleConfigsEINtNtCsmHtFwzCQ9E_4core7convert7TryFromNtNtNtCsebiihMPZ3Ak_4wgpu3api6buffer6BufferE8try_fromCslQCpptksoiT_3mod
FNDA:2,_RNvXs1_NtNtCsap2RCL79A4I_14wgpu_3dgs_core6buffer8gaussianINtB5_15GaussiansBufferNtB5_39GaussianPodWithShNoneCov3dSingleConfigsEINtNtCsmHtFwzCQ9E_4core7convert7TryFromNtNtNtCsebiihMPZ3Ak_4wgpu3api6buffer6BufferE8try_fromCslQCpptksoiT_3mod
FNDA:2,_RNvXs1_NtNtCsap2RCL79A4I_14wgpu_3dgs_core6buffer8gaussianINtB5_15GaussiansBufferNtB5_39GaussianPodWithShSingleCov3dHalfConfigsEINtNtCsmHtFwzCQ9E_4core7convert7TryFromNtNtNtCsebiihMPZ3Ak_4wgpu3api6buffer6BufferE8try_fromCslQCpptksoiT_3mod
FNDA:2,_RNvXs1_NtNtCsap2RCL79A4I_14wgpu_3dgs_core6buffer8gaussianINtB5_15GaussiansBufferNtB5_40GaussianPodWithShNorm8Cov3dSingleConfigsEINtNtCsmHtFwzCQ9E_4core7convert7TryFromNtNtNtCsebiihMPZ3Ak_4wgpu3api6buffer6BufferE8try_fromCslQCpptksoiT_3mod
FNDA:2,_RNvXs1_NtNtCsap2RCL79A4I_14wgpu_3dgs_core6buffer8gaussianINtB5_15GaussiansBufferNtB5_41GaussianPodWithShHalfCov3dRotScaleConfigsEINtNtCsmHtFwzCQ9E_4core7convert7TryFromNtNtNtCsebiihMPZ3Ak_4wgpu3api6buffer6BufferE8try_fromCslQCpptksoiT_3mod
FNDA:2,_RNvXs1_NtNtCsap2RCL79A4I_14wgpu_3dgs_core6buffer8gaussianINtB5_15GaussiansBufferNtB5_41GaussianPodWithShNoneCov3dRotScaleConfigsEINtNtCsmHtFwzCQ9E_4core7convert7TryFromNtNtNtCsebiihMPZ3Ak_4wgpu3api6buffer6BufferE8try_fromCslQCpptksoiT_3mod
FNDA:2,_RNvXs1_NtNtCsap2RCL79A4I_14wgpu_3dgs_core6buffer8gaussianINtB5_15GaussiansBufferNtB5_41GaussianPodWithShSingleCov3dSingleConfigsEINtNtCsmHtFwzCQ9E_4core7convert7TryFromNtNtNtCsebiihMPZ3Ak_4wgpu3api6buffer6BufferE8try_fromCslQCpptksoiT_3mod
FNDA:2,_RNvXs1_NtNtCsap2RCL79A4I_14wgpu_3dgs_core6buffer8gaussianINtB5_15GaussiansBufferNtB5_42GaussianPodWithShNorm8Cov3dRotScaleConfigsEINtNtCsmHtFwzCQ9E_4core7convert7TryFromNtNtNtCsebiihMPZ3Ak_4wgpu3api6buffer6BufferE8try_fromCslQCpptksoiT_3mod
FNDA:2,_RNvXs1_NtNtCsap2RCL79A4I_14wgpu_3dgs_core6buffer8gaussianINtB5_15GaussiansBufferNtB5_43GaussianPodWithShSingleCov3dRotScaleConfigsEINtNtCsmHtFwzCQ9E_4core7convert7TryFromNtNtNtCsebiihMPZ3Ak_4wgpu3api6buffer6BufferE8try_fromCslQCpptksoiT_3mod
FNDA:20,_RNvXs_NtNtCsap2RCL79A4I_14wgpu_3dgs_core6buffer8gaussianINtB4_15GaussiansBufferNtB4_37GaussianPodWithShHalfCov3dHalfConfigsENtB6_13BufferWrapper6bufferCslQCpptksoiT_3mod
FNDA:20,_RNvXs_NtNtCsap2RCL79A4I_14wgpu_3dgs_core6buffer8gaussianINtB4_15GaussiansBufferNtB4_37GaussianPodWithShNoneCov3dHalfConfigsENtB6_13BufferWrapper6bufferCslQCpptksoiT_3mod
FNDA:20,_RNvXs_NtNtCsap2RCL79A4I_14wgpu_3dgs_core6buffer8gaussianINtB4_15GaussiansBufferNtB4_38GaussianPodWithShNorm8Cov3dHalfConfigsENtB6_13BufferWrapper6bufferCslQCpptksoiT_3mod
FNDA:21,_RNvXs_NtNtCsap2RCL79A4I_14wgpu_3dgs_core6buffer8gaussianINtB4_15GaussiansBufferNtB4_39GaussianPodWithShHalfCov3dSingleConfigsENtB6_13BufferWrapper6bufferCslQCpptksoiT_3mod
FNDA:20,_RNvXs_NtNtCsap2RCL79A4I_14wgpu_3dgs_core6buffer8gaussianINtB4_15GaussiansBufferNtB4_39GaussianPodWithShNoneCov3dSingleConfigsENtB6_13BufferWrapper6bufferCslQCpptksoiT_3mod
FNDA:21,_RNvXs_NtNtCsap2RCL79A4I_14wgpu_3dgs_core6buffer8gaussianINtB4_15GaussiansBufferNtB4_39GaussianPodWithShSingleCov3dHalfConfigsENtB6_13BufferWrapper6bufferCslQCpptksoiT_3mod
FNDA:21,_RNvXs_NtNtCsap2RCL79A4I_14wgpu_3dgs_core6buffer8gaussianINtB4_15GaussiansBufferNtB4_40GaussianPodWithShNorm8Cov3dSingleConfigsENtB6_13BufferWrapper6bufferCslQCpptksoiT_3mod
FNDA:22,_RNvXs_NtNtCsap2RCL79A4I_14wgpu_3dgs_core6buffer8gaussianINtB4_15GaussiansBufferNtB4_41GaussianPodWithShHalfCov3dRotScaleConfigsENtB6_13BufferWrapper6bufferCslQCpptksoiT_3mod
FNDA:20,_RNvXs_NtNtCsap2RCL79A4I_14wgpu_3dgs_core6buffer8gaussianINtB4_15GaussiansBufferNtB4_41GaussianPodWithShNoneCov3dRotScaleConfigsENtB6_13BufferWrapper6bufferCslQCpptksoiT_3mod
FNDA:23,_RNvXs_NtNtCsap2RCL79A4I_14wgpu_3dgs_core6buffer8gaussianINtB4_15GaussiansBufferNtB4_41GaussianPodWithShSingleCov3dSingleConfigsENtB6_13BufferWrapper6bufferCslQCpptksoiT_3mod
FNDA:22,_RNvXs_NtNtCsap2RCL79A4I_14wgpu_3dgs_core6buffer8gaussianINtB4_15GaussiansBufferNtB4_42GaussianPodWithShNorm8Cov3dRotScaleConfigsENtB6_13BufferWrapper6bufferCslQCpptksoiT_3mod
FNDA:23,_RNvXs_NtNtCsap2RCL79A4I_14wgpu_3dgs_core6buffer8gaussianINtB4_15GaussiansBufferNtB4_43GaussianPodWithShSingleCov3dRotScaleConfigsENtB6_13BufferWrapper6bufferCslQCpptksoiT_3mod
FNDA:59,_RNvYNtNtNtCsap2RCL79A4I_14wgpu_3dgs_core6buffer8gaussian37GaussianPodWithShHalfCov3dHalfConfigsNtB4_11GaussianPod13from_gaussianCslQCpptksoiT_3mod
FNDA:59,_RNvYNtNtNtCsap2RCL79A4I_14wgpu_3dgs_core6buffer8gaussian37GaussianPodWithShNoneCov3dHalfConfigsNtB4_11GaussianPod13from_gaussianCslQCpptksoiT_3mod
FNDA:59,_RNvYNtNtNtCsap2RCL79A4I_14wgpu_3dgs_core6buffer8gaussian38GaussianPodWithShNorm8Cov3dHalfConfigsNtB4_11GaussianPod13from_gaussianCslQCpptksoiT_3mod
FNDA:60,_RNvYNtNtNtCsap2RCL79A4I_14wgpu_3dgs_core6buffer8gaussian39GaussianPodWithShHalfCov3dSingleConfigsNtB4_11GaussianPod13from_gaussianCslQCpptksoiT_3mod
FNDA:1,_RNvYNtNtNtCsap2RCL79A4I_14wgpu_3dgs_core6buffer8gaussian39GaussianPodWithShHalfCov3dSingleConfigsNtB4_11GaussianPod13wesl_featuresCslQCpptksoiT_3mod
FNDA:1,_RNvYNtNtNtCsap2RCL79A4I_14wgpu_3dgs_core6buffer8gaussian39GaussianPodWithShHalfCov3dSingleConfigsNtB4_11GaussianPod8featuresCslQCpptksoiT_3mod
FNDA:59,_RNvYNtNtNtCsap2RCL79A4I_14wgpu_3dgs_core6buffer8gaussian39GaussianPodWithShNoneCov3dSingleConfigsNtB4_11GaussianPod13from_gaussianCslQCpptksoiT_3mod
FNDA:60,_RNvYNtNtNtCsap2RCL79A4I_14wgpu_3dgs_core6buffer8gaussian39GaussianPodWithShSingleCov3dHalfConfigsNtB4_11GaussianPod13from_gaussianCslQCpptksoiT_3mod
FNDA:1,_RNvYNtNtNtCsap2RCL79A4I_14wgpu_3dgs_core6buffer8gaussian39GaussianPodWithShSingleCov3dHalfConfigsNtB4_11GaussianPod13wesl_featuresCslQCpptksoiT_3mod
FNDA:1,_RNvYNtNtNtCsap2RCL79A4I_14wgpu_3dgs_core6buffer8gaussian39GaussianPodWithShSingleCov3dHalfConfigsNtB4_11GaussianPod8featuresCslQCpptksoiT_3mod
FNDA:60,_RNvYNtNtNtCsap2RCL79A4I_14wgpu_3dgs_core6buffer8gaussian40GaussianPodWithShNorm8Cov3dSingleConfigsNtB4_11GaussianPod13from_gaussianCslQCpptksoiT_3mod
FNDA:1,_RNvYNtNtNtCsap2RCL79A4I_14wgpu_3dgs_core6buffer8gaussian40GaussianPodWithShNorm8Cov3dSingleConfigsNtB4_11GaussianPod13wesl_featuresCslQCpptksoiT_3mod
FNDA:1,_RNvYNtNtNtCsap2RCL79A4I_14wgpu_3dgs_core6buffer8gaussian40GaussianPodWithShNorm8Cov3dSingleConfigsNtB4_11GaussianPod8featuresCslQCpptksoiT_3mod
FNDA:59,_RNvYNtNtNtCsap2RCL79A4I_14wgpu_3dgs_core6buffer8gaussian41GaussianPodWithShHalfCov3dRotScaleConfigsNtB4_11GaussianPod13from_gaussianCslQCpptksoiT_3mod
FNDA:59,_RNvYNtNtNtCsap2RCL79A4I_14wgpu_3dgs_core6buffer8gaussian41GaussianPodWithShNoneCov3dRotScaleConfigsNtB4_11GaussianPod13from_gaussianCslQCpptksoiT_3mod
FNDA:62,_RNvYNtNtNtCsap2RCL79A4I_14wgpu_3dgs_core6buffer8gaussian41GaussianPodWithShSingleCov3dSingleConfigsNtB4_11GaussianPod13from_gaussianCslQCpptksoiT_3mod
FNDA:3,_RNvYNtNtNtCsap2RCL79A4I_14wgpu_3dgs_core6buffer8gaussian41GaussianPodWithShSingleCov3dSingleConfigsNtB4_11GaussianPod13wesl_featuresCslQCpptksoiT_3mod
FNDA:3,_RNvYNtNtNtCsap2RCL79A4I_14wgpu_3dgs_core6buffer8gaussian41GaussianPodWithShSingleCov3dSingleConfigsNtB4_11GaussianPod8featuresCslQCpptksoiT_3mod
FNDA:59,_RNvYNtNtNtCsap2RCL79A4I_14wgpu_3dgs_core6buffer8gaussian42GaussianPodWithShNorm8Cov3dRotScaleConfigsNtB4_11GaussianPod13from_gaussianCslQCpptksoiT_3mod
FNDA:60,_RNvYNtNtNtCsap2RCL79A4I_14wgpu_3dgs_core6buffer8gaussian43GaussianPodWithShSingleCov3dRotScaleConfigsNtB4_11GaussianPod13from_gaussianCslQCpptksoiT_3mod
FNDA:1,_RNvYNtNtNtCsap2RCL79A4I_14wgpu_3dgs_core6buffer8gaussian43GaussianPodWithShSingleCov3dRotScaleConfigsNtB4_11GaussianPod13wesl_featuresCslQCpptksoiT_3mod
FNDA:1,_RNvYNtNtNtCsap2RCL79A4I_14wgpu_3dgs_core6buffer8gaussian43GaussianPodWithShSingleCov3dRotScaleConfigsNtB4_11GaussianPod8featuresCslQCpptksoiT_3mod
FNDA:6,_RNvXs13_NtNtCsap2RCL79A4I_14wgpu_3dgs_core6buffer8gaussianNtNtBa_8gaussian8GaussianINtNtCsmHtFwzCQ9E_4core7convert4FromNtB6_42GaussianPodWithShNorm8Cov3dRotScaleConfigsE4from
FNDA:1,_RNvXs1H_NtNtCsap2RCL79A4I_14wgpu_3dgs_core6buffer8gaussianNtNtBa_8gaussian8GaussianINtNtCsmHtFwzCQ9E_4core7convert4FromNtB6_39GaussianPodWithShNoneCov3dSingleConfigsE4from
FNDA:1,_RNvXs1R_NtNtCsap2RCL79A4I_14wgpu_3dgs_core6buffer8gaussianNtNtBa_8gaussian8GaussianINtNtCsmHtFwzCQ9E_4core7convert4FromNtB6_37GaussianPodWithShNoneCov3dHalfConfigsE4from
FNDA:1,_RNvXs1d_NtNtCsap2RCL79A4I_14wgpu_3dgs_core6buffer8gaussianNtNtBa_8gaussian8GaussianINtNtCsmHtFwzCQ9E_4core7convert4FromNtB6_40GaussianPodWithShNorm8Cov3dSingleConfigsE4from
FNDA:1,_RNvXs1n_NtNtCsap2RCL79A4I_14wgpu_3dgs_core6buffer8gaussianNtNtBa_8gaussian8GaussianINtNtCsmHtFwzCQ9E_4core7convert4FromNtB6_38GaussianPodWithShNorm8Cov3dHalfConfigsE4from
FNDA:1,_RNvXs1x_NtNtCsap2RCL79A4I_14wgpu_3dgs_core6buffer8gaussianNtNtBa_8gaussian8GaussianINtNtCsmHtFwzCQ9E_4core7convert4FromNtB6_41GaussianPodWithShNoneCov3dRotScaleConfigsE4from
FNDA:6,_RNvXs5_NtNtCsap2RCL79A4I_14wgpu_3dgs_core6buffer8gaussianNtNtB9_8gaussian8GaussianINtNtCsmHtFwzCQ9E_4core7convert4FromNtB5_43GaussianPodWithShSingleCov3dRotScaleConfigsE4from
FNDA:1,_RNvXsJ_NtNtCsap2RCL79A4I_14wgpu_3dgs_core6buffer8gaussianNtNtB9_8gaussian8GaussianINtNtCsmHtFwzCQ9E_4core7convert4FromNtB5_39GaussianPodWithShHalfCov3dSingleConfigsE4from
FNDA:1,_RNvXsT_NtNtCsap2RCL79A4I_14wgpu_3dgs_core6buffer8gaussianNtNtB9_8gaussian8GaussianINtNtCsmHtFwzCQ9E_4core7convert4FromNtB5_37GaussianPodWithShHalfCov3dHalfConfigsE4from
FNDA:1,_RNvXsf_NtNtCsap2RCL79A4I_14wgpu_3dgs_core6buffer8gaussianNtNtB9_8gaussian8GaussianINtNtCsmHtFwzCQ9E_4core7convert4FromNtB5_41GaussianPodWithShSingleCov3dSingleConfigsE4from
FNDA:1,_RNvXsp_NtNtCsap2RCL79A4I_14wgpu_3dgs_core6buffer8gaussianNtNtB9_8gaussian8GaussianINtNtCsmHtFwzCQ9E_4core7convert4FromNtB5_39GaussianPodWithShSingleCov3dHalfConfigsE4from
FNDA:6,_RNvXsz_NtNtCsap2RCL79A4I_14wgpu_3dgs_core6buffer8gaussianNtNtB9_8gaussian8GaussianINtNtCsmHtFwzCQ9E_4core7convert4FromNtB5_41GaussianPodWithShHalfCov3dRotScaleConfigsE4from
FNDA:81,_RNvXs12_NtNtCsap2RCL79A4I_14wgpu_3dgs_core6buffer8gaussianNtB6_42GaussianPodWithShNorm8Cov3dRotScaleConfigsINtNtCsmHtFwzCQ9E_4core7convert4FromRNtNtBa_8gaussian8GaussianE4from
FNDA:81,_RNvXs1G_NtNtCsap2RCL79A4I_14wgpu_3dgs_core6buffer8gaussianNtB6_39GaussianPodWithShNoneCov3dSingleConfigsINtNtCsmHtFwzCQ9E_4core7convert4FromRNtNtBa_8gaussian8GaussianE4from
FNDA:81,_RNvXs1Q_NtNtCsap2RCL79A4I_14wgpu_3dgs_core6buffer8gaussianNtB6_37GaussianPodWithShNoneCov3dHalfConfigsINtNtCsmHtFwzCQ9E_4core7convert4FromRNtNtBa_8gaussian8GaussianE4from
FNDA:82,_RNvXs1c_NtNtCsap2RCL79A4I_14wgpu_3dgs_core6buffer8gaussianNtB6_40GaussianPodWithShNorm8Cov3dSingleConfigsINtNtCsmHtFwzCQ9E_4core7convert4FromRNtNtBa_8gaussian8GaussianE4from
FNDA:81,_RNvXs1m_NtNtCsap2RCL79A4I_14wgpu_3dgs_core6buffer8gaussianNtB6_38GaussianPodWithShNorm8Cov3dHalfConfigsINtNtCsmHtFwzCQ9E_4core7convert4FromRNtNtBa_8gaussian8GaussianE4from
FNDA:81,_RNvXs1w_NtNtCsap2RCL79A4I_14wgpu_3dgs_core6buffer8gaussianNtB6_41GaussianPodWithShNoneCov3dRotScaleConfigsINtNtCsmHtFwzCQ9E_4core7convert4FromRNtNtBa_8gaussian8GaussianE4from
FNDA:82,_RNvXs4_NtNtCsap2RCL79A4I_14wgpu_3dgs_core6buffer8gaussianNtB5_43GaussianPodWithShSingleCov3dRotScaleConfigsINtNtCsmHtFwzCQ9E_4core7convert4FromRNtNtB9_8gaussian8GaussianE4from
FNDA:82,_RNvXsI_NtNtCsap2RCL79A4I_14wgpu_3dgs_core6buffer8gaussianNtB5_39GaussianPodWithShHalfCov3dSingleConfigsINtNtCsmHtFwzCQ9E_4core7convert4FromRNtNtB9_8gaussian8GaussianE4from
FNDA:90,_RNvXsS_NtNtCsap2RCL79A4I_14wgpu_3dgs_core6buffer8gaussianNtB5_37GaussianPodWithShHalfCov3dHalfConfigsINtNtCsmHtFwzCQ9E_4core7convert4FromRNtNtB9_8gaussian8GaussianE4from
FNDA:84,_RNvXse_NtNtCsap2RCL79A4I_14wgpu_3dgs_core6buffer8gaussianNtB5_41GaussianPodWithShSingleCov3dSingleConfigsINtNtCsmHtFwzCQ9E_4core7convert4FromRNtNtB9_8gaussian8GaussianE4from
FNDA:82,_RNvXso_NtNtCsap2RCL79A4I_14wgpu_3dgs_core6buffer8gaussianNtB5_39GaussianPodWithShSingleCov3dHalfConfigsINtNtCsmHtFwzCQ9E_4core7convert4FromRNtNtB9_8gaussian8GaussianE4from
FNDA:81,_RNvXsy_NtNtCsap2RCL79A4I_14wgpu_3dgs_core6buffer8gaussianNtB5_41GaussianPodWithShHalfCov3dRotScaleConfigsINtNtCsmHtFwzCQ9E_4core7convert4FromRNtNtB9_8gaussian8GaussianE4from
FNDA:1,_RNvNtNtNtNtCs3bDQ3tnbls4_14wgpu_3dgs_core6buffer8gaussian5tests3pods_41test_none_half_features_should_be_correct
FNDA:1,_RNvNtNtNtNtCs3bDQ3tnbls4_14wgpu_3dgs_core6buffer8gaussian5tests3pods_41test_none_half_into_gaussian_should_panic
FNDA:1,_RNvNtNtNtNtCs3bDQ3tnbls4_14wgpu_3dgs_core6buffer8gaussian5tests3pods_42test_norm8_half_features_should_be_correct
FNDA:1,_RNvNtNtNtNtCs3bDQ3tnbls4_14wgpu_3dgs_core6buffer8gaussian5tests3pods_42test_norm8_half_into_gaussian_should_panic
FNDA:1,_RNvNtNtNtNtCs3bDQ3tnbls4_14wgpu_3dgs_core6buffer8gaussian5tests3pods_43test_none_single_features_should_be_correct
FNDA:1,_RNvNtNtNtNtCs3bDQ3tnbls4_14wgpu_3dgs_core6buffer8gaussian5tests3pods_43test_none_single_into_gaussian_should_panic
FNDA:1,_RNvNtNtNtNtCs3bDQ3tnbls4_14wgpu_3dgs_core6buffer8gaussian5tests3pods_43test_single_half_features_should_be_correct
FNDA:1,_RNvNtNtNtNtCs3bDQ3tnbls4_14wgpu_3dgs_core6buffer8gaussian5tests3pods_43test_single_half_into_gaussian_should_panic
FNDA:1,_RNvNtNtNtNtCs3bDQ3tnbls4_14wgpu_3dgs_core6buffer8gaussian5tests3pods_44test_norm8_single_features_should_be_correct
FNDA:1,_RNvNtNtNtNtCs3bDQ3tnbls4_14wgpu_3dgs_core6buffer8gaussian5tests3pods_44test_norm8_single_into_gaussian_should_panic
FNDA:1,_RNvNtNtNtNtCs3bDQ3tnbls4_14wgpu_3dgs_core6buffer8gaussian5tests3pods_45test_half_rotscale_features_should_be_correct
FNDA:1,_RNvNtNtNtNtCs3bDQ3tnbls4_14wgpu_3dgs_core6buffer8gaussian5tests3pods_45test_none_rotscale_features_should_be_correct
FNDA:1,_RNvNtNtNtNtCs3bDQ3tnbls4_14wgpu_3dgs_core6buffer8gaussian5tests3pods_45test_none_rotscale_into_gaussian_should_panic
FNDA:1,_RNvNtNtNtNtCs3bDQ3tnbls4_14wgpu_3dgs_core6buffer8gaussian5tests3pods_45test_single_single_features_should_be_correct
FNDA:1,_RNvNtNtNtNtCs3bDQ3tnbls4_14wgpu_3dgs_core6buffer8gaussian5tests3pods_45test_single_single_into_gaussian_should_panic
FNDA:1,_RNvNtNtNtNtCs3bDQ3tnbls4_14wgpu_3dgs_core6buffer8gaussian5tests3pods_46test_none_half_wesl_features_should_be_correct
FNDA:1,_RNvNtNtNtNtCs3bDQ3tnbls4_14wgpu_3dgs_core6buffer8gaussian5tests3pods_46test_norm8_rotscale_features_should_be_correct
FNDA:1,_RNvNtNtNtNtCs3bDQ3tnbls4_14wgpu_3dgs_core6buffer8gaussian5tests3pods_46test_test_half_half_features_should_be_correct
FNDA:1,_RNvNtNtNtNtCs3bDQ3tnbls4_14wgpu_3dgs_core6buffer8gaussian5tests3pods_46test_test_half_half_into_gaussian_should_panic
FNDA:1,_RNvNtNtNtNtCs3bDQ3tnbls4_14wgpu_3dgs_core6buffer8gaussian5tests3pods_47test_norm8_half_wesl_features_should_be_correct
FNDA:1,_RNvNtNtNtNtCs3bDQ3tnbls4_14wgpu_3dgs_core6buffer8gaussian5tests3pods_47test_single_rotscale_features_should_be_correct
FNDA:1,_RNvNtNtNtNtCs3bDQ3tnbls4_14wgpu_3dgs_core6buffer8gaussian5tests3pods_48test_none_single_wesl_features_should_be_correct
FNDA:1,_RNvNtNtNtNtCs3bDQ3tnbls4_14wgpu_3dgs_core6buffer8gaussian5tests3pods_48test_single_half_wesl_features_should_be_correct
FNDA:1,_RNvNtNtNtNtCs3bDQ3tnbls4_14wgpu_3dgs_core6buffer8gaussian5tests3pods_48test_test_half_single_features_should_be_correct
FNDA:1,_RNvNtNtNtNtCs3bDQ3tnbls4_14wgpu_3dgs_core6buffer8gaussian5tests3pods_48test_test_half_single_into_gaussian_should_panic
FNDA:1,_RNvNtNtNtNtCs3bDQ3tnbls4_14wgpu_3dgs_core6buffer8gaussian5tests3pods_49test_norm8_single_wesl_features_should_be_correct
FNDA:1,_RNvNtNtNtNtCs3bDQ3tnbls4_14wgpu_3dgs_core6buffer8gaussian5tests3pods_50test_half_rotscale_wesl_features_should_be_correct
FNDA:1,_RNvNtNtNtNtCs3bDQ3tnbls4_14wgpu_3dgs_core6buffer8gaussian5tests3pods_50test_none_rotscale_wesl_features_should_be_correct
FNDA:1,_RNvNtNtNtNtCs3bDQ3tnbls4_14wgpu_3dgs_core6buffer8gaussian5tests3pods_50test_single_single_wesl_features_should_be_correct
FNDA:1,_RNvNtNtNtNtCs3bDQ3tnbls4_14wgpu_3dgs_core6buffer8gaussian5tests3pods_51test_norm8_rotscale_wesl_features_should_be_correct
FNDA:1,_RNvNtNtNtNtCs3bDQ3tnbls4_14wgpu_3dgs_core6buffer8gaussian5tests3pods_51test_test_half_half_wesl_features_should_be_correct
FNDA:1,_RNvNtNtNtNtCs3bDQ3tnbls4_14wgpu_3dgs_core6buffer8gaussian5tests3pods_52test_single_rotscale_wesl_features_should_be_correct
FNDA:1,_RNvNtNtNtNtCs3bDQ3tnbls4_14wgpu_3dgs_core6buffer8gaussian5tests3pods_53test_test_half_single_wesl_features_should_be_correct
FNDA:1,_RNvNtNtNtNtCs3bDQ3tnbls4_14wgpu_3dgs_core6buffer8gaussian5tests3pods_58test_half_rotscale_into_gaussian_should_equal_original_pod
FNDA:1,_RNvNtNtNtNtCs3bDQ3tnbls4_14wgpu_3dgs_core6buffer8gaussian5tests3pods_59test_none_half_from_gaussian_should_equal_original_gaussian
FNDA:1,_RNvNtNtNtNtCs3bDQ3tnbls4_14wgpu_3dgs_core6buffer8gaussian5tests3pods_59test_norm8_rotscale_into_gaussian_should_equal_original_pod
FNDA:1,_RNvNtNtNtNtCs3bDQ3tnbls4_14wgpu_3dgs_core6buffer8gaussian5tests3pods_60test_norm8_half_from_gaussian_should_equal_original_gaussian
FNDA:1,_RNvNtNtNtNtCs3bDQ3tnbls4_14wgpu_3dgs_core6buffer8gaussian5tests3pods_60test_single_rotscale_into_gaussian_should_equal_original_pod
FNDA:1,_RNvNtNtNtNtCs3bDQ3tnbls4_14wgpu_3dgs_core6buffer8gaussian5tests3pods_61test_none_single_from_gaussian_should_equal_original_gaussian
FNDA:1,_RNvNtNtNtNtCs3bDQ3tnbls4_14wgpu_3dgs_core6buffer8gaussian5tests3pods_61test_single_half_from_gaussian_should_equal_original_gaussian
FNDA:1,_RNvNtNtNtNtCs3bDQ3tnbls4_14wgpu_3dgs_core6buffer8gaussian5tests3pods_62test_norm8_single_from_gaussian_should_equal_original_gaussian
FNDA:1,_RNvNtNtNtNtCs3bDQ3tnbls4_14wgpu_3dgs_core6buffer8gaussian5tests3pods_63test_half_rotscale_from_gaussian_should_equal_original_gaussian
FNDA:1,_RNvNtNtNtNtCs3bDQ3tnbls4_14wgpu_3dgs_core6buffer8gaussian5tests3pods_63test_none_rotscale_from_gaussian_should_equal_original_gaussian
FNDA:1,_RNvNtNtNtNtCs3bDQ3tnbls4_14wgpu_3dgs_core6buffer8gaussian5tests3pods_63test_single_single_from_gaussian_should_equal_original_gaussian
FNDA:1,_RNvNtNtNtNtCs3bDQ3tnbls4_14wgpu_3dgs_core6buffer8gaussian5tests3pods_64test_norm8_rotscale_from_gaussian_should_equal_original_gaussian
FNDA:1,_RNvNtNtNtNtCs3bDQ3tnbls4_14wgpu_3dgs_core6buffer8gaussian5tests3pods_64test_test_half_half_from_gaussian_should_equal_original_gaussian
FNDA:1,_RNvNtNtNtNtCs3bDQ3tnbls4_14wgpu_3dgs_core6buffer8gaussian5tests3pods_65test_single_rotscale_from_gaussian_should_equal_original_gaussian
FNDA:1,_RNvNtNtNtNtCs3bDQ3tnbls4_14wgpu_3dgs_core6buffer8gaussian5tests3pods_66test_test_half_single_from_gaussian_should_equal_original_gaussian
FNDA:7,_RNCNvYNtNtNtCs3bDQ3tnbls4_14wgpu_3dgs_core6buffer8gaussian37GaussianPodWithShHalfCov3dHalfConfigsNtB6_11GaussianPod13wesl_features0Ba_
FNDA:21,_RNCNvYNtNtNtCs3bDQ3tnbls4_14wgpu_3dgs_core6buffer8gaussian37GaussianPodWithShHalfCov3dHalfConfigsNtB6_11GaussianPod8features0Ba_
FNDA:7,_RNCNvYNtNtNtCs3bDQ3tnbls4_14wgpu_3dgs_core6buffer8gaussian37GaussianPodWithShNoneCov3dHalfConfigsNtB6_11GaussianPod13wesl_features0Ba_
FNDA:21,_RNCNvYNtNtNtCs3bDQ3tnbls4_14wgpu_3dgs_core6buffer8gaussian37GaussianPodWithShNoneCov3dHalfConfigsNtB6_11GaussianPod8features0Ba_
FNDA:7,_RNCNvYNtNtNtCs3bDQ3tnbls4_14wgpu_3dgs_core6buffer8gaussian38GaussianPodWithShNorm8Cov3dHalfConfigsNtB6_11GaussianPod13wesl_features0Ba_
FNDA:21,_RNCNvYNtNtNtCs3bDQ3tnbls4_14wgpu_3dgs_core6buffer8gaussian38GaussianPodWithShNorm8Cov3dHalfConfigsNtB6_11GaussianPod8features0Ba_
FNDA:7,_RNCNvYNtNtNtCs3bDQ3tnbls4_14wgpu_3dgs_core6buffer8gaussian39GaussianPodWithShHalfCov3dSingleConfigsNtB6_11GaussianPod13wesl_features0Ba_
FNDA:21,_RNCNvYNtNtNtCs3bDQ3tnbls4_14wgpu_3dgs_core6buffer8gaussian39GaussianPodWithShHalfCov3dSingleConfigsNtB6_11GaussianPod8features0Ba_
FNDA:7,_RNCNvYNtNtNtCs3bDQ3tnbls4_14wgpu_3dgs_core6buffer8gaussian39GaussianPodWithShNoneCov3dSingleConfigsNtB6_11GaussianPod13wesl_features0Ba_
FNDA:21,_RNCNvYNtNtNtCs3bDQ3tnbls4_14wgpu_3dgs_core6buffer8gaussian39GaussianPodWithShNoneCov3dSingleConfigsNtB6_11GaussianPod8features0Ba_
FNDA:7,_RNCNvYNtNtNtCs3bDQ3tnbls4_14wgpu_3dgs_core6buffer8gaussian39GaussianPodWithShSingleCov3dHalfConfigsNtB6_11GaussianPod13wesl_features0Ba_
FNDA:21,_RNCNvYNtNtNtCs3bDQ3tnbls4_14wgpu_3dgs_core6buffer8gaussian39GaussianPodWithShSingleCov3dHalfConfigsNtB6_11GaussianPod8features0Ba_
FNDA:7,_RNCNvYNtNtNtCs3bDQ3tnbls4_14wgpu_3dgs_core6buffer8gaussian40GaussianPodWithShNorm8Cov3dSingleConfigsNtB6_11GaussianPod13wesl_features0Ba_
FNDA:21,_RNCNvYNtNtNtCs3bDQ3tnbls4_14wgpu_3dgs_core6buffer8gaussian40GaussianPodWithShNorm8Cov3dSingleConfigsNtB6_11GaussianPod8features0Ba_
FNDA:7,_RNCNvYNtNtNtCs3bDQ3tnbls4_14wgpu_3dgs_core6buffer8gaussian41GaussianPodWithShHalfCov3dRotScaleConfigsNtB6_11GaussianPod13wesl_features0Ba_
FNDA:21,_RNCNvYNtNtNtCs3bDQ3tnbls4_14wgpu_3dgs_core6buffer8gaussian41GaussianPodWithShHalfCov3dRotScaleConfigsNtB6_11GaussianPod8features0Ba_
FNDA:7,_RNCNvYNtNtNtCs3bDQ3tnbls4_14wgpu_3dgs_core6buffer8gaussian41GaussianPodWithShNoneCov3dRotScaleConfigsNtB6_11GaussianPod13wesl_features0Ba_
FNDA:21,_RNCNvYNtNtNtCs3bDQ3tnbls4_14wgpu_3dgs_core6buffer8gaussian41GaussianPodWithShNoneCov3dRotScaleConfigsNtB6_11GaussianPod8features0Ba_
FNDA:7,_RNCNvYNtNtNtCs3bDQ3tnbls4_14wgpu_3dgs_core6buffer8gaussian41GaussianPodWithShSingleCov3dSingleConfigsNtB6_11GaussianPod13wesl_features0Ba_
FNDA:21,_RNCNvYNtNtNtCs3bDQ3tnbls4_14wgpu_3dgs_core6buffer8gaussian41GaussianPodWithShSingleCov3dSingleConfigsNtB6_11GaussianPod8features0Ba_
FNDA:7,_RNCNvYNtNtNtCs3bDQ3tnbls4_14wgpu_3dgs_core6buffer8gaussian42GaussianPodWithShNorm8Cov3dRotScaleConfigsNtB6_11GaussianPod13wesl_features0Ba_
FNDA:21,_RNCNvYNtNtNtCs3bDQ3tnbls4_14wgpu_3dgs_core6buffer8gaussian42GaussianPodWithShNorm8Cov3dRotScaleConfigsNtB6_11GaussianPod8features0Ba_
FNDA:7,_RNCNvYNtNtNtCs3bDQ3tnbls4_14wgpu_3dgs_core6buffer8gaussian43GaussianPodWithShSingleCov3dRotScaleConfigsNtB6_11GaussianPod13wesl_features0Ba_
FNDA:21,_RNCNvYNtNtNtCs3bDQ3tnbls4_14wgpu_3dgs_core6buffer8gaussian43GaussianPodWithShSingleCov3dRotScaleConfigsNtB6_11GaussianPod8features0Ba_
FNDA:2,_RNvYNtNtNtCs3bDQ3tnbls4_14wgpu_3dgs_core6buffer8gaussian37GaussianPodWithShHalfCov3dHalfConfigsNtB4_11GaussianPod13from_gaussianB8_
FNDA:1,_RNvYNtNtNtCs3bDQ3tnbls4_14wgpu_3dgs_core6buffer8gaussian37GaussianPodWithShHalfCov3dHalfConfigsNtB4_11GaussianPod13into_gaussianB8_
FNDA:1,_RNvYNtNtNtCs3bDQ3tnbls4_14wgpu_3dgs_core6buffer8gaussian37GaussianPodWithShHalfCov3dHalfConfigsNtB4_11GaussianPod13wesl_featuresB8_
FNDA:3,_RNvYNtNtNtCs3bDQ3tnbls4_14wgpu_3dgs_core6buffer8gaussian37GaussianPodWithShHalfCov3dHalfConfigsNtB4_11GaussianPod8featuresB8_
FNDA:2,_RNvYNtNtNtCs3bDQ3tnbls4_14wgpu_3dgs_core6buffer8gaussian37GaussianPodWithShNoneCov3dHalfConfigsNtB4_11GaussianPod13from_gaussianB8_
FNDA:1,_RNvYNtNtNtCs3bDQ3tnbls4_14wgpu_3dgs_core6buffer8gaussian37GaussianPodWithShNoneCov3dHalfConfigsNtB4_11GaussianPod13into_gaussianB8_
FNDA:1,_RNvYNtNtNtCs3bDQ3tnbls4_14wgpu_3dgs_core6buffer8gaussian37GaussianPodWithShNoneCov3dHalfConfigsNtB4_11GaussianPod13wesl_featuresB8_
FNDA:3,_RNvYNtNtNtCs3bDQ3tnbls4_14wgpu_3dgs_core6buffer8gaussian37GaussianPodWithShNoneCov3dHalfConfigsNtB4_11GaussianPod8featuresB8_
FNDA:2,_RNvYNtNtNtCs3bDQ3tnbls4_14wgpu_3dgs_core6buffer8gaussian38GaussianPodWithShNorm8Cov3dHalfConfigsNtB4_11GaussianPod13from_gaussianB8_
FNDA:1,_RNvYNtNtNtCs3bDQ3tnbls4_14wgpu_3dgs_core6buffer8gaussian38GaussianPodWithShNorm8Cov3dHalfConfigsNtB4_11GaussianPod13into_gaussianB8_
FNDA:1,_RNvYNtNtNtCs3bDQ3tnbls4_14wgpu_3dgs_core6buffer8gaussian38GaussianPodWithShNorm8Cov3dHalfConfigsNtB4_11GaussianPod13wesl_featuresB8_
FNDA:3,_RNvYNtNtNtCs3bDQ3tnbls4_14wgpu_3dgs_core6buffer8gaussian38GaussianPodWithShNorm8Cov3dHalfConfigsNtB4_11GaussianPod8featuresB8_
FNDA:2,_RNvYNtNtNtCs3bDQ3tnbls4_14wgpu_3dgs_core6buffer8gaussian39GaussianPodWithShHalfCov3dSingleConfigsNtB4_11GaussianPod13from_gaussianB8_
FNDA:1,_RNvYNtNtNtCs3bDQ3tnbls4_14wgpu_3dgs_core6buffer8gaussian39GaussianPodWithShHalfCov3dSingleConfigsNtB4_11GaussianPod13into_gaussianB8_
FNDA:1,_RNvYNtNtNtCs3bDQ3tnbls4_14wgpu_3dgs_core6buffer8gaussian39GaussianPodWithShHalfCov3dSingleConfigsNtB4_11GaussianPod13wesl_featuresB8_
FNDA:3,_RNvYNtNtNtCs3bDQ3tnbls4_14wgpu_3dgs_core6buffer8gaussian39GaussianPodWithShHalfCov3dSingleConfigsNtB4_11GaussianPod8featuresB8_
FNDA:2,_RNvYNtNtNtCs3bDQ3tnbls4_14wgpu_3dgs_core6buffer8gaussian39GaussianPodWithShNoneCov3dSingleConfigsNtB4_11GaussianPod13from_gaussianB8_
FNDA:1,_RNvYNtNtNtCs3bDQ3tnbls4_14wgpu_3dgs_core6buffer8gaussian39GaussianPodWithShNoneCov3dSingleConfigsNtB4_11GaussianPod13into_gaussianB8_
FNDA:1,_RNvYNtNtNtCs3bDQ3tnbls4_14wgpu_3dgs_core6buffer8gaussian39GaussianPodWithShNoneCov3dSingleConfigsNtB4_11GaussianPod13wesl_featuresB8_
FNDA:3,_RNvYNtNtNtCs3bDQ3tnbls4_14wgpu_3dgs_core6buffer8gaussian39GaussianPodWithShNoneCov3dSingleConfigsNtB4_11GaussianPod8featuresB8_
FNDA:2,_RNvYNtNtNtCs3bDQ3tnbls4_14wgpu_3dgs_core6buffer8gaussian39GaussianPodWithShSingleCov3dHalfConfigsNtB4_11GaussianPod13from_gaussianB8_
FNDA:1,_RNvYNtNtNtCs3bDQ3tnbls4_14wgpu_3dgs_core6buffer8gaussian39GaussianPodWithShSingleCov3dHalfConfigsNtB4_11GaussianPod13into_gaussianB8_
FNDA:1,_RNvYNtNtNtCs3bDQ3tnbls4_14wgpu_3dgs_core6buffer8gaussian39GaussianPodWithShSingleCov3dHalfConfigsNtB4_11GaussianPod13wesl_featuresB8_
FNDA:3,_RNvYNtNtNtCs3bDQ3tnbls4_14wgpu_3dgs_core6buffer8gaussian39GaussianPodWithShSingleCov3dHalfConfigsNtB4_11GaussianPod8featuresB8_
FNDA:2,_RNvYNtNtNtCs3bDQ3tnbls4_14wgpu_3dgs_core6buffer8gaussian40GaussianPodWithShNorm8Cov3dSingleConfigsNtB4_11GaussianPod13from_gaussianB8_
FNDA:1,_RNvYNtNtNtCs3bDQ3tnbls4_14wgpu_3dgs_core6buffer8gaussian40GaussianPodWithShNorm8Cov3dSingleConfigsNtB4_11GaussianPod13into_gaussianB8_
FNDA:1,_RNvYNtNtNtCs3bDQ3tnbls4_14wgpu_3dgs_core6buffer8gaussian40GaussianPodWithShNorm8Cov3dSingleConfigsNtB4_11GaussianPod13wesl_featuresB8_
FNDA:3,_RNvYNtNtNtCs3bDQ3tnbls4_14wgpu_3dgs_core6buffer8gaussian40GaussianPodWithShNorm8Cov3dSingleConfigsNtB4_11GaussianPod8featuresB8_
FNDA:2,_RNvYNtNtNtCs3bDQ3tnbls4_14wgpu_3dgs_core6buffer8gaussian41GaussianPodWithShHalfCov3dRotScaleConfigsNtB4_11GaussianPod13from_gaussianB8_
FNDA:1,_RNvYNtNtNtCs3bDQ3tnbls4_14wgpu_3dgs_core6buffer8gaussian41GaussianPodWithShHalfCov3dRotScaleConfigsNtB4_11GaussianPod13into_gaussianB8_
FNDA:1,_RNvYNtNtNtCs3bDQ3tnbls4_14wgpu_3dgs_core6buffer8gaussian41GaussianPodWithShHalfCov3dRotScaleConfigsNtB4_11GaussianPod13wesl_featuresB8_
FNDA:3,_RNvYNtNtNtCs3bDQ3tnbls4_14wgpu_3dgs_core6buffer8gaussian41GaussianPodWithShHalfCov3dRotScaleConfigsNtB4_11GaussianPod8featuresB8_
FNDA:2,_RNvYNtNtNtCs3bDQ3tnbls4_14wgpu_3dgs_core6buffer8gaussian41GaussianPodWithShNoneCov3dRotScaleConfigsNtB4_11GaussianPod13from_gaussianB8_
FNDA:1,_RNvYNtNtNtCs3bDQ3tnbls4_14wgpu_3dgs_core6buffer8gaussian41GaussianPodWithShNoneCov3dRotScaleConfigsNtB4_11GaussianPod13into_gaussianB8_
FNDA:1,_RNvYNtNtNtCs3bDQ3tnbls4_14wgpu_3dgs_core6buffer8gaussian41GaussianPodWithShNoneCov3dRotScaleConfigsNtB4_11GaussianPod13wesl_featuresB8_
FNDA:3,_RNvYNtNtNtCs3bDQ3tnbls4_14wgpu_3dgs_core6buffer8gaussian41GaussianPodWithShNoneCov3dRotScaleConfigsNtB4_11GaussianPod8featuresB8_
FNDA:2,_RNvYNtNtNtCs3bDQ3tnbls4_14wgpu_3dgs_core6buffer8gaussian41GaussianPodWithShSingleCov3dSingleConfigsNtB4_11GaussianPod13from_gaussianB8_
FNDA:1,_RNvYNtNtNtCs3bDQ3tnbls4_14wgpu_3dgs_core6buffer8gaussian41GaussianPodWithShSingleCov3dSingleConfigsNtB4_11GaussianPod13into_gaussianB8_
FNDA:1,_RNvYNtNtNtCs3bDQ3tnbls4_14wgpu_3dgs_core6buffer8gaussian41GaussianPodWithShSingleCov3dSingleConfigsNtB4_11GaussianPod13wesl_featuresB8_
FNDA:3,_RNvYNtNtNtCs3bDQ3tnbls4_14wgpu_3dgs_core6buffer8gaussian41GaussianPodWithShSingleCov3dSingleConfigsNtB4_11GaussianPod8featuresB8_
FNDA:2,_RNvYNtNtNtCs3bDQ3tnbls4_14wgpu_3dgs_core6buffer8gaussian42GaussianPodWithShNorm8Cov3dRotScaleConfigsNtB4_11GaussianPod13from_gaussianB8_
FNDA:1,_RNvYNtNtNtCs3bDQ3tnbls4_14wgpu_3dgs_core6buffer8gaussian42GaussianPodWithShNorm8Cov3dRotScaleConfigsNtB4_11GaussianPod13into_gaussianB8_
FNDA:1,_RNvYNtNtNtCs3bDQ3tnbls4_14wgpu_3dgs_core6buffer8gaussian42GaussianPodWithShNorm8Cov3dRotScaleConfigsNtB4_11GaussianPod13wesl_featuresB8_
FNDA:3,_RNvYNtNtNtCs3bDQ3tnbls4_14wgpu_3dgs_core6buffer8gaussian42GaussianPodWithShNorm8Cov3dRotScaleConfigsNtB4_11GaussianPod8featuresB8_
FNDA:2,_RNvYNtNtNtCs3bDQ3tnbls4_14wgpu_3dgs_core6buffer8gaussian43GaussianPodWithShSingleCov3dRotScaleConfigsNtB4_11GaussianPod13from_gaussianB8_
FNDA:1,_RNvYNtNtNtCs3bDQ3tnbls4_14wgpu_3dgs_core6buffer8gaussian43GaussianPodWithShSingleCov3dRotScaleConfigsNtB4_11GaussianPod13into_gaussianB8_
FNDA:1,_RNvYNtNtNtCs3bDQ3tnbls4_14wgpu_3dgs_core6buffer8gaussian43GaussianPodWithShSingleCov3dRotScaleConfigsNtB4_11GaussianPod13wesl_featuresB8_
FNDA:3,_RNvYNtNtNtCs3bDQ3tnbls4_14wgpu_3dgs_core6buffer8gaussian43GaussianPodWithShSingleCov3dRotScaleConfigsNtB4_11GaussianPod8featuresB8_
FNDA:2,_RNvXs12_NtNtCs3bDQ3tnbls4_14wgpu_3dgs_core6buffer8gaussianNtB6_42GaussianPodWithShNorm8Cov3dRotScaleConfigsINtNtCsmHtFwzCQ9E_4core7convert4FromRNtNtBa_8gaussian8GaussianE4from
FNDA:2,_RNvXs1G_NtNtCs3bDQ3tnbls4_14wgpu_3dgs_core6buffer8gaussianNtB6_39GaussianPodWithShNoneCov3dSingleConfigsINtNtCsmHtFwzCQ9E_4core7convert4FromRNtNtBa_8gaussian8GaussianE4from
FNDA:2,_RNvXs1Q_NtNtCs3bDQ3tnbls4_14wgpu_3dgs_core6buffer8gaussianNtB6_37GaussianPodWithShNoneCov3dHalfConfigsINtNtCsmHtFwzCQ9E_4core7convert4FromRNtNtBa_8gaussian8GaussianE4from
FNDA:2,_RNvXs1c_NtNtCs3bDQ3tnbls4_14wgpu_3dgs_core6buffer8gaussianNtB6_40GaussianPodWithShNorm8Cov3dSingleConfigsINtNtCsmHtFwzCQ9E_4core7convert4FromRNtNtBa_8gaussian8GaussianE4from
FNDA:2,_RNvXs1m_NtNtCs3bDQ3tnbls4_14wgpu_3dgs_core6buffer8gaussianNtB6_38GaussianPodWithShNorm8Cov3dHalfConfigsINtNtCsmHtFwzCQ9E_4core7convert4FromRNtNtBa_8gaussian8GaussianE4from
FNDA:2,_RNvXs1w_NtNtCs3bDQ3tnbls4_14wgpu_3dgs_core6buffer8gaussianNtB6_41GaussianPodWithShNoneCov3dRotScaleConfigsINtNtCsmHtFwzCQ9E_4core7convert4FromRNtNtBa_8gaussian8GaussianE4from
FNDA:2,_RNvXs4_NtNtCs3bDQ3tnbls4_14wgpu_3dgs_core6buffer8gaussianNtB5_43GaussianPodWithShSingleCov3dRotScaleConfigsINtNtCsmHtFwzCQ9E_4core7convert4FromRNtNtB9_8gaussian8GaussianE4from
FNDA:2,_RNvXsI_NtNtCs3bDQ3tnbls4_14wgpu_3dgs_core6buffer8gaussianNtB5_39GaussianPodWithShHalfCov3dSingleConfigsINtNtCsmHtFwzCQ9E_4core7convert4FromRNtNtB9_8gaussian8GaussianE4from
FNDA:2,_RNvXsS_NtNtCs3bDQ3tnbls4_14wgpu_3dgs_core6buffer8gaussianNtB5_37GaussianPodWithShHalfCov3dHalfConfigsINtNtCsmHtFwzCQ9E_4core7convert4FromRNtNtB9_8gaussian8GaussianE4from
FNDA:2,_RNvXse_NtNtCs3bDQ3tnbls4_14wgpu_3dgs_core6buffer8gaussianNtB5_41GaussianPodWithShSingleCov3dSingleConfigsINtNtCsmHtFwzCQ9E_4core7convert4FromRNtNtB9_8gaussian8GaussianE4from
FNDA:2,_RNvXso_NtNtCs3bDQ3tnbls4_14wgpu_3dgs_core6buffer8gaussianNtB5_39GaussianPodWithShSingleCov3dHalfConfigsINtNtCsmHtFwzCQ9E_4core7convert4FromRNtNtB9_8gaussian8GaussianE4from
FNDA:2,_RNvXsy_NtNtCs3bDQ3tnbls4_14wgpu_3dgs_core6buffer8gaussianNtB5_41GaussianPodWithShHalfCov3dRotScaleConfigsINtNtCsmHtFwzCQ9E_4core7convert4FromRNtNtB9_8gaussian8GaussianE4from
FNDA:1,_RNvXs13_NtNtCs3bDQ3tnbls4_14wgpu_3dgs_core6buffer8gaussianNtNtBa_8gaussian8GaussianINtNtCsmHtFwzCQ9E_4core7convert4FromNtB6_42GaussianPodWithShNorm8Cov3dRotScaleConfigsE4from
FNDA:1,_RNvXs1H_NtNtCs3bDQ3tnbls4_14wgpu_3dgs_core6buffer8gaussianNtNtBa_8gaussian8GaussianINtNtCsmHtFwzCQ9E_4core7convert4FromNtB6_39GaussianPodWithShNoneCov3dSingleConfigsE4from
FNDA:1,_RNvXs1R_NtNtCs3bDQ3tnbls4_14wgpu_3dgs_core6buffer8gaussianNtNtBa_8gaussian8GaussianINtNtCsmHtFwzCQ9E_4core7convert4FromNtB6_37GaussianPodWithShNoneCov3dHalfConfigsE4from
FNDA:1,_RNvXs1d_NtNtCs3bDQ3tnbls4_14wgpu_3dgs_core6buffer8gaussianNtNtBa_8gaussian8GaussianINtNtCsmHtFwzCQ9E_4core7convert4FromNtB6_40GaussianPodWithShNorm8Cov3dSingleConfigsE4from
FNDA:1,_RNvXs1n_NtNtCs3bDQ3tnbls4_14wgpu_3dgs_core6buffer8gaussianNtNtBa_8gaussian8GaussianINtNtCsmHtFwzCQ9E_4core7convert4FromNtB6_38GaussianPodWithShNorm8Cov3dHalfConfigsE4from
FNDA:1,_RNvXs1x_NtNtCs3bDQ3tnbls4_14wgpu_3dgs_core6buffer8gaussianNtNtBa_8gaussian8GaussianINtNtCsmHtFwzCQ9E_4core7convert4FromNtB6_41GaussianPodWithShNoneCov3dRotScaleConfigsE4from
FNDA:1,_RNvXs5_NtNtCs3bDQ3tnbls4_14wgpu_3dgs_core6buffer8gaussianNtNtB9_8gaussian8GaussianINtNtCsmHtFwzCQ9E_4core7convert4FromNtB5_43GaussianPodWithShSingleCov3dRotScaleConfigsE4from
FNDA:1,_RNvXsJ_NtNtCs3bDQ3tnbls4_14wgpu_3dgs_core6buffer8gaussianNtNtB9_8gaussian8GaussianINtNtCsmHtFwzCQ9E_4core7convert4FromNtB5_39GaussianPodWithShHalfCov3dSingleConfigsE4from
FNDA:1,_RNvXsT_NtNtCs3bDQ3tnbls4_14wgpu_3dgs_core6buffer8gaussianNtNtB9_8gaussian8GaussianINtNtCsmHtFwzCQ9E_4core7convert4FromNtB5_37GaussianPodWithShHalfCov3dHalfConfigsE4from
FNDA:1,_RNvXsf_NtNtCs3bDQ3tnbls4_14wgpu_3dgs_core6buffer8gaussianNtNtB9_8gaussian8GaussianINtNtCsmHtFwzCQ9E_4core7convert4FromNtB5_41GaussianPodWithShSingleCov3dSingleConfigsE4from
FNDA:1,_RNvXsp_NtNtCs3bDQ3tnbls4_14wgpu_3dgs_core6buffer8gaussianNtNtB9_8gaussian8GaussianINtNtCsmHtFwzCQ9E_4core7convert4FromNtB5_39GaussianPodWithShSingleCov3dHalfConfigsE4from
FNDA:1,_RNvXsz_NtNtCs3bDQ3tnbls4_14wgpu_3dgs_core6buffer8gaussianNtNtB9_8gaussian8GaussianINtNtCsmHtFwzCQ9E_4core7convert4FromNtB5_41GaussianPodWithShHalfCov3dRotScaleConfigsE4from
FNDA:7,_RNCNvNtNtNtNtCs3bDQ3tnbls4_14wgpu_3dgs_core6buffer8gaussian5tests3pods_46test_none_half_wesl_features_should_be_correct0Bb_
FNDA:7,_RNCNvNtNtNtNtCs3bDQ3tnbls4_14wgpu_3dgs_core6buffer8gaussian5tests3pods_47test_norm8_half_wesl_features_should_be_correct0Bb_
FNDA:7,_RNCNvNtNtNtNtCs3bDQ3tnbls4_14wgpu_3dgs_core6buffer8gaussian5tests3pods_48test_none_single_wesl_features_should_be_correct0Bb_
FNDA:7,_RNCNvNtNtNtNtCs3bDQ3tnbls4_14wgpu_3dgs_core6buffer8gaussian5tests3pods_48test_single_half_wesl_features_should_be_correct0Bb_
FNDA:7,_RNCNvNtNtNtNtCs3bDQ3tnbls4_14wgpu_3dgs_core6buffer8gaussian5tests3pods_49test_norm8_single_wesl_features_should_be_correct0Bb_
FNDA:7,_RNCNvNtNtNtNtCs3bDQ3tnbls4_14wgpu_3dgs_core6buffer8gaussian5tests3pods_50test_half_rotscale_wesl_features_should_be_correct0Bb_
FNDA:7,_RNCNvNtNtNtNtCs3bDQ3tnbls4_14wgpu_3dgs_core6buffer8gaussian5tests3pods_50test_none_rotscale_wesl_features_should_be_correct0Bb_
FNDA:7,_RNCNvNtNtNtNtCs3bDQ3tnbls4_14wgpu_3dgs_core6buffer8gaussian5tests3pods_50test_single_single_wesl_features_should_be_correct0Bb_
FNDA:7,_RNCNvNtNtNtNtCs3bDQ3tnbls4_14wgpu_3dgs_core6buffer8gaussian5tests3pods_51test_norm8_rotscale_wesl_features_should_be_correct0Bb_
FNDA:7,_RNCNvNtNtNtNtCs3bDQ3tnbls4_14wgpu_3dgs_core6buffer8gaussian5tests3pods_51test_test_half_half_wesl_features_should_be_correct0Bb_
FNDA:7,_RNCNvNtNtNtNtCs3bDQ3tnbls4_14wgpu_3dgs_core6buffer8gaussian5tests3pods_52test_single_rotscale_wesl_features_should_be_correct0Bb_
FNDA:7,_RNCNvNtNtNtNtCs3bDQ3tnbls4_14wgpu_3dgs_core6buffer8gaussian5tests3pods_53test_test_half_single_wesl_features_should_be_correct0Bb_
FNDA:0,_RINvMNtNtCs3bDQ3tnbls4_14wgpu_3dgs_core6buffer8gaussianINtB3_15GaussiansBufferpE14new_with_usagepEB7_
FNDA:0,_RINvMNtNtCs3bDQ3tnbls4_14wgpu_3dgs_core6buffer8gaussianINtB3_15GaussiansBufferpE3newpEB7_
FNDA:0,_RINvMNtNtCs3bDQ3tnbls4_14wgpu_3dgs_core6buffer8gaussianINtB3_15GaussiansBufferpE6updatepEB7_
FNDA:0,_RNCINvMNtNtCs3bDQ3tnbls4_14wgpu_3dgs_core6buffer8gaussianINtB5_15GaussiansBufferpE14new_with_usagepE0B9_
FNDA:0,_RNCINvMNtNtCs3bDQ3tnbls4_14wgpu_3dgs_core6buffer8gaussianINtB5_15GaussiansBufferpE3newpE0B9_
FNDA:0,_RNCINvMNtNtCs3bDQ3tnbls4_14wgpu_3dgs_core6buffer8gaussianINtB5_15GaussiansBufferpE6updatepE0B9_
FNDA:0,_RNCNCNvMNtNtCs3bDQ3tnbls4_14wgpu_3dgs_core6buffer8gaussianINtB6_15GaussiansBufferpE18download_gaussians00Ba_
FNDA:0,_RNCNvMNtNtCs3bDQ3tnbls4_14wgpu_3dgs_core6buffer8gaussianINtB4_15GaussiansBufferpE18download_gaussians0B8_
FNDA:0,_RNvMNtNtCs3bDQ3tnbls4_14wgpu_3dgs_core6buffer8gaussianINtB2_15GaussiansBufferpE12update_rangeB6_
FNDA:0,_RNvMNtNtCs3bDQ3tnbls4_14wgpu_3dgs_core6buffer8gaussianINtB2_15GaussiansBufferpE13new_with_podsB6_
FNDA:0,_RNvMNtNtCs3bDQ3tnbls4_14wgpu_3dgs_core6buffer8gaussianINtB2_15GaussiansBufferpE15update_with_podB6_
FNDA:0,_RNvMNtNtCs3bDQ3tnbls4_14wgpu_3dgs_core6buffer8gaussianINtB2_15GaussiansBufferpE18download_gaussiansB6_
FNDA:0,_RNvMNtNtCs3bDQ3tnbls4_14wgpu_3dgs_core6buffer8gaussianINtB2_15GaussiansBufferpE20new_empty_with_usageB6_
FNDA:0,_RNvMNtNtCs3bDQ3tnbls4_14wgpu_3dgs_core6buffer8gaussianINtB2_15GaussiansBufferpE21update_range_with_podB6_
FNDA:0,_RNvMNtNtCs3bDQ3tnbls4_14wgpu_3dgs_core6buffer8gaussianINtB2_15GaussiansBufferpE23new_with_pods_and_usageB6_
FNDA:0,_RNvMNtNtCs3bDQ3tnbls4_14wgpu_3dgs_core6buffer8gaussianINtB2_15GaussiansBufferpE3lenB6_
FNDA:0,_RNvMNtNtCs3bDQ3tnbls4_14wgpu_3dgs_core6buffer8gaussianINtB2_15GaussiansBufferpE8is_emptyB6_
FNDA:0,_RNvMNtNtCs3bDQ3tnbls4_14wgpu_3dgs_core6buffer8gaussianINtB2_15GaussiansBufferpE9new_emptyB6_
FNDA:0,_RNvXININtNtCs3bDQ3tnbls4_14wgpu_3dgs_core6buffer8gaussians0_0pENtNtNtCsebiihMPZ3Ak_4wgpu3api6buffer6BufferINtNtCsmHtFwzCQ9E_4core7convert4FromINtB5_15GaussiansBufferpEE4fromB9_
FNDA:0,_RNvXININtNtCs3bDQ3tnbls4_14wgpu_3dgs_core6buffer8gaussians1_0pEINtB5_15GaussiansBufferpEINtNtCsmHtFwzCQ9E_4core7convert7TryFromNtNtNtCsebiihMPZ3Ak_4wgpu3api6buffer6BufferE8try_fromB9_
FNDA:0,_RNvXININtNtCs3bDQ3tnbls4_14wgpu_3dgs_core6buffer8gaussians_0pEINtB5_15GaussiansBufferpENtB7_13BufferWrapper6bufferB9_
FNDA:0,_RINvMNtNtCsap2RCL79A4I_14wgpu_3dgs_core6buffer8gaussianINtB3_15GaussiansBufferNtB3_37GaussianPodWithShHalfCov3dHalfConfigsE3newNtNtNtB7_13source_format3ply12PlyGaussiansECskiFSrz17jIX_8read_ply
FNDA:0,_RNCINvMNtNtCsap2RCL79A4I_14wgpu_3dgs_core6buffer8gaussianINtB5_15GaussiansBufferNtB5_37GaussianPodWithShHalfCov3dHalfConfigsE3newNtNtNtB9_13source_format3ply12PlyGaussiansE0CskiFSrz17jIX_8read_ply
FNDA:0,_RNvMNtNtCsap2RCL79A4I_14wgpu_3dgs_core6buffer8gaussianINtB2_15GaussiansBufferNtB2_37GaussianPodWithShHalfCov3dHalfConfigsE13new_with_podsCskiFSrz17jIX_8read_ply
FNDA:0,_RNvMNtNtCsap2RCL79A4I_14wgpu_3dgs_core6buffer8gaussianINtB2_15GaussiansBufferNtB2_37GaussianPodWithShHalfCov3dHalfConfigsE23new_with_pods_and_usageCskiFSrz17jIX_8read_ply
FNDA:0,_RNvMNtNtCsap2RCL79A4I_14wgpu_3dgs_core6buffer8gaussianINtB2_15GaussiansBufferNtB2_37GaussianPodWithShHalfCov3dHalfConfigsE3lenCskiFSrz17jIX_8read_ply
FNDA:0,_RNvXs_NtNtCsap2RCL79A4I_14wgpu_3dgs_core6buffer8gaussianINtB4_15GaussiansBufferNtB4_37GaussianPodWithShHalfCov3dHalfConfigsENtB6_13BufferWrapper6bufferCskiFSrz17jIX_8read_ply
FNDA:0,_RNvYNtNtNtCsap2RCL79A4I_14wgpu_3dgs_core6buffer8gaussian37GaussianPodWithShHalfCov3dHalfConfigsNtB4_11GaussianPod13from_gaussianCskiFSrz17jIX_8read_ply
FNDA:1,_RINvMNtNtCsap2RCL79A4I_14wgpu_3dgs_core6buffer8gaussianINtB3_15GaussiansBufferNtB3_37GaussianPodWithShHalfCov3dHalfConfigsE3newNtNtNtB7_13source_format3spz12SpzGaussiansECs3RzkXnBrBnu_8read_spz
FNDA:9,_RNCINvMNtNtCsap2RCL79A4I_14wgpu_3dgs_core6buffer8gaussianINtB5_15GaussiansBufferNtB5_37GaussianPodWithShHalfCov3dHalfConfigsE3newNtNtNtB9_13source_format3spz12SpzGaussiansE0Cs3RzkXnBrBnu_8read_spz
FNDA:1,_RNvMNtNtCsap2RCL79A4I_14wgpu_3dgs_core6buffer8gaussianINtB2_15GaussiansBufferNtB2_37GaussianPodWithShHalfCov3dHalfConfigsE13new_with_podsCs3RzkXnBrBnu_8read_spz
FNDA:1,_RNvMNtNtCsap2RCL79A4I_14wgpu_3dgs_core6buffer8gaussianINtB2_15GaussiansBufferNtB2_37GaussianPodWithShHalfCov3dHalfConfigsE23new_with_pods_and_usageCs3RzkXnBrBnu_8read_spz
FNDA:1,_RNvMNtNtCsap2RCL79A4I_14wgpu_3dgs_core6buffer8gaussianINtB2_15GaussiansBufferNtB2_37GaussianPodWithShHalfCov3dHalfConfigsE3lenCs3RzkXnBrBnu_8read_spz
FNDA:1,_RNvXs_NtNtCsap2RCL79A4I_14wgpu_3dgs_core6buffer8gaussianINtB4_15GaussiansBufferNtB4_37GaussianPodWithShHalfCov3dHalfConfigsENtB6_13BufferWrapper6bufferCs3RzkXnBrBnu_8read_spz
FNDA:9,_RNvYNtNtNtCsap2RCL79A4I_14wgpu_3dgs_core6buffer8gaussian37GaussianPodWithShHalfCov3dHalfConfigsNtB4_11GaussianPod13from_gaussianCs3RzkXnBrBnu_8read_spz
FNF:35
FNH:35
DA:21,37
DA:22,37
DA:23,37
DA:24,37
DA:25,37
DA:26,117
DA:27,37
DA:28,37
DA:30,37
DA:33,91
DA:34,91
DA:35,91
DA:36,91
DA:37,91
DA:38,91
DA:39,91
DA:40,91
DA:41,91
DA:42,427
DA:43,91
DA:44,91
DA:45,91
DA:47,91
DA:50,49
DA:51,49
DA:52,49
DA:56,152
DA:57,152
DA:58,152
DA:59,152
DA:60,152
DA:61,152
DA:62,152
DA:63,152
DA:64,152
DA:65,152
DA:67,152
DA:68,152
DA:71,24
DA:72,24
DA:73,24
DA:76,36
DA:77,36
DA:78,36
DA:79,36
DA:80,36
DA:81,36
DA:82,36
DA:83,36
DA:84,36
DA:85,36
DA:86,36
DA:88,36
DA:89,36
DA:92,109
DA:93,109
DA:94,109
DA:97,24
DA:98,24
DA:99,24
DA:104,24
DA:105,24
DA:106,24
DA:107,24
DA:108,24
DA:109,24
DA:110,24
DA:111,24
DA:112,24
DA:113,60
DA:114,24
DA:115,24
DA:117,24
DA:122,24
DA:123,24
DA:124,24
DA:125,24
DA:126,24
DA:127,24
DA:128,12
DA:129,12
DA:130,12
DA:131,12
DA:132,12
DA:134,12
DA:136,12
DA:137,24
DA:142,24
DA:143,24
DA:144,24
DA:145,24
DA:146,24
DA:147,24
DA:148,24
DA:149,24
DA:150,24
DA:151,24
DA:152,24
DA:153,24
DA:154,24
DA:155,24
DA:157,24
DA:162,24
DA:163,24
DA:164,24
DA:165,24
DA:166,24
DA:167,24
DA:168,24
DA:169,12
DA:170,12
DA:171,12
DA:172,12
DA:173,12
DA:174,12
DA:176,12
DA:177,12
DA:178,12
DA:179,12
DA:182,12
DA:183,24
DA:186,12
DA:187,12
DA:188,12
DA:189,12
DA:190,12
DA:191,12
DA:192,12
DA:193,12
DA:194,12
DA:202,254
DA:203,254
DA:204,254
DA:208,12
DA:209,12
DA:210,12
DA:216,24
DA:217,24
DA:218,24
DA:219,24
DA:221,12
DA:222,12
DA:223,12
DA:224,12
DA:225,12
DA:227,12
DA:228,24
DA:258,12
DA:259,12
DA:260,12
DA:263,748
DA:264,748
DA:265,748
DA:270,43
DA:271,43
DA:272,43
DA:273,43
DA:274,43
DA:275,43
DA:276,43
DA:277,43
DA:278,43
DA:279,43
DA:280,301
DA:282,301
DA:283,301
DA:285,301
DA:286,43
DA:289,19
DA:291,19
DA:292,19
DA:293,133
DA:294,19
DA:295,19
DA:297,19
DA:315,1012
DA:317,1012
DA:318,1012
DA:319,1012
DA:323,1012
DA:326,1012
DA:329,1012
DA:331,1012
DA:332,1012
DA:333,1012
DA:334,1012
DA:335,1012
DA:336,1012
DA:337,1012
DA:338,1012
DA:342,39
DA:344,39
DA:347,39
DA:350,39
DA:353,39
DA:355,39
DA:356,39
DA:357,39
DA:358,39
DA:359,39
DA:360,39
DA:361,39
DA:362,39
DA:395,9
DA:396,9
DA:397,9
DA:398,9
DA:399,9
DA:400,9
DA:401,9
DA:402,9
DA:404,9
DA:405,9
DA:411,3
DA:412,3
DA:413,3
DA:414,3
DA:415,3
DA:416,3
DA:417,3
DA:418,3
DA:420,3
DA:422,3
DA:423,3
DA:424,3
DA:426,3
DA:428,3
DA:430,3
DA:431,3
DA:432,3
DA:435,3
DA:444,12
DA:445,12
DA:446,12
DA:447,12
DA:448,12
DA:449,12
DA:450,12
DA:451,12
DA:453,12
DA:455,12
DA:456,12
DA:457,12
DA:458,12
DA:461,12
DA:462,12
DA:463,12
DA:464,12
DA:468,12
DA:473,12
DA:474,12
DA:476,96
DA:477,84
DA:478,72
DA:480,24
DA:482,60
DA:485,12
DA:488,12
DA:489,12
DA:490,12
DA:492,96
DA:493,84
DA:494,84
DA:495,84
DA:496,84
DA:497,84
DA:499,84
DA:501,0
DA:502,0
DA:505,12
BRF:0
BRH:0
LF:278
LH:276
end_of_record
SF:C:\Users\s2010\Me\Codes\Rust\wgpu-3dgs-core\src\buffer\gaussian_transform.rs
FN:37,_RNvMNtNtCsap2RCL79A4I_14wgpu_3dgs_core6buffer18gaussian_transformNtB2_16GaussianShDegree13new_unchecked
FN:42,_RNvMNtNtCsap2RCL79A4I_14wgpu_3dgs_core6buffer18gaussian_transformNtB2_16GaussianShDegree3get
FN:25,_RNvMNtNtCsap2RCL79A4I_14wgpu_3dgs_core6buffer18gaussian_transformNtB2_16GaussianShDegree3new
FN:75,_RNvMs0_NtNtCsap2RCL79A4I_14wgpu_3dgs_core6buffer18gaussian_transformNtB5_17GaussianMaxStdDev13new_unchecked
FN:83,_RNvMs0_NtNtCsap2RCL79A4I_14wgpu_3dgs_core6buffer18gaussian_transformNtB5_17GaussianMaxStdDev3get
FN:63,_RNvMs0_NtNtCsap2RCL79A4I_14wgpu_3dgs_core6buffer18gaussian_transformNtB5_17GaussianMaxStdDev3new
FN:88,_RNvMs0_NtNtCsap2RCL79A4I_14wgpu_3dgs_core6buffer18gaussian_transformNtB5_17GaussianMaxStdDev5as_u8
FN:136,_RNvMs2_NtNtCsap2RCL79A4I_14wgpu_3dgs_core6buffer18gaussian_transformNtB5_23GaussianTransformBuffer15update_with_pod
FN:109,_RNvMs2_NtNtCsap2RCL79A4I_14wgpu_3dgs_core6buffer18gaussian_transformNtB5_23GaussianTransformBuffer3new
FN:120,_RNvMs2_NtNtCsap2RCL79A4I_14wgpu_3dgs_core6buffer18gaussian_transformNtB5_23GaussianTransformBuffer6update
FN:177,_RNvMs7_NtNtCsap2RCL79A4I_14wgpu_3dgs_core6buffer18gaussian_transformNtB5_20GaussianTransformPod3new
FN:94,_RNvXs1_NtNtCsap2RCL79A4I_14wgpu_3dgs_core6buffer18gaussian_transformNtB5_17GaussianMaxStdDevNtNtCsmHtFwzCQ9E_4core7default7Default7default
FN:142,_RNvXs3_NtNtCsap2RCL79A4I_14wgpu_3dgs_core6buffer18gaussian_transformNtB5_23GaussianTransformBufferNtB7_13BufferWrapper6buffer
FN:156,_RNvXs5_NtNtCsap2RCL79A4I_14wgpu_3dgs_core6buffer18gaussian_transformNtB5_23GaussianTransformBufferINtNtCsmHtFwzCQ9E_4core7convert7TryFromNtNtNtCsebiihMPZ3Ak_4wgpu3api6buffer6BufferE8try_from
FN:197,_RNvXs8_NtNtCsap2RCL79A4I_14wgpu_3dgs_core6buffer18gaussian_transformNtB5_20GaussianTransformPodNtNtCsmHtFwzCQ9E_4core7default7Default7default
FN:48,_RNvXs_NtNtCsap2RCL79A4I_14wgpu_3dgs_core6buffer18gaussian_transformNtB4_16GaussianShDegreeNtNtCsmHtFwzCQ9E_4core7default7Default7default
FN:148,_RNvXs4_NtNtCsap2RCL79A4I_14wgpu_3dgs_core6buffer18gaussian_transformNtNtNtCsebiihMPZ3Ak_4wgpu3api6buffer6BufferINtNtCsmHtFwzCQ9E_4core7convert4FromNtB5_23GaussianTransformBufferE4from
FN:157,_RNCNvXs5_NtNtCsap2RCL79A4I_14wgpu_3dgs_core6buffer18gaussian_transformNtB7_23GaussianTransformBufferINtNtCsmHtFwzCQ9E_4core7convert7TryFromNtNtNtCsebiihMPZ3Ak_4wgpu3api6buffer6BufferE8try_from0Bb_
FN:157,_RNCNvXs5_NtNtCs3bDQ3tnbls4_14wgpu_3dgs_core6buffer18gaussian_transformNtB7_23GaussianTransformBufferINtNtCsmHtFwzCQ9E_4core7convert7TryFromNtNtNtCsebiihMPZ3Ak_4wgpu3api6buffer6BufferE8try_from0Bb_
FN:37,_RNvMNtNtCs3bDQ3tnbls4_14wgpu_3dgs_core6buffer18gaussian_transformNtB2_16GaussianShDegree13new_unchecked
FN:42,_RNvMNtNtCs3bDQ3tnbls4_14wgpu_3dgs_core6buffer18gaussian_transformNtB2_16GaussianShDegree3get
FN:25,_RNvMNtNtCs3bDQ3tnbls4_14wgpu_3dgs_core6buffer18gaussian_transformNtB2_16GaussianShDegree3new
FN:75,_RNvMs0_NtNtCs3bDQ3tnbls4_14wgpu_3dgs_core6buffer18gaussian_transformNtB5_17GaussianMaxStdDev13new_unchecked
FN:83,_RNvMs0_NtNtCs3bDQ3tnbls4_14wgpu_3dgs_core6buffer18gaussian_transformNtB5_17GaussianMaxStdDev3get
FN:63,_RNvMs0_NtNtCs3bDQ3tnbls4_14wgpu_3dgs_core6buffer18gaussian_transformNtB5_17GaussianMaxStdDev3new
FN:88,_RNvMs0_NtNtCs3bDQ3tnbls4_14wgpu_3dgs_core6buffer18gaussian_transformNtB5_17GaussianMaxStdDev5as_u8
FN:136,_RNvMs2_NtNtCs3bDQ3tnbls4_14wgpu_3dgs_core6buffer18gaussian_transformNtB5_23GaussianTransformBuffer15update_with_pod
FN:109,_RNvMs2_NtNtCs3bDQ3tnbls4_14wgpu_3dgs_core6buffer18gaussian_transformNtB5_23GaussianTransformBuffer3new
FN:120,_RNvMs2_NtNtCs3bDQ3tnbls4_14wgpu_3dgs_core6buffer18gaussian_transformNtB5_23GaussianTransformBuffer6update
FN:177,_RNvMs7_NtNtCs3bDQ3tnbls4_14wgpu_3dgs_core6buffer18gaussian_transformNtB5_20GaussianTransformPod3new
FN:94,_RNvXs1_NtNtCs3bDQ3tnbls4_14wgpu_3dgs_core6buffer18gaussian_transformNtB5_17GaussianMaxStdDevNtNtCsmHtFwzCQ9E_4core7default7Default7default
FN:142,_RNvXs3_NtNtCs3bDQ3tnbls4_14wgpu_3dgs_core6buffer18gaussian_transformNtB5_23GaussianTransformBufferNtB7_13BufferWrapper6buffer
FN:148,_RNvXs4_NtNtCs3bDQ3tnbls4_14wgpu_3dgs_core6buffer18gaussian_transformNtNtNtCsebiihMPZ3Ak_4wgpu3api6buffer6BufferINtNtCsmHtFwzCQ9E_4core7convert4FromNtB5_23GaussianTransformBufferE4from
FN:156,_RNvXs5_NtNtCs3bDQ3tnbls4_14wgpu_3dgs_core6buffer18gaussian_transformNtB5_23GaussianTransformBufferINtNtCsmHtFwzCQ9E_4core7convert7TryFromNtNtNtCsebiihMPZ3Ak_4wgpu3api6buffer6BufferE8try_from
FN:197,_RNvXs8_NtNtCs3bDQ3tnbls4_14wgpu_3dgs_core6buffer18gaussian_transformNtB5_20GaussianTransformPodNtNtCsmHtFwzCQ9E_4core7default7Default7default
FN:48,_RNvXs_NtNtCs3bDQ3tnbls4_14wgpu_3dgs_core6buffer18gaussian_transformNtB4_16GaussianShDegreeNtNtCsmHtFwzCQ9E_4core7default7Default7default
FNDA:14,_RNvMNtNtCsap2RCL79A4I_14wgpu_3dgs_core6buffer18gaussian_transformNtB2_16GaussianShDegree13new_unchecked
FNDA:22,_RNvMNtNtCsap2RCL79A4I_14wgpu_3dgs_core6buffer18gaussian_transformNtB2_16GaussianShDegree3get
FNDA:20,_RNvMNtNtCsap2RCL79A4I_14wgpu_3dgs_core6buffer18gaussian_transformNtB2_16GaussianShDegree3new
FNDA:8,_RNvMs0_NtNtCsap2RCL79A4I_14wgpu_3dgs_core6buffer18gaussian_transformNtB5_17GaussianMaxStdDev13new_unchecked
FNDA:5,_RNvMs0_NtNtCsap2RCL79A4I_14wgpu_3dgs_core6buffer18gaussian_transformNtB5_17GaussianMaxStdDev3get
FNDA:18,_RNvMs0_NtNtCsap2RCL79A4I_14wgpu_3dgs_core6buffer18gaussian_transformNtB5_17GaussianMaxStdDev3new
FNDA:10,_RNvMs0_NtNtCsap2RCL79A4I_14wgpu_3dgs_core6buffer18gaussian_transformNtB5_17GaussianMaxStdDev5as_u8
FNDA:2,_RNvMs2_NtNtCsap2RCL79A4I_14wgpu_3dgs_core6buffer18gaussian_transformNtB5_23GaussianTransformBuffer15update_with_pod
FNDA:2,_RNvMs2_NtNtCsap2RCL79A4I_14wgpu_3dgs_core6buffer18gaussian_transformNtB5_23GaussianTransformBuffer3new
FNDA:1,_RNvMs2_NtNtCsap2RCL79A4I_14wgpu_3dgs_core6buffer18gaussian_transformNtB5_23GaussianTransformBuffer6update
FNDA:7,_RNvMs7_NtNtCsap2RCL79A4I_14wgpu_3dgs_core6buffer18gaussian_transformNtB5_20GaussianTransformPod3new
FNDA:2,_RNvXs1_NtNtCsap2RCL79A4I_14wgpu_3dgs_core6buffer18gaussian_transformNtB5_17GaussianMaxStdDevNtNtCsmHtFwzCQ9E_4core7default7Default7default
FNDA:6,_RNvXs3_NtNtCsap2RCL79A4I_14wgpu_3dgs_core6buffer18gaussian_transformNtB5_23GaussianTransformBufferNtB7_13BufferWrapper6buffer
FNDA:2,_RNvXs5_NtNtCsap2RCL79A4I_14wgpu_3dgs_core6buffer18gaussian_transformNtB5_23GaussianTransformBufferINtNtCsmHtFwzCQ9E_4core7convert7TryFromNtNtNtCsebiihMPZ3Ak_4wgpu3api6buffer6BufferE8try_from
FNDA:2,_RNvXs8_NtNtCsap2RCL79A4I_14wgpu_3dgs_core6buffer18gaussian_transformNtB5_20GaussianTransformPodNtNtCsmHtFwzCQ9E_4core7default7Default7default
FNDA:2,_RNvXs_NtNtCsap2RCL79A4I_14wgpu_3dgs_core6buffer18gaussian_transformNtB4_16GaussianShDegreeNtNtCsmHtFwzCQ9E_4core7default7Default7default
FNDA:1,_RNvXs4_NtNtCsap2RCL79A4I_14wgpu_3dgs_core6buffer18gaussian_transformNtNtNtCsebiihMPZ3Ak_4wgpu3api6buffer6BufferINtNtCsmHtFwzCQ9E_4core7convert4FromNtB5_23GaussianTransformBufferE4from
FNDA:2,_RNCNvXs5_NtNtCsap2RCL79A4I_14wgpu_3dgs_core6buffer18gaussian_transformNtB7_23GaussianTransformBufferINtNtCsmHtFwzCQ9E_4core7convert7TryFromNtNtNtCsebiihMPZ3Ak_4wgpu3api6buffer6BufferE8try_from0Bb_
FNDA:0,_RNCNvXs5_NtNtCs3bDQ3tnbls4_14wgpu_3dgs_core6buffer18gaussian_transformNtB7_23GaussianTransformBufferINtNtCsmHtFwzCQ9E_4core7convert7TryFromNtNtNtCsebiihMPZ3Ak_4wgpu3api6buffer6BufferE8try_from0Bb_
FNDA:0,_RNvMNtNtCs3bDQ3tnbls4_14wgpu_3dgs_core6buffer18gaussian_transformNtB2_16GaussianShDegree13new_unchecked
FNDA:0,_RNvMNtNtCs3bDQ3tnbls4_14wgpu_3dgs_core6buffer18gaussian_transformNtB2_16GaussianShDegree3get
FNDA:0,_RNvMNtNtCs3bDQ3tnbls4_14wgpu_3dgs_core6buffer18gaussian_transformNtB2_16GaussianShDegree3new
FNDA:0,_RNvMs0_NtNtCs3bDQ3tnbls4_14wgpu_3dgs_core6buffer18gaussian_transformNtB5_17GaussianMaxStdDev13new_unchecked
FNDA:0,_RNvMs0_NtNtCs3bDQ3tnbls4_14wgpu_3dgs_core6buffer18gaussian_transformNtB5_17GaussianMaxStdDev3get
FNDA:0,_RNvMs0_NtNtCs3bDQ3tnbls4_14wgpu_3dgs_core6buffer18gaussian_transformNtB5_17GaussianMaxStdDev3new
FNDA:0,_RNvMs0_NtNtCs3bDQ3tnbls4_14wgpu_3dgs_core6buffer18gaussian_transformNtB5_17GaussianMaxStdDev5as_u8
FNDA:0,_RNvMs2_NtNtCs3bDQ3tnbls4_14wgpu_3dgs_core6buffer18gaussian_transformNtB5_23GaussianTransformBuffer15update_with_pod
FNDA:0,_RNvMs2_NtNtCs3bDQ3tnbls4_14wgpu_3dgs_core6buffer18gaussian_transformNtB5_23GaussianTransformBuffer3new
FNDA:0,_RNvMs2_NtNtCs3bDQ3tnbls4_14wgpu_3dgs_core6buffer18gaussian_transformNtB5_23GaussianTransformBuffer6update
FNDA:0,_RNvMs7_NtNtCs3bDQ3tnbls4_14wgpu_3dgs_core6buffer18gaussian_transformNtB5_20GaussianTransformPod3new
FNDA:0,_RNvXs1_NtNtCs3bDQ3tnbls4_14wgpu_3dgs_core6buffer18gaussian_transformNtB5_17GaussianMaxStdDevNtNtCsmHtFwzCQ9E_4core7default7Default7default
FNDA:0,_RNvXs3_NtNtCs3bDQ3tnbls4_14wgpu_3dgs_core6buffer18gaussian_transformNtB5_23GaussianTransformBufferNtB7_13BufferWrapper6buffer
FNDA:0,_RNvXs4_NtNtCs3bDQ3tnbls4_14wgpu_3dgs_core6buffer18gaussian_transformNtNtNtCsebiihMPZ3Ak_4wgpu3api6buffer6BufferINtNtCsmHtFwzCQ9E_4core7convert4FromNtB5_23GaussianTransformBufferE4from
FNDA:0,_RNvXs5_NtNtCs3bDQ3tnbls4_14wgpu_3dgs_core6buffer18gaussian_transformNtB5_23GaussianTransformBufferINtNtCsmHtFwzCQ9E_4core7convert7TryFromNtNtNtCsebiihMPZ3Ak_4wgpu3api6buffer6BufferE8try_from
FNDA:0,_RNvXs8_NtNtCs3bDQ3tnbls4_14wgpu_3dgs_core6buffer18gaussian_transformNtB5_20GaussianTransformPodNtNtCsmHtFwzCQ9E_4core7default7Default7default
FNDA:0,_RNvXs_NtNtCs3bDQ3tnbls4_14wgpu_3dgs_core6buffer18gaussian_transformNtB4_16GaussianShDegreeNtNtCsmHtFwzCQ9E_4core7default7Default7default
FNF:18
FNH:18
DA:25,20
DA:26,20
DA:27,20
DA:28,8
DA:30,20
DA:37,14
DA:38,14
DA:39,14
DA:42,22
DA:43,22
DA:44,22
DA:48,2
DA:50,2
DA:51,2
DA:63,18
DA:64,18
DA:65,14
DA:66,7
DA:68,18
DA:75,8
DA:76,8
DA:77,8
DA:83,5
DA:84,5
DA:85,5
DA:88,10
DA:89,10
DA:90,10
DA:94,2
DA:96,2
DA:97,2
DA:109,2
DA:110,2
DA:111,2
DA:112,2
DA:113,2
DA:114,2
DA:116,2
DA:117,2
DA:120,1
DA:121,1
DA:122,1
DA:123,1
DA:124,1
DA:125,1
DA:126,1
DA:127,1
DA:128,1
DA:129,1
DA:130,1
DA:131,1
DA:133,1
DA:136,2
DA:137,2
DA:138,2
DA:142,6
DA:143,6
DA:144,6
DA:148,1
DA:149,1
DA:150,1
DA:156,2
DA:157,2
DA:158,2
DA:177,7
DA:178,7
DA:179,7
DA:180,7
DA:181,7
DA:182,7
DA:183,7
DA:184,7
DA:185,7
DA:186,7
DA:187,7
DA:189,7
DA:190,7
DA:191,7
DA:192,7
DA:193,7
DA:197,2
DA:198,2
DA:200,2
DA:201,2
DA:203,2
DA:205,2
BRF:0
BRH:0
LF:87
LH:87
end_of_record
SF:C:\Users\s2010\Me\Codes\Rust\wgpu-3dgs-core\src\buffer\mod.rs
FN:69,_RNCINvYINtNtNtCsap2RCL79A4I_14wgpu_3dgs_core6buffer8gaussian15GaussiansBufferNtB8_37GaussianPodWithShHalfCov3dHalfConfigsENtBa_13BufferWrapper12map_downloadB1d_E0CslQCpptksoiT_3mod
FN:30,_RNCINvYINtNtNtCsap2RCL79A4I_14wgpu_3dgs_core6buffer8gaussian15GaussiansBufferNtB8_37GaussianPodWithShHalfCov3dHalfConfigsENtBa_13BufferWrapper8downloadB1d_E0CslQCpptksoiT_3mod
FN:69,_RNCINvYINtNtNtCsap2RCL79A4I_14wgpu_3dgs_core6buffer8gaussian15GaussiansBufferNtB8_37GaussianPodWithShNoneCov3dHalfConfigsENtBa_13BufferWrapper12map_downloadB1d_E0CslQCpptksoiT_3mod
FN:30,_RNCINvYINtNtNtCsap2RCL79A4I_14wgpu_3dgs_core6buffer8gaussian15GaussiansBufferNtB8_37GaussianPodWithShNoneCov3dHalfConfigsENtBa_13BufferWrapper8downloadB1d_E0CslQCpptksoiT_3mod
FN:69,_RNCINvYINtNtNtCsap2RCL79A4I_14wgpu_3dgs_core6buffer8gaussian15GaussiansBufferNtB8_38GaussianPodWithShNorm8Cov3dHalfConfigsENtBa_13BufferWrapper12map_downloadB1d_E0CslQCpptksoiT_3mod
FN:30,_RNCINvYINtNtNtCsap2RCL79A4I_14wgpu_3dgs_core6buffer8gaussian15GaussiansBufferNtB8_38GaussianPodWithShNorm8Cov3dHalfConfigsENtBa_13BufferWrapper8downloadB1d_E0CslQCpptksoiT_3mod
FN:69,_RNCINvYINtNtNtCsap2RCL79A4I_14wgpu_3dgs_core6buffer8gaussian15GaussiansBufferNtB8_39GaussianPodWithShHalfCov3dSingleConfigsENtBa_13BufferWrapper12map_downloadB1d_E0CslQCpptksoiT_3mod
FN:30,_RNCINvYINtNtNtCsap2RCL79A4I_14wgpu_3dgs_core6buffer8gaussian15GaussiansBufferNtB8_39GaussianPodWithShHalfCov3dSingleConfigsENtBa_13BufferWrapper8downloadB1d_E0CslQCpptksoiT_3mod
FN:69,_RNCINvYINtNtNtCsap2RCL79A4I_14wgpu_3dgs_core6buffer8gaussian15GaussiansBufferNtB8_39GaussianPodWithShNoneCov3dSingleConfigsENtBa_13BufferWrapper12map_downloadB1d_E0CslQCpptksoiT_3mod
FN:30,_RNCINvYINtNtNtCsap2RCL79A4I_14wgpu_3dgs_core6buffer8gaussian15GaussiansBufferNtB8_39GaussianPodWithShNoneCov3dSingleConfigsENtBa_13BufferWrapper8downloadB1d_E0CslQCpptksoiT_3mod
FN:69,_RNCINvYINtNtNtCsap2RCL79A4I_14wgpu_3dgs_core6buffer8gaussian15GaussiansBufferNtB8_39GaussianPodWithShSingleCov3dHalfConfigsENtBa_13BufferWrapper12map_downloadB1d_E0CslQCpptksoiT_3mod
FN:30,_RNCINvYINtNtNtCsap2RCL79A4I_14wgpu_3dgs_core6buffer8gaussian15GaussiansBufferNtB8_39GaussianPodWithShSingleCov3dHalfConfigsENtBa_13BufferWrapper8downloadB1d_E0CslQCpptksoiT_3mod
FN:69,_RNCINvYINtNtNtCsap2RCL79A4I_14wgpu_3dgs_core6buffer8gaussian15GaussiansBufferNtB8_40GaussianPodWithShNorm8Cov3dSingleConfigsENtBa_13BufferWrapper12map_downloadB1d_E0CslQCpptksoiT_3mod
FN:30,_RNCINvYINtNtNtCsap2RCL79A4I_14wgpu_3dgs_core6buffer8gaussian15GaussiansBufferNtB8_40GaussianPodWithShNorm8Cov3dSingleConfigsENtBa_13BufferWrapper8downloadB1d_E0CslQCpptksoiT_3mod
FN:69,_RNCINvYINtNtNtCsap2RCL79A4I_14wgpu_3dgs_core6buffer8gaussian15GaussiansBufferNtB8_41GaussianPodWithShHalfCov3dRotScaleConfigsENtBa_13BufferWrapper12map_downloadB1d_E0CslQCpptksoiT_3mod
FN:30,_RNCINvYINtNtNtCsap2RCL79A4I_14wgpu_3dgs_core6buffer8gaussian15GaussiansBufferNtB8_41GaussianPodWithShHalfCov3dRotScaleConfigsENtBa_13BufferWrapper8downloadB1d_E0CslQCpptksoiT_3mod
FN:69,_RNCINvYINtNtNtCsap2RCL79A4I_14wgpu_3dgs_core6buffer8gaussian15GaussiansBufferNtB8_41GaussianPodWithShNoneCov3dRotScaleConfigsENtBa_13BufferWrapper12map_downloadB1d_E0CslQCpptksoiT_3mod
FN:30,_RNCINvYINtNtNtCsap2RCL79A4I_14wgpu_3dgs_core6buffer8gaussian15GaussiansBufferNtB8_41GaussianPodWithShNoneCov3dRotScaleConfigsENtBa_13BufferWrapper8downloadB1d_E0CslQCpptksoiT_3mod
FN:69,_RNCINvYINtNtNtCsap2RCL79A4I_14wgpu_3dgs_core6buffer8gaussian15GaussiansBufferNtB8_41GaussianPodWithShSingleCov3dSingleConfigsENtBa_13BufferWrapper12map_downloadB1d_E0CslQCpptksoiT_3mod
FN:30,_RNCINvYINtNtNtCsap2RCL79A4I_14wgpu_3dgs_core6buffer8gaussian15GaussiansBufferNtB8_41GaussianPodWithShSingleCov3dSingleConfigsENtBa_13BufferWrapper8downloadB1d_E0CslQCpptksoiT_3mod
FN:69,_RNCINvYINtNtNtCsap2RCL79A4I_14wgpu_3dgs_core6buffer8gaussian15GaussiansBufferNtB8_42GaussianPodWithShNorm8Cov3dRotScaleConfigsENtBa_13BufferWrapper12map_downloadB1d_E0CslQCpptksoiT_3mod
FN:30,_RNCINvYINtNtNtCsap2RCL79A4I_14wgpu_3dgs_core6buffer8gaussian15GaussiansBufferNtB8_42GaussianPodWithShNorm8Cov3dRotScaleConfigsENtBa_13BufferWrapper8downloadB1d_E0CslQCpptksoiT_3mod
FN:69,_RNCINvYINtNtNtCsap2RCL79A4I_14wgpu_3dgs_core6buffer8gaussian15GaussiansBufferNtB8_43GaussianPodWithShSingleCov3dRotScaleConfigsENtBa_13BufferWrapper12map_downloadB1d_E0CslQCpptksoiT_3mod
FN:30,_RNCINvYINtNtNtCsap2RCL79A4I_14wgpu_3dgs_core6buffer8gaussian15GaussiansBufferNtB8_43GaussianPodWithShSingleCov3dRotScaleConfigsENtBa_13BufferWrapper8downloadB1d_E0CslQCpptksoiT_3mod
FN:69,_RNCINvYNtNtCslQCpptksoiT_3mod6buffer17TestBufferWrapperNtNtCsap2RCL79A4I_14wgpu_3dgs_core6buffer13BufferWrapper12map_downloadmE0B9_
FN:30,_RNCINvYNtNtCslQCpptksoiT_3mod6buffer17TestBufferWrapperNtNtCsap2RCL79A4I_14wgpu_3dgs_core6buffer13BufferWrapper8downloadmE0B9_
FN:69,_RNCINvYNtNtNtCsap2RCL79A4I_14wgpu_3dgs_core6buffer15model_transform20ModelTransformBufferNtB9_13BufferWrapper12map_downloadNtB7_17ModelTransformPodE0CslQCpptksoiT_3mod
FN:30,_RNCINvYNtNtNtCsap2RCL79A4I_14wgpu_3dgs_core6buffer15model_transform20ModelTransformBufferNtB9_13BufferWrapper8downloadNtB7_17ModelTransformPodE0CslQCpptksoiT_3mod
FN:69,_RNCINvYNtNtNtCsap2RCL79A4I_14wgpu_3dgs_core6buffer18gaussian_transform23GaussianTransformBufferNtB9_13BufferWrapper12map_downloadNtB7_20GaussianTransformPodE0CslQCpptksoiT_3mod
FN:30,_RNCINvYNtNtNtCsap2RCL79A4I_14wgpu_3dgs_core6buffer18gaussian_transform23GaussianTransformBufferNtB9_13BufferWrapper8downloadNtB7_20GaussianTransformPodE0CslQCpptksoiT_3mod
FN:69,_RNCINvYNtNtNtCsebiihMPZ3Ak_4wgpu3api6buffer6BufferNtNtCsap2RCL79A4I_14wgpu_3dgs_core6buffer13BufferWrapper12map_downloadNtNtBO_15model_transform17ModelTransformPodE0CslQCpptksoiT_3mod
FN:69,_RNCINvYNtNtNtCsebiihMPZ3Ak_4wgpu3api6buffer6BufferNtNtCsap2RCL79A4I_14wgpu_3dgs_core6buffer13BufferWrapper12map_downloadNtNtBO_18gaussian_transform20GaussianTransformPodE0CslQCpptksoiT_3mod
FN:69,_RNCINvYNtNtNtCsebiihMPZ3Ak_4wgpu3api6buffer6BufferNtNtCsap2RCL79A4I_14wgpu_3dgs_core6buffer13BufferWrapper12map_downloadNtNtBO_8gaussian37GaussianPodWithShHalfCov3dHalfConfigsE0CslQCpptksoiT_3mod
FN:69,_RNCINvYNtNtNtCsebiihMPZ3Ak_4wgpu3api6buffer6BufferNtNtCsap2RCL79A4I_14wgpu_3dgs_core6buffer13BufferWrapper12map_downloadNtNtBO_8gaussian37GaussianPodWithShNoneCov3dHalfConfigsE0CslQCpptksoiT_3mod
FN:69,_RNCINvYNtNtNtCsebiihMPZ3Ak_4wgpu3api6buffer6BufferNtNtCsap2RCL79A4I_14wgpu_3dgs_core6buffer13BufferWrapper12map_downloadNtNtBO_8gaussian38GaussianPodWithShNorm8Cov3dHalfConfigsE0CslQCpptksoiT_3mod
FN:69,_RNCINvYNtNtNtCsebiihMPZ3Ak_4wgpu3api6buffer6BufferNtNtCsap2RCL79A4I_14wgpu_3dgs_core6buffer13BufferWrapper12map_downloadNtNtBO_8gaussian39GaussianPodWithShHalfCov3dSingleConfigsE0CslQCpptksoiT_3mod
FN:69,_RNCINvYNtNtNtCsebiihMPZ3Ak_4wgpu3api6buffer6BufferNtNtCsap2RCL79A4I_14wgpu_3dgs_core6buffer13BufferWrapper12map_downloadNtNtBO_8gaussian39GaussianPodWithShNoneCov3dSingleConfigsE0CslQCpptksoiT_3mod
FN:69,_RNCINvYNtNtNtCsebiihMPZ3Ak_4wgpu3api6buffer6BufferNtNtCsap2RCL79A4I_14wgpu_3dgs_core6buffer13BufferWrapper12map_downloadNtNtBO_8gaussian39GaussianPodWithShSingleCov3dHalfConfigsE0CslQCpptksoiT_3mod
FN:69,_RNCINvYNtNtNtCsebiihMPZ3Ak_4wgpu3api6buffer6BufferNtNtCsap2RCL79A4I_14wgpu_3dgs_core6buffer13BufferWrapper12map_downloadNtNtBO_8gaussian40GaussianPodWithShNorm8Cov3dSingleConfigsE0CslQCpptksoiT_3mod
FN:69,_RNCINvYNtNtNtCsebiihMPZ3Ak_4wgpu3api6buffer6BufferNtNtCsap2RCL79A4I_14wgpu_3dgs_core6buffer13BufferWrapper12map_downloadNtNtBO_8gaussian41GaussianPodWithShHalfCov3dRotScaleConfigsE0CslQCpptksoiT_3mod
FN:69,_RNCINvYNtNtNtCsebiihMPZ3Ak_4wgpu3api6buffer6BufferNtNtCsap2RCL79A4I_14wgpu_3dgs_core6buffer13BufferWrapper12map_downloadNtNtBO_8gaussian41GaussianPodWithShNoneCov3dRotScaleConfigsE0CslQCpptksoiT_3mod
FN:69,_RNCINvYNtNtNtCsebiihMPZ3Ak_4wgpu3api6buffer6BufferNtNtCsap2RCL79A4I_14wgpu_3dgs_core6buffer13BufferWrapper12map_downloadNtNtBO_8gaussian41GaussianPodWithShSingleCov3dSingleConfigsE0CslQCpptksoiT_3mod
FN:69,_RNCINvYNtNtNtCsebiihMPZ3Ak_4wgpu3api6buffer6BufferNtNtCsap2RCL79A4I_14wgpu_3dgs_core6buffer13BufferWrapper12map_downloadNtNtBO_8gaussian42GaussianPodWithShNorm8Cov3dRotScaleConfigsE0CslQCpptksoiT_3mod
FN:69,_RNCINvYNtNtNtCsebiihMPZ3Ak_4wgpu3api6buffer6BufferNtNtCsap2RCL79A4I_14wgpu_3dgs_core6buffer13BufferWrapper12map_downloadNtNtBO_8gaussian43GaussianPodWithShSingleCov3dRotScaleConfigsE0CslQCpptksoiT_3mod
FN:69,_RNCINvYNtNtNtCsebiihMPZ3Ak_4wgpu3api6buffer6BufferNtNtCsap2RCL79A4I_14wgpu_3dgs_core6buffer13BufferWrapper12map_downloadNtNtNtCslQCpptksoiT_3mod6shader15model_transform6OutputE0B20_
FN:69,_RNCINvYNtNtNtCsebiihMPZ3Ak_4wgpu3api6buffer6BufferNtNtCsap2RCL79A4I_14wgpu_3dgs_core6buffer13BufferWrapper12map_downloadNtNtNtCslQCpptksoiT_3mod6shader18gaussian_transform6OutputE0B20_
FN:69,_RNCINvYNtNtNtCsebiihMPZ3Ak_4wgpu3api6buffer6BufferNtNtCsap2RCL79A4I_14wgpu_3dgs_core6buffer13BufferWrapper12map_downloadNtNtNtCslQCpptksoiT_3mod6shader8gaussian6OutputE0B20_
FN:69,_RNCINvYNtNtNtCsebiihMPZ3Ak_4wgpu3api6buffer6BufferNtNtCsap2RCL79A4I_14wgpu_3dgs_core6buffer13BufferWrapper12map_downloadmE0CslQCpptksoiT_3mod
FN:30,_RNCINvYNtNtNtCsebiihMPZ3Ak_4wgpu3api6buffer6BufferNtNtCsap2RCL79A4I_14wgpu_3dgs_core6buffer13BufferWrapper8downloadNtNtBO_15model_transform17ModelTransformPodE0CslQCpptksoiT_3mod
FN:30,_RNCINvYNtNtNtCsebiihMPZ3Ak_4wgpu3api6buffer6BufferNtNtCsap2RCL79A4I_14wgpu_3dgs_core6buffer13BufferWrapper8downloadNtNtBO_18gaussian_transform20GaussianTransformPodE0CslQCpptksoiT_3mod
FN:30,_RNCINvYNtNtNtCsebiihMPZ3Ak_4wgpu3api6buffer6BufferNtNtCsap2RCL79A4I_14wgpu_3dgs_core6buffer13BufferWrapper8downloadNtNtBO_8gaussian37GaussianPodWithShHalfCov3dHalfConfigsE0CslQCpptksoiT_3mod
FN:30,_RNCINvYNtNtNtCsebiihMPZ3Ak_4wgpu3api6buffer6BufferNtNtCsap2RCL79A4I_14wgpu_3dgs_core6buffer13BufferWrapper8downloadNtNtBO_8gaussian37GaussianPodWithShNoneCov3dHalfConfigsE0CslQCpptksoiT_3mod
FN:30,_RNCINvYNtNtNtCsebiihMPZ3Ak_4wgpu3api6buffer6BufferNtNtCsap2RCL79A4I_14wgpu_3dgs_core6buffer13BufferWrapper8downloadNtNtBO_8gaussian38GaussianPodWithShNorm8Cov3dHalfConfigsE0CslQCpptksoiT_3mod
FN:30,_RNCINvYNtNtNtCsebiihMPZ3Ak_4wgpu3api6buffer6BufferNtNtCsap2RCL79A4I_14wgpu_3dgs_core6buffer13BufferWrapper8downloadNtNtBO_8gaussian39GaussianPodWithShHalfCov3dSingleConfigsE0CslQCpptksoiT_3mod
FN:30,_RNCINvYNtNtNtCsebiihMPZ3Ak_4wgpu3api6buffer6BufferNtNtCsap2RCL79A4I_14wgpu_3dgs_core6buffer13BufferWrapper8downloadNtNtBO_8gaussian39GaussianPodWithShNoneCov3dSingleConfigsE0CslQCpptksoiT_3mod
FN:30,_RNCINvYNtNtNtCsebiihMPZ3Ak_4wgpu3api6buffer6BufferNtNtCsap2RCL79A4I_14wgpu_3dgs_core6buffer13BufferWrapper8downloadNtNtBO_8gaussian39GaussianPodWithShSingleCov3dHalfConfigsE0CslQCpptksoiT_3mod
FN:30,_RNCINvYNtNtNtCsebiihMPZ3Ak_4wgpu3api6buffer6BufferNtNtCsap2RCL79A4I_14wgpu_3dgs_core6buffer13BufferWrapper8downloadNtNtBO_8gaussian40GaussianPodWithShNorm8Cov3dSingleConfigsE0CslQCpptksoiT_3mod
FN:30,_RNCINvYNtNtNtCsebiihMPZ3Ak_4wgpu3api6buffer6BufferNtNtCsap2RCL79A4I_14wgpu_3dgs_core6buffer13BufferWrapper8downloadNtNtBO_8gaussian41GaussianPodWithShHalfCov3dRotScaleConfigsE0CslQCpptksoiT_3mod
FN:30,_RNCINvYNtNtNtCsebiihMPZ3Ak_4wgpu3api6buffer6BufferNtNtCsap2RCL79A4I_14wgpu_3dgs_core6buffer13BufferWrapper8downloadNtNtBO_8gaussian41GaussianPodWithShNoneCov3dRotScaleConfigsE0CslQCpptksoiT_3mod
FN:30,_RNCINvYNtNtNtCsebiihMPZ3Ak_4wgpu3api6buffer6BufferNtNtCsap2RCL79A4I_14wgpu_3dgs_core6buffer13BufferWrapper8downloadNtNtBO_8gaussian41GaussianPodWithShSingleCov3dSingleConfigsE0CslQCpptksoiT_3mod
FN:30,_RNCINvYNtNtNtCsebiihMPZ3Ak_4wgpu3api6buffer6BufferNtNtCsap2RCL79A4I_14wgpu_3dgs_core6buffer13BufferWrapper8downloadNtNtBO_8gaussian42GaussianPodWithShNorm8Cov3dRotScaleConfigsE0CslQCpptksoiT_3mod
FN:30,_RNCINvYNtNtNtCsebiihMPZ3Ak_4wgpu3api6buffer6BufferNtNtCsap2RCL79A4I_14wgpu_3dgs_core6buffer13BufferWrapper8downloadNtNtBO_8gaussian43GaussianPodWithShSingleCov3dRotScaleConfigsE0CslQCpptksoiT_3mod
FN:30,_RNCINvYNtNtNtCsebiihMPZ3Ak_4wgpu3api6buffer6BufferNtNtCsap2RCL79A4I_14wgpu_3dgs_core6buffer13BufferWrapper8downloadNtNtNtCslQCpptksoiT_3mod6shader15model_transform6OutputE0B1V_
FN:30,_RNCINvYNtNtNtCsebiihMPZ3Ak_4wgpu3api6buffer6BufferNtNtCsap2RCL79A4I_14wgpu_3dgs_core6buffer13BufferWrapper8downloadNtNtNtCslQCpptksoiT_3mod6shader18gaussian_transform6OutputE0B1V_
FN:30,_RNCINvYNtNtNtCsebiihMPZ3Ak_4wgpu3api6buffer6BufferNtNtCsap2RCL79A4I_14wgpu_3dgs_core6buffer13BufferWrapper8downloadNtNtNtCslQCpptksoiT_3mod6shader8gaussian6OutputE0B1V_
FN:30,_RNCINvYNtNtNtCsebiihMPZ3Ak_4wgpu3api6buffer6BufferNtNtCsap2RCL79A4I_14wgpu_3dgs_core6buffer13BufferWrapper8downloadmE0CslQCpptksoiT_3mod
FN:72,_RNCNCINvYINtNtNtCsap2RCL79A4I_14wgpu_3dgs_core6buffer8gaussian15GaussiansBufferNtBa_37GaussianPodWithShHalfCov3dHalfConfigsENtBc_13BufferWrapper12map_downloadB1f_E00CslQCpptksoiT_3mod
FN:72,_RNCNCINvYINtNtNtCsap2RCL79A4I_14wgpu_3dgs_core6buffer8gaussian15GaussiansBufferNtBa_37GaussianPodWithShNoneCov3dHalfConfigsENtBc_13BufferWrapper12map_downloadB1f_E00CslQCpptksoiT_3mod
FN:72,_RNCNCINvYINtNtNtCsap2RCL79A4I_14wgpu_3dgs_core6buffer8gaussian15GaussiansBufferNtBa_38GaussianPodWithShNorm8Cov3dHalfConfigsENtBc_13BufferWrapper12map_downloadB1f_E00CslQCpptksoiT_3mod
FN:72,_RNCNCINvYINtNtNtCsap2RCL79A4I_14wgpu_3dgs_core6buffer8gaussian15GaussiansBufferNtBa_39GaussianPodWithShHalfCov3dSingleConfigsENtBc_13BufferWrapper12map_downloadB1f_E00CslQCpptksoiT_3mod
FN:72,_RNCNCINvYINtNtNtCsap2RCL79A4I_14wgpu_3dgs_core6buffer8gaussian15GaussiansBufferNtBa_39GaussianPodWithShNoneCov3dSingleConfigsENtBc_13BufferWrapper12map_downloadB1f_E00CslQCpptksoiT_3mod
FN:72,_RNCNCINvYINtNtNtCsap2RCL79A4I_14wgpu_3dgs_core6buffer8gaussian15GaussiansBufferNtBa_39GaussianPodWithShSingleCov3dHalfConfigsENtBc_13BufferWrapper12map_downloadB1f_E00CslQCpptksoiT_3mod
FN:72,_RNCNCINvYINtNtNtCsap2RCL79A4I_14wgpu_3dgs_core6buffer8gaussian15GaussiansBufferNtBa_40GaussianPodWithShNorm8Cov3dSingleConfigsENtBc_13BufferWrapper12map_downloadB1f_E00CslQCpptksoiT_3mod
FN:72,_RNCNCINvYINtNtNtCsap2RCL79A4I_14wgpu_3dgs_core6buffer8gaussian15GaussiansBufferNtBa_41GaussianPodWithShHalfCov3dRotScaleConfigsENtBc_13BufferWrapper12map_downloadB1f_E00CslQCpptksoiT_3mod
FN:72,_RNCNCINvYINtNtNtCsap2RCL79A4I_14wgpu_3dgs_core6buffer8gaussian15GaussiansBufferNtBa_41GaussianPodWithShNoneCov3dRotScaleConfigsENtBc_13BufferWrapper12map_downloadB1f_E00CslQCpptksoiT_3mod
FN:72,_RNCNCINvYINtNtNtCsap2RCL79A4I_14wgpu_3dgs_core6buffer8gaussian15GaussiansBufferNtBa_41GaussianPodWithShSingleCov3dSingleConfigsENtBc_13BufferWrapper12map_downloadB1f_E00CslQCpptksoiT_3mod
FN:72,_RNCNCINvYINtNtNtCsap2RCL79A4I_14wgpu_3dgs_core6buffer8gaussian15GaussiansBufferNtBa_42GaussianPodWithShNorm8Cov3dRotScaleConfigsENtBc_13BufferWrapper12map_downloadB1f_E00CslQCpptksoiT_3mod
FN:72,_RNCNCINvYINtNtNtCsap2RCL79A4I_14wgpu_3dgs_core6buffer8gaussian15GaussiansBufferNtBa_43GaussianPodWithShSingleCov3dRotScaleConfigsENtBc_13BufferWrapper12map_downloadB1f_E00CslQCpptksoiT_3mod
FN:72,_RNCNCINvYNtNtCslQCpptksoiT_3mod6buffer17TestBufferWrapperNtNtCsap2RCL79A4I_14wgpu_3dgs_core6buffer13BufferWrapper12map_downloadmE00Bb_
FN:72,_RNCNCINvYNtNtNtCsap2RCL79A4I_14wgpu_3dgs_core6buffer15model_transform20ModelTransformBufferNtBb_13BufferWrapper12map_downloadNtB9_17ModelTransformPodE00CslQCpptksoiT_3mod
FN:72,_RNCNCINvYNtNtNtCsap2RCL79A4I_14wgpu_3dgs_core6buffer18gaussian_transform23GaussianTransformBufferNtBb_13BufferWrapper12map_downloadNtB9_20GaussianTransformPodE00CslQCpptksoiT_3mod
FN:72,_RNCNCINvYNtNtNtCsebiihMPZ3Ak_4wgpu3api6buffer6BufferNtNtCsap2RCL79A4I_14wgpu_3dgs_core6buffer13BufferWrapper12map_downloadNtNtBQ_15model_transform17ModelTransformPodE00CslQCpptksoiT_3mod
FN:72,_RNCNCINvYNtNtNtCsebiihMPZ3Ak_4wgpu3api6buffer6BufferNtNtCsap2RCL79A4I_14wgpu_3dgs_core6buffer13BufferWrapper12map_downloadNtNtBQ_18gaussian_transform20GaussianTransformPodE00CslQCpptksoiT_3mod
FN:72,_RNCNCINvYNtNtNtCsebiihMPZ3Ak_4wgpu3api6buffer6BufferNtNtCsap2RCL79A4I_14wgpu_3dgs_core6buffer13BufferWrapper12map_downloadNtNtBQ_8gaussian37GaussianPodWithShHalfCov3dHalfConfigsE00CslQCpptksoiT_3mod
FN:72,_RNCNCINvYNtNtNtCsebiihMPZ3Ak_4wgpu3api6buffer6BufferNtNtCsap2RCL79A4I_14wgpu_3dgs_core6buffer13BufferWrapper12map_downloadNtNtBQ_8gaussian37GaussianPodWithShNoneCov3dHalfConfigsE00CslQCpptksoiT_3mod
FN:72,_RNCNCINvYNtNtNtCsebiihMPZ3Ak_4wgpu3api6buffer6BufferNtNtCsap2RCL79A4I_14wgpu_3dgs_core6buffer13BufferWrapper12map_downloadNtNtBQ_8gaussian38GaussianPodWithShNorm8Cov3dHalfConfigsE00CslQCpptksoiT_3mod
FN:72,_RNCNCINvYNtNtNtCsebiihMPZ3Ak_4wgpu3api6buffer6BufferNtNtCsap2RCL79A4I_14wgpu_3dgs_core6buffer13BufferWrapper12map_downloadNtNtBQ_8gaussian39GaussianPodWithShHalfCov3dSingleConfigsE00CslQCpptksoiT_3mod
FN:72,_RNCNCINvYNtNtNtCsebiihMPZ3Ak_4wgpu3api6buffer6BufferNtNtCsap2RCL79A4I_14wgpu_3dgs_core6buffer13BufferWrapper12map_downloadNtNtBQ_8gaussian39GaussianPodWithShNoneCov3dSingleConfigsE00CslQCpptksoiT_3mod
FN:72,_RNCNCINvYNtNtNtCsebiihMPZ3Ak_4wgpu3api6buffer6BufferNtNtCsap2RCL79A4I_14wgpu_3dgs_core6buffer13BufferWrapper12map_downloadNtNtBQ_8gaussian39GaussianPodWithShSingleCov3dHalfConfigsE00CslQCpptksoiT_3mod
FN:72,_RNCNCINvYNtNtNtCsebiihMPZ3Ak_4wgpu3api6buffer6BufferNtNtCsap2RCL79A4I_14wgpu_3dgs_core6buffer13BufferWrapper12map_downloadNtNtBQ_8gaussian40GaussianPodWithShNorm8Cov3dSingleConfigsE00CslQCpptksoiT_3mod
FN:72,_RNCNCINvYNtNtNtCsebiihMPZ3Ak_4wgpu3api6buffer6BufferNtNtCsap2RCL79A4I_14wgpu_3dgs_core6buffer13BufferWrapper12map_downloadNtNtBQ_8gaussian41GaussianPodWithShHalfCov3dRotScaleConfigsE00CslQCpptksoiT_3mod
FN:72,_RNCNCINvYNtNtNtCsebiihMPZ3Ak_4wgpu3api6buffer6BufferNtNtCsap2RCL79A4I_14wgpu_3dgs_core6buffer13BufferWrapper12map_downloadNtNtBQ_8gaussian41GaussianPodWithShNoneCov3dRotScaleConfigsE00CslQCpptksoiT_3mod
FN:72,_RNCNCINvYNtNtNtCsebiihMPZ3Ak_4wgpu3api6buffer6BufferNtNtCsap2RCL79A4I_14wgpu_3dgs_core6buffer13BufferWrapper12map_downloadNtNtBQ_8gaussian41GaussianPodWithShSingleCov3dSingleConfigsE00CslQCpptksoiT_3mod
FN:72,_RNCNCINvYNtNtNtCsebiihMPZ3Ak_4wgpu3api6buffer6BufferNtNtCsap2RCL79A4I_14wgpu_3dgs_core6buffer13BufferWrapper12map_downloadNtNtBQ_8gaussian42GaussianPodWithShNorm8Cov3dRotScaleConfigsE00CslQCpptksoiT_3mod
FN:72,_RNCNCINvYNtNtNtCsebiihMPZ3Ak_4wgpu3api6buffer6BufferNtNtCsap2RCL79A4I_14wgpu_3dgs_core6buffer13BufferWrapper12map_downloadNtNtBQ_8gaussian43GaussianPodWithShSingleCov3dRotScaleConfigsE00CslQCpptksoiT_3mod
FN:72,_RNCNCINvYNtNtNtCsebiihMPZ3Ak_4wgpu3api6buffer6BufferNtNtCsap2RCL79A4I_14wgpu_3dgs_core6buffer13BufferWrapper12map_downloadNtNtNtCslQCpptksoiT_3mod6shader15model_transform6OutputE00B22_
FN:72,_RNCNCINvYNtNtNtCsebiihMPZ3Ak_4wgpu3api6buffer6BufferNtNtCsap2RCL79A4I_14wgpu_3dgs_core6buffer13BufferWrapper12map_downloadNtNtNtCslQCpptksoiT_3mod6shader18gaussian_transform6OutputE00B22_
FN:72,_RNCNCINvYNtNtNtCsebiihMPZ3Ak_4wgpu3api6buffer6BufferNtNtCsap2RCL79A4I_14wgpu_3dgs_core6buffer13BufferWrapper12map_downloadNtNtNtCslQCpptksoiT_3mod6shader8gaussian6OutputE00B22_
FN:72,_RNCNCINvYNtNtNtCsebiihMPZ3Ak_4wgpu3api6buffer6BufferNtNtCsap2RCL79A4I_14wgpu_3dgs_core6buffer13BufferWrapper12map_downloadmE00CslQCpptksoiT_3mod
FN:129,_RNCNvYNtNtCslQCpptksoiT_3mod6buffer17TestBufferWrapperNtNtCsap2RCL79A4I_14wgpu_3dgs_core6buffer22FixedSizeBufferWrapper15download_single0B8_
FN:129,_RNCNvYNtNtNtCsap2RCL79A4I_14wgpu_3dgs_core6buffer15model_transform20ModelTransformBufferNtB8_22FixedSizeBufferWrapper15download_single0CslQCpptksoiT_3mod
FN:129,_RNCNvYNtNtNtCsap2RCL79A4I_14wgpu_3dgs_core6buffer18gaussian_transform23GaussianTransformBufferNtB8_22FixedSizeBufferWrapper15download_single0CslQCpptksoiT_3mod
FN:65,_RINvYNtNtNtCsebiihMPZ3Ak_4wgpu3api6buffer6BufferNtNtCsap2RCL79A4I_14wgpu_3dgs_core6buffer13BufferWrapper12map_downloadNtNtBM_15model_transform17ModelTransformPodECslQCpptksoiT_3mod
FN:65,_RINvYNtNtNtCsebiihMPZ3Ak_4wgpu3api6buffer6BufferNtNtCsap2RCL79A4I_14wgpu_3dgs_core6buffer13BufferWrapper12map_downloadNtNtBM_18gaussian_transform20GaussianTransformPodECslQCpptksoiT_3mod
FN:65,_RINvYNtNtNtCsebiihMPZ3Ak_4wgpu3api6buffer6BufferNtNtCsap2RCL79A4I_14wgpu_3dgs_core6buffer13BufferWrapper12map_downloadNtNtBM_8gaussian37GaussianPodWithShHalfCov3dHalfConfigsECslQCpptksoiT_3mod
FN:65,_RINvYNtNtNtCsebiihMPZ3Ak_4wgpu3api6buffer6BufferNtNtCsap2RCL79A4I_14wgpu_3dgs_core6buffer13BufferWrapper12map_downloadNtNtBM_8gaussian37GaussianPodWithShNoneCov3dHalfConfigsECslQCpptksoiT_3mod
FN:65,_RINvYNtNtNtCsebiihMPZ3Ak_4wgpu3api6buffer6BufferNtNtCsap2RCL79A4I_14wgpu_3dgs_core6buffer13BufferWrapper12map_downloadNtNtBM_8gaussian38GaussianPodWithShNorm8Cov3dHalfConfigsECslQCpptksoiT_3mod
FN:65,_RINvYNtNtNtCsebiihMPZ3Ak_4wgpu3api6buffer6BufferNtNtCsap2RCL79A4I_14wgpu_3dgs_core6buffer13BufferWrapper12map_downloadNtNtBM_8gaussian39GaussianPodWithShHalfCov3dSingleConfigsECslQCpptksoiT_3mod
FN:65,_RINvYNtNtNtCsebiihMPZ3Ak_4wgpu3api6buffer6BufferNtNtCsap2RCL79A4I_14wgpu_3dgs_core6buffer13BufferWrapper12map_downloadNtNtBM_8gaussian39GaussianPodWithShNoneCov3dSingleConfigsECslQCpptksoiT_3mod
FN:65,_RINvYNtNtNtCsebiihMPZ3Ak_4wgpu3api6buffer6BufferNtNtCsap2RCL79A4I_14wgpu_3dgs_core6buffer13BufferWrapper12map_downloadNtNtBM_8gaussian39GaussianPodWithShSingleCov3dHalfConfigsECslQCpptksoiT_3mod
FN:65,_RINvYNtNtNtCsebiihMPZ3Ak_4wgpu3api6buffer6BufferNtNtCsap2RCL79A4I_14wgpu_3dgs_core6buffer13BufferWrapper12map_downloadNtNtBM_8gaussian40GaussianPodWithShNorm8Cov3dSingleConfigsECslQCpptksoiT_3mod
FN:65,_RINvYNtNtNtCsebiihMPZ3Ak_4wgpu3api6buffer6BufferNtNtCsap2RCL79A4I_14wgpu_3dgs_core6buffer13BufferWrapper12map_downloadNtNtBM_8gaussian41GaussianPodWithShHalfCov3dRotScaleConfigsECslQCpptksoiT_3mod
FN:65,_RINvYNtNtNtCsebiihMPZ3Ak_4wgpu3api6buffer6BufferNtNtCsap2RCL79A4I_14wgpu_3dgs_core6buffer13BufferWrapper12map_downloadNtNtBM_8gaussian41GaussianPodWithShNoneCov3dRotScaleConfigsECslQCpptksoiT_3mod
FN:65,_RINvYNtNtNtCsebiihMPZ3Ak_4wgpu3api6buffer6BufferNtNtCsap2RCL79A4I_14wgpu_3dgs_core6buffer13BufferWrapper12map_downloadNtNtBM_8gaussian41GaussianPodWithShSingleCov3dSingleConfigsECslQCpptksoiT_3mod
FN:65,_RINvYNtNtNtCsebiihMPZ3Ak_4wgpu3api6buffer6BufferNtNtCsap2RCL79A4I_14wgpu_3dgs_core6buffer13BufferWrapper12map_downloadNtNtBM_8gaussian42GaussianPodWithShNorm8Cov3dRotScaleConfigsECslQCpptksoiT_3mod
FN:65,_RINvYNtNtNtCsebiihMPZ3Ak_4wgpu3api6buffer6BufferNtNtCsap2RCL79A4I_14wgpu_3dgs_core6buffer13BufferWrapper12map_downloadNtNtBM_8gaussian43GaussianPodWithShSingleCov3dRotScaleConfigsECslQCpptksoiT_3mod
FN:65,_RINvYNtNtNtCsebiihMPZ3Ak_4wgpu3api6buffer6BufferNtNtCsap2RCL79A4I_14wgpu_3dgs_core6buffer13BufferWrapper12map_downloadNtNtNtCslQCpptksoiT_3mod6shader15model_transform6OutputEB1Y_
FN:65,_RINvYNtNtNtCsebiihMPZ3Ak_4wgpu3api6buffer6BufferNtNtCsap2RCL79A4I_14wgpu_3dgs_core6buffer13BufferWrapper12map_downloadNtNtNtCslQCpptksoiT_3mod6shader18gaussian_transform6OutputEB1Y_
FN:65,_RINvYNtNtNtCsebiihMPZ3Ak_4wgpu3api6buffer6BufferNtNtCsap2RCL79A4I_14wgpu_3dgs_core6buffer13BufferWrapper12map_downloadNtNtNtCslQCpptksoiT_3mod6shader8gaussian6OutputEB1Y_
FN:65,_RINvYNtNtNtCsebiihMPZ3Ak_4wgpu3api6buffer6BufferNtNtCsap2RCL79A4I_14wgpu_3dgs_core6buffer13BufferWrapper12map_downloadmECslQCpptksoiT_3mod
FN:22,_RINvYNtNtNtCsebiihMPZ3Ak_4wgpu3api6buffer6BufferNtNtCsap2RCL79A4I_14wgpu_3dgs_core6buffer13BufferWrapper8downloadNtNtBM_15model_transform17ModelTransformPodECslQCpptksoiT_3mod
FN:22,_RINvYNtNtNtCsebiihMPZ3Ak_4wgpu3api6buffer6BufferNtNtCsap2RCL79A4I_14wgpu_3dgs_core6buffer13BufferWrapper8downloadNtNtBM_18gaussian_transform20GaussianTransformPodECslQCpptksoiT_3mod
FN:22,_RINvYNtNtNtCsebiihMPZ3Ak_4wgpu3api6buffer6BufferNtNtCsap2RCL79A4I_14wgpu_3dgs_core6buffer13BufferWrapper8downloadNtNtBM_8gaussian37GaussianPodWithShHalfCov3dHalfConfigsECslQCpptksoiT_3mod
FN:22,_RINvYNtNtNtCsebiihMPZ3Ak_4wgpu3api6buffer6BufferNtNtCsap2RCL79A4I_14wgpu_3dgs_core6buffer13BufferWrapper8downloadNtNtBM_8gaussian37GaussianPodWithShNoneCov3dHalfConfigsECslQCpptksoiT_3mod
FN:22,_RINvYNtNtNtCsebiihMPZ3Ak_4wgpu3api6buffer6BufferNtNtCsap2RCL79A4I_14wgpu_3dgs_core6buffer13BufferWrapper8downloadNtNtBM_8gaussian38GaussianPodWithShNorm8Cov3dHalfConfigsECslQCpptksoiT_3mod
FN:22,_RINvYNtNtNtCsebiihMPZ3Ak_4wgpu3api6buffer6BufferNtNtCsap2RCL79A4I_14wgpu_3dgs_core6buffer13BufferWrapper8downloadNtNtBM_8gaussian39GaussianPodWithShHalfCov3dSingleConfigsECslQCpptksoiT_3mod
FN:22,_RINvYNtNtNtCsebiihMPZ3Ak_4wgpu3api6buffer6BufferNtNtCsap2RCL79A4I_14wgpu_3dgs_core6buffer13BufferWrapper8downloadNtNtBM_8gaussian39GaussianPodWithShNoneCov3dSingleConfigsECslQCpptksoiT_3mod
FN:22,_RINvYNtNtNtCsebiihMPZ3Ak_4wgpu3api6buffer6BufferNtNtCsap2RCL79A4I_14wgpu_3dgs_core6buffer13BufferWrapper8downloadNtNtBM_8gaussian39GaussianPodWithShSingleCov3dHalfConfigsECslQCpptksoiT_3mod
FN:22,_RINvYNtNtNtCsebiihMPZ3Ak_4wgpu3api6buffer6BufferNtNtCsap2RCL79A4I_14wgpu_3dgs_core6buffer13BufferWrapper8downloadNtNtBM_8gaussian40GaussianPodWithShNorm8Cov3dSingleConfigsECslQCpptksoiT_3mod
FN:22,_RINvYNtNtNtCsebiihMPZ3Ak_4wgpu3api6buffer6BufferNtNtCsap2RCL79A4I_14wgpu_3dgs_core6buffer13BufferWrapper8downloadNtNtBM_8gaussian41GaussianPodWithShHalfCov3dRotScaleConfigsECslQCpptksoiT_3mod
FN:22,_RINvYNtNtNtCsebiihMPZ3Ak_4wgpu3api6buffer6BufferNtNtCsap2RCL79A4I_14wgpu_3dgs_core6buffer13BufferWrapper8downloadNtNtBM_8gaussian41GaussianPodWithShNoneCov3dRotScaleConfigsECslQCpptksoiT_3mod
FN:22,_RINvYNtNtNtCsebiihMPZ3Ak_4wgpu3api6buffer6BufferNtNtCsap2RCL79A4I_14wgpu_3dgs_core6buffer13BufferWrapper8downloadNtNtBM_8gaussian41GaussianPodWithShSingleCov3dSingleConfigsECslQCpptksoiT_3mod
FN:22,_RINvYNtNtNtCsebiihMPZ3Ak_4wgpu3api6buffer6BufferNtNtCsap2RCL79A4I_14wgpu_3dgs_core6buffer13BufferWrapper8downloadNtNtBM_8gaussian42GaussianPodWithShNorm8Cov3dRotScaleConfigsECslQCpptksoiT_3mod
FN:22,_RINvYNtNtNtCsebiihMPZ3Ak_4wgpu3api6buffer6BufferNtNtCsap2RCL79A4I_14wgpu_3dgs_core6buffer13BufferWrapper8downloadNtNtBM_8gaussian43GaussianPodWithShSingleCov3dRotScaleConfigsECslQCpptksoiT_3mod
FN:22,_RINvYNtNtNtCsebiihMPZ3Ak_4wgpu3api6buffer6BufferNtNtCsap2RCL79A4I_14wgpu_3dgs_core6buffer13BufferWrapper8downloadNtNtNtCslQCpptksoiT_3mod6shader15model_transform6OutputEB1T_
FN:22,_RINvYNtNtNtCsebiihMPZ3Ak_4wgpu3api6buffer6BufferNtNtCsap2RCL79A4I_14wgpu_3dgs_core6buffer13BufferWrapper8downloadNtNtNtCslQCpptksoiT_3mod6shader18gaussian_transform6OutputEB1T_
FN:22,_RINvYNtNtNtCsebiihMPZ3Ak_4wgpu3api6buffer6BufferNtNtCsap2RCL79A4I_14wgpu_3dgs_core6buffer13BufferWrapper8downloadNtNtNtCslQCpptksoiT_3mod6shader8gaussian6OutputEB1T_
FN:22,_RINvYNtNtNtCsebiihMPZ3Ak_4wgpu3api6buffer6BufferNtNtCsap2RCL79A4I_14wgpu_3dgs_core6buffer13BufferWrapper8downloadmECslQCpptksoiT_3mod
FN:45,_RNvYNtNtNtCsebiihMPZ3Ak_4wgpu3api6buffer6BufferNtNtCsap2RCL79A4I_14wgpu_3dgs_core6buffer13BufferWrapper16prepare_downloadCslQCpptksoiT_3mod
FN:65,_RINvYNtNtNtCsap2RCL79A4I_14wgpu_3dgs_core6buffer18gaussian_transform23GaussianTransformBufferNtB7_13BufferWrapper12map_downloadNtB5_20GaussianTransformPodECslQCpptksoiT_3mod
FN:22,_RINvYNtNtNtCsap2RCL79A4I_14wgpu_3dgs_core6buffer18gaussian_transform23GaussianTransformBufferNtB7_13BufferWrapper8downloadNtB5_20GaussianTransformPodECslQCpptksoiT_3mod
FN:45,_RNvYNtNtNtCsap2RCL79A4I_14wgpu_3dgs_core6buffer18gaussian_transform23GaussianTransformBufferNtB6_13BufferWrapper16prepare_downloadCslQCpptksoiT_3mod
FN:120,_RNvYNtNtNtCsap2RCL79A4I_14wgpu_3dgs_core6buffer18gaussian_transform23GaussianTransformBufferNtB6_22FixedSizeBufferWrapper15download_singleCslQCpptksoiT_3mod
FN:65,_RINvYINtNtNtCsap2RCL79A4I_14wgpu_3dgs_core6buffer8gaussian15GaussiansBufferNtB6_37GaussianPodWithShHalfCov3dHalfConfigsENtB8_13BufferWrapper12map_downloadB1b_ECslQCpptksoiT_3mod
FN:22,_RINvYINtNtNtCsap2RCL79A4I_14wgpu_3dgs_core6buffer8gaussian15GaussiansBufferNtB6_37GaussianPodWithShHalfCov3dHalfConfigsENtB8_13BufferWrapper8downloadB1b_ECslQCpptksoiT_3mod
FN:65,_RINvYINtNtNtCsap2RCL79A4I_14wgpu_3dgs_core6buffer8gaussian15GaussiansBufferNtB6_37GaussianPodWithShNoneCov3dHalfConfigsENtB8_13BufferWrapper12map_downloadB1b_ECslQCpptksoiT_3mod
FN:22,_RINvYINtNtNtCsap2RCL79A4I_14wgpu_3dgs_core6buffer8gaussian15GaussiansBufferNtB6_37GaussianPodWithShNoneCov3dHalfConfigsENtB8_13BufferWrapper8downloadB1b_ECslQCpptksoiT_3mod
FN:65,_RINvYINtNtNtCsap2RCL79A4I_14wgpu_3dgs_core6buffer8gaussian15GaussiansBufferNtB6_38GaussianPodWithShNorm8Cov3dHalfConfigsENtB8_13BufferWrapper12map_downloadB1b_ECslQCpptksoiT_3mod
FN:22,_RINvYINtNtNtCsap2RCL79A4I_14wgpu_3dgs_core6buffer8gaussian15GaussiansBufferNtB6_38GaussianPodWithShNorm8Cov3dHalfConfigsENtB8_13BufferWrapper8downloadB1b_ECslQCpptksoiT_3mod
FN:65,_RINvYINtNtNtCsap2RCL79A4I_14wgpu_3dgs_core6buffer8gaussian15GaussiansBufferNtB6_39GaussianPodWithShHalfCov3dSingleConfigsENtB8_13BufferWrapper12map_downloadB1b_ECslQCpptksoiT_3mod
FN:22,_RINvYINtNtNtCsap2RCL79A4I_14wgpu_3dgs_core6buffer8gaussian15GaussiansBufferNtB6_39GaussianPodWithShHalfCov3dSingleConfigsENtB8_13BufferWrapper8downloadB1b_ECslQCpptksoiT_3mod
FN:65,_RINvYINtNtNtCsap2RCL79A4I_14wgpu_3dgs_core6buffer8gaussian15GaussiansBufferNtB6_39GaussianPodWithShNoneCov3dSingleConfigsENtB8_13BufferWrapper12map_downloadB1b_ECslQCpptksoiT_3mod
FN:22,_RINvYINtNtNtCsap2RCL79A4I_14wgpu_3dgs_core6buffer8gaussian15GaussiansBufferNtB6_39GaussianPodWithShNoneCov3dSingleConfigsENtB8_13BufferWrapper8downloadB1b_ECslQCpptksoiT_3mod
FN:65,_RINvYINtNtNtCsap2RCL79A4I_14wgpu_3dgs_core6buffer8gaussian15GaussiansBufferNtB6_39GaussianPodWithShSingleCov3dHalfConfigsENtB8_13BufferWrapper12map_downloadB1b_ECslQCpptksoiT_3mod
FN:22,_RINvYINtNtNtCsap2RCL79A4I_14wgpu_3dgs_core6buffer8gaussian15GaussiansBufferNtB6_39GaussianPodWithShSingleCov3dHalfConfigsENtB8_13BufferWrapper8downloadB1b_ECslQCpptksoiT_3mod
FN:65,_RINvYINtNtNtCsap2RCL79A4I_14wgpu_3dgs_core6buffer8gaussian15GaussiansBufferNtB6_40GaussianPodWithShNorm8Cov3dSingleConfigsENtB8_13BufferWrapper12map_downloadB1b_ECslQCpptksoiT_3mod
FN:22,_RINvYINtNtNtCsap2RCL79A4I_14wgpu_3dgs_core6buffer8gaussian15GaussiansBufferNtB6_40GaussianPodWithShNorm8Cov3dSingleConfigsENtB8_13BufferWrapper8downloadB1b_ECslQCpptksoiT_3mod
FN:65,_RINvYINtNtNtCsap2RCL79A4I_14wgpu_3dgs_core6buffer8gaussian15GaussiansBufferNtB6_41GaussianPodWithShHalfCov3dRotScaleConfigsENtB8_13BufferWrapper12map_downloadB1b_ECslQCpptksoiT_3mod
FN:22,_RINvYINtNtNtCsap2RCL79A4I_14wgpu_3dgs_core6buffer8gaussian15GaussiansBufferNtB6_41GaussianPodWithShHalfCov3dRotScaleConfigsENtB8_13BufferWrapper8downloadB1b_ECslQCpptksoiT_3mod
FN:65,_RINvYINtNtNtCsap2RCL79A4I_14wgpu_3dgs_core6buffer8gaussian15GaussiansBufferNtB6_41GaussianPodWithShNoneCov3dRotScaleConfigsENtB8_13BufferWrapper12map_downloadB1b_ECslQCpptksoiT_3mod
FN:22,_RINvYINtNtNtCsap2RCL79A4I_14wgpu_3dgs_core6buffer8gaussian15GaussiansBufferNtB6_41GaussianPodWithShNoneCov3dRotScaleConfigsENtB8_13BufferWrapper8downloadB1b_ECslQCpptksoiT_3mod
FN:65,_RINvYINtNtNtCsap2RCL79A4I_14wgpu_3dgs_core6buffer8gaussian15GaussiansBufferNtB6_41GaussianPodWithShSingleCov3dSingleConfigsENtB8_13BufferWrapper12map_downloadB1b_ECslQCpptksoiT_3mod
FN:22,_RINvYINtNtNtCsap2RCL79A4I_14wgpu_3dgs_core6buffer8gaussian15GaussiansBufferNtB6_41GaussianPodWithShSingleCov3dSingleConfigsENtB8_13BufferWrapper8downloadB1b_ECslQCpptksoiT_3mod
FN:65,_RINvYINtNtNtCsap2RCL79A4I_14wgpu_3dgs_core6buffer8gaussian15GaussiansBufferNtB6_42GaussianPodWithShNorm8Cov3dRotScaleConfigsENtB8_13BufferWrapper12map_downloadB1b_ECslQCpptksoiT_3mod
FN:22,_RINvYINtNtNtCsap2RCL79A4I_14wgpu_3dgs_core6buffer8gaussian15GaussiansBufferNtB6_42GaussianPodWithShNorm8Cov3dRotScaleConfigsENtB8_13BufferWrapper8downloadB1b_ECslQCpptksoiT_3mod
FN:65,_RINvYINtNtNtCsap2RCL79A4I_14wgpu_3dgs_core6buffer8gaussian15GaussiansBufferNtB6_43GaussianPodWithShSingleCov3dRotScaleConfigsENtB8_13BufferWrapper12map_downloadB1b_ECslQCpptksoiT_3mod
FN:22,_RINvYINtNtNtCsap2RCL79A4I_14wgpu_3dgs_core6buffer8gaussian15GaussiansBufferNtB6_43GaussianPodWithShSingleCov3dRotScaleConfigsENtB8_13BufferWrapper8downloadB1b_ECslQCpptksoiT_3mod
FN:45,_RNvYINtNtNtCsap2RCL79A4I_14wgpu_3dgs_core6buffer8gaussian15GaussiansBufferNtB5_37GaussianPodWithShHalfCov3dHalfConfigsENtB7_13BufferWrapper16prepare_downloadCslQCpptksoiT_3mod
FN:45,_RNvYINtNtNtCsap2RCL79A4I_14wgpu_3dgs_core6buffer8gaussian15GaussiansBufferNtB5_37GaussianPodWithShNoneCov3dHalfConfigsENtB7_13BufferWrapper16prepare_downloadCslQCpptksoiT_3mod
FN:45,_RNvYINtNtNtCsap2RCL79A4I_14wgpu_3dgs_core6buffer8gaussian15GaussiansBufferNtB5_38GaussianPodWithShNorm8Cov3dHalfConfigsENtB7_13BufferWrapper16prepare_downloadCslQCpptksoiT_3mod
FN:45,_RNvYINtNtNtCsap2RCL79A4I_14wgpu_3dgs_core6buffer8gaussian15GaussiansBufferNtB5_39GaussianPodWithShHalfCov3dSingleConfigsENtB7_13BufferWrapper16prepare_downloadCslQCpptksoiT_3mod
FN:45,_RNvYINtNtNtCsap2RCL79A4I_14wgpu_3dgs_core6buffer8gaussian15GaussiansBufferNtB5_39GaussianPodWithShNoneCov3dSingleConfigsENtB7_13BufferWrapper16prepare_downloadCslQCpptksoiT_3mod
FN:45,_RNvYINtNtNtCsap2RCL79A4I_14wgpu_3dgs_core6buffer8gaussian15GaussiansBufferNtB5_39GaussianPodWithShSingleCov3dHalfConfigsENtB7_13BufferWrapper16prepare_downloadCslQCpptksoiT_3mod
FN:45,_RNvYINtNtNtCsap2RCL79A4I_14wgpu_3dgs_core6buffer8gaussian15GaussiansBufferNtB5_40GaussianPodWithShNorm8Cov3dSingleConfigsENtB7_13BufferWrapper16prepare_downloadCslQCpptksoiT_3mod
FN:45,_RNvYINtNtNtCsap2RCL79A4I_14wgpu_3dgs_core6buffer8gaussian15GaussiansBufferNtB5_41GaussianPodWithShHalfCov3dRotScaleConfigsENtB7_13BufferWrapper16prepare_downloadCslQCpptksoiT_3mod
FN:45,_RNvYINtNtNtCsap2RCL79A4I_14wgpu_3dgs_core6buffer8gaussian15GaussiansBufferNtB5_41GaussianPodWithShNoneCov3dRotScaleConfigsENtB7_13BufferWrapper16prepare_downloadCslQCpptksoiT_3mod
FN:45,_RNvYINtNtNtCsap2RCL79A4I_14wgpu_3dgs_core6buffer8gaussian15GaussiansBufferNtB5_41GaussianPodWithShSingleCov3dSingleConfigsENtB7_13BufferWrapper16prepare_downloadCslQCpptksoiT_3mod
FN:45,_RNvYINtNtNtCsap2RCL79A4I_14wgpu_3dgs_core6buffer8gaussian15GaussiansBufferNtB5_42GaussianPodWithShNorm8Cov3dRotScaleConfigsENtB7_13BufferWrapper16prepare_downloadCslQCpptksoiT_3mod
FN:45,_RNvYINtNtNtCsap2RCL79A4I_14wgpu_3dgs_core6buffer8gaussian15GaussiansBufferNtB5_43GaussianPodWithShSingleCov3dRotScaleConfigsENtB7_13BufferWrapper16prepare_downloadCslQCpptksoiT_3mod
FN:65,_RINvYNtNtNtCsap2RCL79A4I_14wgpu_3dgs_core6buffer15model_transform20ModelTransformBufferNtB7_13BufferWrapper12map_downloadNtB5_17ModelTransformPodECslQCpptksoiT_3mod
FN:22,_RINvYNtNtNtCsap2RCL79A4I_14wgpu_3dgs_core6buffer15model_transform20ModelTransformBufferNtB7_13BufferWrapper8downloadNtB5_17ModelTransformPodECslQCpptksoiT_3mod
FN:45,_RNvYNtNtNtCsap2RCL79A4I_14wgpu_3dgs_core6buffer15model_transform20ModelTransformBufferNtB6_13BufferWrapper16prepare_downloadCslQCpptksoiT_3mod
FN:120,_RNvYNtNtNtCsap2RCL79A4I_14wgpu_3dgs_core6buffer15model_transform20ModelTransformBufferNtB6_22FixedSizeBufferWrapper15download_singleCslQCpptksoiT_3mod
FN:65,_RINvYNtNtCslQCpptksoiT_3mod6buffer17TestBufferWrapperNtNtCsap2RCL79A4I_14wgpu_3dgs_core6buffer13BufferWrapper12map_downloadmEB7_
FN:22,_RINvYNtNtCslQCpptksoiT_3mod6buffer17TestBufferWrapperNtNtCsap2RCL79A4I_14wgpu_3dgs_core6buffer13BufferWrapper8downloadmEB7_
FN:45,_RNvYNtNtCslQCpptksoiT_3mod6buffer17TestBufferWrapperNtNtCsap2RCL79A4I_14wgpu_3dgs_core6buffer13BufferWrapper16prepare_downloadB6_
FN:120,_RNvYNtNtCslQCpptksoiT_3mod6buffer17TestBufferWrapperNtNtCsap2RCL79A4I_14wgpu_3dgs_core6buffer22FixedSizeBufferWrapper15download_singleB6_
FN:107,_RNvYNtNtCslQCpptksoiT_3mod6buffer17TestBufferWrapperNtNtCsap2RCL79A4I_14wgpu_3dgs_core6buffer22FixedSizeBufferWrapper18verify_buffer_sizeB6_
FN:100,_RNvYNtNtCslQCpptksoiT_3mod6buffer17TestBufferWrapperNtNtCsap2RCL79A4I_14wgpu_3dgs_core6buffer22FixedSizeBufferWrapper8pod_sizeB6_
FN:89,_RNvXNtCsap2RCL79A4I_14wgpu_3dgs_core6bufferNtNtNtCsebiihMPZ3Ak_4wgpu3api6buffer6BufferNtB2_13BufferWrapper6buffer
FN:107,_RNvYNtNtNtCsap2RCL79A4I_14wgpu_3dgs_core6buffer18gaussian_transform23GaussianTransformBufferNtB6_22FixedSizeBufferWrapper18verify_buffer_sizeB8_
FN:100,_RNvYNtNtNtCsap2RCL79A4I_14wgpu_3dgs_core6buffer18gaussian_transform23GaussianTransformBufferNtB6_22FixedSizeBufferWrapper8pod_sizeB8_
FN:107,_RNvYNtNtNtCsap2RCL79A4I_14wgpu_3dgs_core6buffer15model_transform20ModelTransformBufferNtB6_22FixedSizeBufferWrapper18verify_buffer_sizeB8_
FN:100,_RNvYNtNtNtCsap2RCL79A4I_14wgpu_3dgs_core6buffer15model_transform20ModelTransformBufferNtB6_22FixedSizeBufferWrapper8pod_sizeB8_
FN:65,_RINvYpNtNtCs3bDQ3tnbls4_14wgpu_3dgs_core6buffer13BufferWrapper12map_downloadpEB8_
FN:22,_RINvYpNtNtCs3bDQ3tnbls4_14wgpu_3dgs_core6buffer13BufferWrapper8downloadpEB8_
FN:69,_RNCINvYpNtNtCs3bDQ3tnbls4_14wgpu_3dgs_core6buffer13BufferWrapper12map_downloadpE0Ba_
FN:30,_RNCINvYpNtNtCs3bDQ3tnbls4_14wgpu_3dgs_core6buffer13BufferWrapper8downloadpE0Ba_
FN:72,_RNCNCINvYpNtNtCs3bDQ3tnbls4_14wgpu_3dgs_core6buffer13BufferWrapper12map_downloadpE00Bc_
FN:129,_RNCNvYpNtNtCs3bDQ3tnbls4_14wgpu_3dgs_core6buffer22FixedSizeBufferWrapper15download_single0B9_
FN:89,_RNvXNtCs3bDQ3tnbls4_14wgpu_3dgs_core6bufferNtNtNtCsebiihMPZ3Ak_4wgpu3api6buffer6BufferNtB2_13BufferWrapper6buffer
FN:45,_RNvYpNtNtCs3bDQ3tnbls4_14wgpu_3dgs_core6buffer13BufferWrapper16prepare_downloadB7_
FN:120,_RNvYpNtNtCs3bDQ3tnbls4_14wgpu_3dgs_core6buffer22FixedSizeBufferWrapper15download_singleB7_
FN:107,_RNvYpNtNtCs3bDQ3tnbls4_14wgpu_3dgs_core6buffer22FixedSizeBufferWrapper18verify_buffer_sizeB7_
FN:100,_RNvYpNtNtCs3bDQ3tnbls4_14wgpu_3dgs_core6buffer22FixedSizeBufferWrapper8pod_sizeB7_
FNDA:5,_RNCINvYINtNtNtCsap2RCL79A4I_14wgpu_3dgs_core6buffer8gaussian15GaussiansBufferNtB8_37GaussianPodWithShHalfCov3dHalfConfigsENtBa_13BufferWrapper12map_downloadB1d_E0CslQCpptksoiT_3mod
FNDA:5,_RNCINvYINtNtNtCsap2RCL79A4I_14wgpu_3dgs_core6buffer8gaussian15GaussiansBufferNtB8_37GaussianPodWithShHalfCov3dHalfConfigsENtBa_13BufferWrapper8downloadB1d_E0CslQCpptksoiT_3mod
FNDA:5,_RNCINvYINtNtNtCsap2RCL79A4I_14wgpu_3dgs_core6buffer8gaussian15GaussiansBufferNtB8_37GaussianPodWithShNoneCov3dHalfConfigsENtBa_13BufferWrapper12map_downloadB1d_E0CslQCpptksoiT_3mod
FNDA:5,_RNCINvYINtNtNtCsap2RCL79A4I_14wgpu_3dgs_core6buffer8gaussian15GaussiansBufferNtB8_37GaussianPodWithShNoneCov3dHalfConfigsENtBa_13BufferWrapper8downloadB1d_E0CslQCpptksoiT_3mod
FNDA:5,_RNCINvYINtNtNtCsap2RCL79A4I_14wgpu_3dgs_core6buffer8gaussian15GaussiansBufferNtB8_38GaussianPodWithShNorm8Cov3dHalfConfigsENtBa_13BufferWrapper12map_downloadB1d_E0CslQCpptksoiT_3mod
FNDA:5,_RNCINvYINtNtNtCsap2RCL79A4I_14wgpu_3dgs_core6buffer8gaussian15GaussiansBufferNtB8_38GaussianPodWithShNorm8Cov3dHalfConfigsENtBa_13BufferWrapper8downloadB1d_E0CslQCpptksoiT_3mod
FNDA:5,_RNCINvYINtNtNtCsap2RCL79A4I_14wgpu_3dgs_core6buffer8gaussian15GaussiansBufferNtB8_39GaussianPodWithShHalfCov3dSingleConfigsENtBa_13BufferWrapper12map_downloadB1d_E0CslQCpptksoiT_3mod
FNDA:5,_RNCINvYINtNtNtCsap2RCL79A4I_14wgpu_3dgs_core6buffer8gaussian15GaussiansBufferNtB8_39GaussianPodWithShHalfCov3dSingleConfigsENtBa_13BufferWrapper8downloadB1d_E0CslQCpptksoiT_3mod
FNDA:5,_RNCINvYINtNtNtCsap2RCL79A4I_14wgpu_3dgs_core6buffer8gaussian15GaussiansBufferNtB8_39GaussianPodWithShNoneCov3dSingleConfigsENtBa_13BufferWrapper12map_downloadB1d_E0CslQCpptksoiT_3mod
FNDA:5,_RNCINvYINtNtNtCsap2RCL79A4I_14wgpu_3dgs_core6buffer8gaussian15GaussiansBufferNtB8_39GaussianPodWithShNoneCov3dSingleConfigsENtBa_13BufferWrapper8downloadB1d_E0CslQCpptksoiT_3mod
FNDA:5,_RNCINvYINtNtNtCsap2RCL79A4I_14wgpu_3dgs_core6buffer8gaussian15GaussiansBufferNtB8_39GaussianPodWithShSingleCov3dHalfConfigsENtBa_13BufferWrapper12map_downloadB1d_E0CslQCpptksoiT_3mod
FNDA:5,_RNCINvYINtNtNtCsap2RCL79A4I_14wgpu_3dgs_core6buffer8gaussian15GaussiansBufferNtB8_39GaussianPodWithShSingleCov3dHalfConfigsENtBa_13BufferWrapper8downloadB1d_E0CslQCpptksoiT_3mod
FNDA:5,_RNCINvYINtNtNtCsap2RCL79A4I_14wgpu_3dgs_core6buffer8gaussian15GaussiansBufferNtB8_40GaussianPodWithShNorm8Cov3dSingleConfigsENtBa_13BufferWrapper12map_downloadB1d_E0CslQCpptksoiT_3mod
FNDA:5,_RNCINvYINtNtNtCsap2RCL79A4I_14wgpu_3dgs_core6buffer8gaussian15GaussiansBufferNtB8_40GaussianPodWithShNorm8Cov3dSingleConfigsENtBa_13BufferWrapper8downloadB1d_E0CslQCpptksoiT_3mod
FNDA:6,_RNCINvYINtNtNtCsap2RCL79A4I_14wgpu_3dgs_core6buffer8gaussian15GaussiansBufferNtB8_41GaussianPodWithShHalfCov3dRotScaleConfigsENtBa_13BufferWrapper12map_downloadB1d_E0CslQCpptksoiT_3mod
FNDA:6,_RNCINvYINtNtNtCsap2RCL79A4I_14wgpu_3dgs_core6buffer8gaussian15GaussiansBufferNtB8_41GaussianPodWithShHalfCov3dRotScaleConfigsENtBa_13BufferWrapper8downloadB1d_E0CslQCpptksoiT_3mod
FNDA:5,_RNCINvYINtNtNtCsap2RCL79A4I_14wgpu_3dgs_core6buffer8gaussian15GaussiansBufferNtB8_41GaussianPodWithShNoneCov3dRotScaleConfigsENtBa_13BufferWrapper12map_downloadB1d_E0CslQCpptksoiT_3mod
FNDA:5,_RNCINvYINtNtNtCsap2RCL79A4I_14wgpu_3dgs_core6buffer8gaussian15GaussiansBufferNtB8_41GaussianPodWithShNoneCov3dRotScaleConfigsENtBa_13BufferWrapper8downloadB1d_E0CslQCpptksoiT_3mod
FNDA:5,_RNCINvYINtNtNtCsap2RCL79A4I_14wgpu_3dgs_core6buffer8gaussian15GaussiansBufferNtB8_41GaussianPodWithShSingleCov3dSingleConfigsENtBa_13BufferWrapper12map_downloadB1d_E0CslQCpptksoiT_3mod
FNDA:5,_RNCINvYINtNtNtCsap2RCL79A4I_14wgpu_3dgs_core6buffer8gaussian15GaussiansBufferNtB8_41GaussianPodWithShSingleCov3dSingleConfigsENtBa_13BufferWrapper8downloadB1d_E0CslQCpptksoiT_3mod
FNDA:6,_RNCINvYINtNtNtCsap2RCL79A4I_14wgpu_3dgs_core6buffer8gaussian15GaussiansBufferNtB8_42GaussianPodWithShNorm8Cov3dRotScaleConfigsENtBa_13BufferWrapper12map_downloadB1d_E0CslQCpptksoiT_3mod
FNDA:6,_RNCINvYINtNtNtCsap2RCL79A4I_14wgpu_3dgs_core6buffer8gaussian15GaussiansBufferNtB8_42GaussianPodWithShNorm8Cov3dRotScaleConfigsENtBa_13BufferWrapper8downloadB1d_E0CslQCpptksoiT_3mod
FNDA:6,_RNCINvYINtNtNtCsap2RCL79A4I_14wgpu_3dgs_core6buffer8gaussian15GaussiansBufferNtB8_43GaussianPodWithShSingleCov3dRotScaleConfigsENtBa_13BufferWrapper12map_downloadB1d_E0CslQCpptksoiT_3mod
FNDA:6,_RNCINvYINtNtNtCsap2RCL79A4I_14wgpu_3dgs_core6buffer8gaussian15GaussiansBufferNtB8_43GaussianPodWithShSingleCov3dRotScaleConfigsENtBa_13BufferWrapper8downloadB1d_E0CslQCpptksoiT_3mod
FNDA:1,_RNCINvYNtNtCslQCpptksoiT_3mod6buffer17TestBufferWrapperNtNtCsap2RCL79A4I_14wgpu_3dgs_core6buffer13BufferWrapper12map_downloadmE0B9_
FNDA:1,_RNCINvYNtNtCslQCpptksoiT_3mod6buffer17TestBufferWrapperNtNtCsap2RCL79A4I_14wgpu_3dgs_core6buffer13BufferWrapper8downloadmE0B9_
FNDA:2,_RNCINvYNtNtNtCsap2RCL79A4I_14wgpu_3dgs_core6buffer15model_transform20ModelTransformBufferNtB9_13BufferWrapper12map_downloadNtB7_17ModelTransformPodE0CslQCpptksoiT_3mod
FNDA:2,_RNCINvYNtNtNtCsap2RCL79A4I_14wgpu_3dgs_core6buffer15model_transform20ModelTransformBufferNtB9_13BufferWrapper8downloadNtB7_17ModelTransformPodE0CslQCpptksoiT_3mod
FNDA:2,_RNCINvYNtNtNtCsap2RCL79A4I_14wgpu_3dgs_core6buffer18gaussian_transform23GaussianTransformBufferNtB9_13BufferWrapper12map_downloadNtB7_20GaussianTransformPodE0CslQCpptksoiT_3mod
FNDA:2,_RNCINvYNtNtNtCsap2RCL79A4I_14wgpu_3dgs_core6buffer18gaussian_transform23GaussianTransformBufferNtB9_13BufferWrapper8downloadNtB7_20GaussianTransformPodE0CslQCpptksoiT_3mod
FNDA:2,_RNCINvYNtNtNtCsebiihMPZ3Ak_4wgpu3api6buffer6BufferNtNtCsap2RCL79A4I_14wgpu_3dgs_core6buffer13BufferWrapper12map_downloadNtNtBO_15model_transform17ModelTransformPodE0CslQCpptksoiT_3mod
FNDA:2,_RNCINvYNtNtNtCsebiihMPZ3Ak_4wgpu3api6buffer6BufferNtNtCsap2RCL79A4I_14wgpu_3dgs_core6buffer13BufferWrapper12map_downloadNtNtBO_18gaussian_transform20GaussianTransformPodE0CslQCpptksoiT_3mod
FNDA:3,_RNCINvYNtNtNtCsebiihMPZ3Ak_4wgpu3api6buffer6BufferNtNtCsap2RCL79A4I_14wgpu_3dgs_core6buffer13BufferWrapper12map_downloadNtNtBO_8gaussian37GaussianPodWithShHalfCov3dHalfConfigsE0CslQCpptksoiT_3mod
FNDA:3,_RNCINvYNtNtNtCsebiihMPZ3Ak_4wgpu3api6buffer6BufferNtNtCsap2RCL79A4I_14wgpu_3dgs_core6buffer13BufferWrapper12map_downloadNtNtBO_8gaussian37GaussianPodWithShNoneCov3dHalfConfigsE0CslQCpptksoiT_3mod
FNDA:3,_RNCINvYNtNtNtCsebiihMPZ3Ak_4wgpu3api6buffer6BufferNtNtCsap2RCL79A4I_14wgpu_3dgs_core6buffer13BufferWrapper12map_downloadNtNtBO_8gaussian38GaussianPodWithShNorm8Cov3dHalfConfigsE0CslQCpptksoiT_3mod
FNDA:3,_RNCINvYNtNtNtCsebiihMPZ3Ak_4wgpu3api6buffer6BufferNtNtCsap2RCL79A4I_14wgpu_3dgs_core6buffer13BufferWrapper12map_downloadNtNtBO_8gaussian39GaussianPodWithShHalfCov3dSingleConfigsE0CslQCpptksoiT_3mod
FNDA:3,_RNCINvYNtNtNtCsebiihMPZ3Ak_4wgpu3api6buffer6BufferNtNtCsap2RCL79A4I_14wgpu_3dgs_core6buffer13BufferWrapper12map_downloadNtNtBO_8gaussian39GaussianPodWithShNoneCov3dSingleConfigsE0CslQCpptksoiT_3mod
FNDA:3,_RNCINvYNtNtNtCsebiihMPZ3Ak_4wgpu3api6buffer6BufferNtNtCsap2RCL79A4I_14wgpu_3dgs_core6buffer13BufferWrapper12map_downloadNtNtBO_8gaussian39GaussianPodWithShSingleCov3dHalfConfigsE0CslQCpptksoiT_3mod
FNDA:3,_RNCINvYNtNtNtCsebiihMPZ3Ak_4wgpu3api6buffer6BufferNtNtCsap2RCL79A4I_14wgpu_3dgs_core6buffer13BufferWrapper12map_downloadNtNtBO_8gaussian40GaussianPodWithShNorm8Cov3dSingleConfigsE0CslQCpptksoiT_3mod
FNDA:3,_RNCINvYNtNtNtCsebiihMPZ3Ak_4wgpu3api6buffer6BufferNtNtCsap2RCL79A4I_14wgpu_3dgs_core6buffer13BufferWrapper12map_downloadNtNtBO_8gaussian41GaussianPodWithShHalfCov3dRotScaleConfigsE0CslQCpptksoiT_3mod
FNDA:3,_RNCINvYNtNtNtCsebiihMPZ3Ak_4wgpu3api6buffer6BufferNtNtCsap2RCL79A4I_14wgpu_3dgs_core6buffer13BufferWrapper12map_downloadNtNtBO_8gaussian41GaussianPodWithShNoneCov3dRotScaleConfigsE0CslQCpptksoiT_3mod
FNDA:3,_RNCINvYNtNtNtCsebiihMPZ3Ak_4wgpu3api6buffer6BufferNtNtCsap2RCL79A4I_14wgpu_3dgs_core6buffer13BufferWrapper12map_downloadNtNtBO_8gaussian41GaussianPodWithShSingleCov3dSingleConfigsE0CslQCpptksoiT_3mod
FNDA:3,_RNCINvYNtNtNtCsebiihMPZ3Ak_4wgpu3api6buffer6BufferNtNtCsap2RCL79A4I_14wgpu_3dgs_core6buffer13BufferWrapper12map_downloadNtNtBO_8gaussian42GaussianPodWithShNorm8Cov3dRotScaleConfigsE0CslQCpptksoiT_3mod
FNDA:3,_RNCINvYNtNtNtCsebiihMPZ3Ak_4wgpu3api6buffer6BufferNtNtCsap2RCL79A4I_14wgpu_3dgs_core6buffer13BufferWrapper12map_downloadNtNtBO_8gaussian43GaussianPodWithShSingleCov3dRotScaleConfigsE0CslQCpptksoiT_3mod
FNDA:1,_RNCINvYNtNtNtCsebiihMPZ3Ak_4wgpu3api6buffer6BufferNtNtCsap2RCL79A4I_14wgpu_3dgs_core6buffer13BufferWrapper12map_downloadNtNtNtCslQCpptksoiT_3mod6shader15model_transform6OutputE0B20_
FNDA:1,_RNCINvYNtNtNtCsebiihMPZ3Ak_4wgpu3api6buffer6BufferNtNtCsap2RCL79A4I_14wgpu_3dgs_core6buffer13BufferWrapper12map_downloadNtNtNtCslQCpptksoiT_3mod6shader18gaussian_transform6OutputE0B20_
FNDA:7,_RNCINvYNtNtNtCsebiihMPZ3Ak_4wgpu3api6buffer6BufferNtNtCsap2RCL79A4I_14wgpu_3dgs_core6buffer13BufferWrapper12map_downloadNtNtNtCslQCpptksoiT_3mod6shader8gaussian6OutputE0B20_
FNDA:5,_RNCINvYNtNtNtCsebiihMPZ3Ak_4wgpu3api6buffer6BufferNtNtCsap2RCL79A4I_14wgpu_3dgs_core6buffer13BufferWrapper12map_downloadmE0CslQCpptksoiT_3mod
FNDA:2,_RNCINvYNtNtNtCsebiihMPZ3Ak_4wgpu3api6buffer6BufferNtNtCsap2RCL79A4I_14wgpu_3dgs_core6buffer13BufferWrapper8downloadNtNtBO_15model_transform17ModelTransformPodE0CslQCpptksoiT_3mod
FNDA:2,_RNCINvYNtNtNtCsebiihMPZ3Ak_4wgpu3api6buffer6BufferNtNtCsap2RCL79A4I_14wgpu_3dgs_core6buffer13BufferWrapper8downloadNtNtBO_18gaussian_transform20GaussianTransformPodE0CslQCpptksoiT_3mod
FNDA:3,_RNCINvYNtNtNtCsebiihMPZ3Ak_4wgpu3api6buffer6BufferNtNtCsap2RCL79A4I_14wgpu_3dgs_core6buffer13BufferWrapper8downloadNtNtBO_8gaussian37GaussianPodWithShHalfCov3dHalfConfigsE0CslQCpptksoiT_3mod
FNDA:3,_RNCINvYNtNtNtCsebiihMPZ3Ak_4wgpu3api6buffer6BufferNtNtCsap2RCL79A4I_14wgpu_3dgs_core6buffer13BufferWrapper8downloadNtNtBO_8gaussian37GaussianPodWithShNoneCov3dHalfConfigsE0CslQCpptksoiT_3mod
FNDA:3,_RNCINvYNtNtNtCsebiihMPZ3Ak_4wgpu3api6buffer6BufferNtNtCsap2RCL79A4I_14wgpu_3dgs_core6buffer13BufferWrapper8downloadNtNtBO_8gaussian38GaussianPodWithShNorm8Cov3dHalfConfigsE0CslQCpptksoiT_3mod
FNDA:3,_RNCINvYNtNtNtCsebiihMPZ3Ak_4wgpu3api6buffer6BufferNtNtCsap2RCL79A4I_14wgpu_3dgs_core6buffer13BufferWrapper8downloadNtNtBO_8gaussian39GaussianPodWithShHalfCov3dSingleConfigsE0CslQCpptksoiT_3mod
FNDA:3,_RNCINvYNtNtNtCsebiihMPZ3Ak_4wgpu3api6buffer6BufferNtNtCsap2RCL79A4I_14wgpu_3dgs_core6buffer13BufferWrapper8downloadNtNtBO_8gaussian39GaussianPodWithShNoneCov3dSingleConfigsE0CslQCpptksoiT_3mod
FNDA:3,_RNCINvYNtNtNtCsebiihMPZ3Ak_4wgpu3api6buffer6BufferNtNtCsap2RCL79A4I_14wgpu_3dgs_core6buffer13BufferWrapper8downloadNtNtBO_8gaussian39GaussianPodWithShSingleCov3dHalfConfigsE0CslQCpptksoiT_3mod
FNDA:3,_RNCINvYNtNtNtCsebiihMPZ3Ak_4wgpu3api6buffer6BufferNtNtCsap2RCL79A4I_14wgpu_3dgs_core6buffer13BufferWrapper8downloadNtNtBO_8gaussian40GaussianPodWithShNorm8Cov3dSingleConfigsE0CslQCpptksoiT_3mod
FNDA:3,_RNCINvYNtNtNtCsebiihMPZ3Ak_4wgpu3api6buffer6BufferNtNtCsap2RCL79A4I_14wgpu_3dgs_core6buffer13BufferWrapper8downloadNtNtBO_8gaussian41GaussianPodWithShHalfCov3dRotScaleConfigsE0CslQCpptksoiT_3mod
FNDA:3,_RNCINvYNtNtNtCsebiihMPZ3Ak_4wgpu3api6buffer6BufferNtNtCsap2RCL79A4I_14wgpu_3dgs_core6buffer13BufferWrapper8downloadNtNtBO_8gaussian41GaussianPodWithShNoneCov3dRotScaleConfigsE0CslQCpptksoiT_3mod
FNDA:3,_RNCINvYNtNtNtCsebiihMPZ3Ak_4wgpu3api6buffer6BufferNtNtCsap2RCL79A4I_14wgpu_3dgs_core6buffer13BufferWrapper8downloadNtNtBO_8gaussian41GaussianPodWithShSingleCov3dSingleConfigsE0CslQCpptksoiT_3mod
FNDA:3,_RNCINvYNtNtNtCsebiihMPZ3Ak_4wgpu3api6buffer6BufferNtNtCsap2RCL79A4I_14wgpu_3dgs_core6buffer13BufferWrapper8downloadNtNtBO_8gaussian42GaussianPodWithShNorm8Cov3dRotScaleConfigsE0CslQCpptksoiT_3mod
FNDA:3,_RNCINvYNtNtNtCsebiihMPZ3Ak_4wgpu3api6buffer6BufferNtNtCsap2RCL79A4I_14wgpu_3dgs_core6buffer13BufferWrapper8downloadNtNtBO_8gaussian43GaussianPodWithShSingleCov3dRotScaleConfigsE0CslQCpptksoiT_3mod
FNDA:1,_RNCINvYNtNtNtCsebiihMPZ3Ak_4wgpu3api6buffer6BufferNtNtCsap2RCL79A4I_14wgpu_3dgs_core6buffer13BufferWrapper8downloadNtNtNtCslQCpptksoiT_3mod6shader15model_transform6OutputE0B1V_
FNDA:1,_RNCINvYNtNtNtCsebiihMPZ3Ak_4wgpu3api6buffer6BufferNtNtCsap2RCL79A4I_14wgpu_3dgs_core6buffer13BufferWrapper8downloadNtNtNtCslQCpptksoiT_3mod6shader18gaussian_transform6OutputE0B1V_
FNDA:7,_RNCINvYNtNtNtCsebiihMPZ3Ak_4wgpu3api6buffer6BufferNtNtCsap2RCL79A4I_14wgpu_3dgs_core6buffer13BufferWrapper8downloadNtNtNtCslQCpptksoiT_3mod6shader8gaussian6OutputE0B1V_
FNDA:5,_RNCINvYNtNtNtCsebiihMPZ3Ak_4wgpu3api6buffer6BufferNtNtCsap2RCL79A4I_14wgpu_3dgs_core6buffer13BufferWrapper8downloadmE0CslQCpptksoiT_3mod
FNDA:5,_RNCNCINvYINtNtNtCsap2RCL79A4I_14wgpu_3dgs_core6buffer8gaussian15GaussiansBufferNtBa_37GaussianPodWithShHalfCov3dHalfConfigsENtBc_13BufferWrapper12map_downloadB1f_E00CslQCpptksoiT_3mod
FNDA:5,_RNCNCINvYINtNtNtCsap2RCL79A4I_14wgpu_3dgs_core6buffer8gaussian15GaussiansBufferNtBa_37GaussianPodWithShNoneCov3dHalfConfigsENtBc_13BufferWrapper12map_downloadB1f_E00CslQCpptksoiT_3mod
FNDA:5,_RNCNCINvYINtNtNtCsap2RCL79A4I_14wgpu_3dgs_core6buffer8gaussian15GaussiansBufferNtBa_38GaussianPodWithShNorm8Cov3dHalfConfigsENtBc_13BufferWrapper12map_downloadB1f_E00CslQCpptksoiT_3mod
FNDA:5,_RNCNCINvYINtNtNtCsap2RCL79A4I_14wgpu_3dgs_core6buffer8gaussian15GaussiansBufferNtBa_39GaussianPodWithShHalfCov3dSingleConfigsENtBc_13BufferWrapper12map_downloadB1f_E00CslQCpptksoiT_3mod
FNDA:5,_RNCNCINvYINtNtNtCsap2RCL79A4I_14wgpu_3dgs_core6buffer8gaussian15GaussiansBufferNtBa_39GaussianPodWithShNoneCov3dSingleConfigsENtBc_13BufferWrapper12map_downloadB1f_E00CslQCpptksoiT_3mod
FNDA:5,_RNCNCINvYINtNtNtCsap2RCL79A4I_14wgpu_3dgs_core6buffer8gaussian15GaussiansBufferNtBa_39GaussianPodWithShSingleCov3dHalfConfigsENtBc_13BufferWrapper12map_downloadB1f_E00CslQCpptksoiT_3mod
FNDA:5,_RNCNCINvYINtNtNtCsap2RCL79A4I_14wgpu_3dgs_core6buffer8gaussian15GaussiansBufferNtBa_40GaussianPodWithShNorm8Cov3dSingleConfigsENtBc_13BufferWrapper12map_downloadB1f_E00CslQCpptksoiT_3mod
FNDA:6,_RNCNCINvYINtNtNtCsap2RCL79A4I_14wgpu_3dgs_core6buffer8gaussian15GaussiansBufferNtBa_41GaussianPodWithShHalfCov3dRotScaleConfigsENtBc_13BufferWrapper12map_downloadB1f_E00CslQCpptksoiT_3mod
FNDA:5,_RNCNCINvYINtNtNtCsap2RCL79A4I_14wgpu_3dgs_core6buffer8gaussian15GaussiansBufferNtBa_41GaussianPodWithShNoneCov3dRotScaleConfigsENtBc_13BufferWrapper12map_downloadB1f_E00CslQCpptksoiT_3mod
FNDA:5,_RNCNCINvYINtNtNtCsap2RCL79A4I_14wgpu_3dgs_core6buffer8gaussian15GaussiansBufferNtBa_41GaussianPodWithShSingleCov3dSingleConfigsENtBc_13BufferWrapper12map_downloadB1f_E00CslQCpptksoiT_3mod
FNDA:6,_RNCNCINvYINtNtNtCsap2RCL79A4I_14wgpu_3dgs_core6buffer8gaussian15GaussiansBufferNtBa_42GaussianPodWithShNorm8Cov3dRotScaleConfigsENtBc_13BufferWrapper12map_downloadB1f_E00CslQCpptksoiT_3mod
FNDA:6,_RNCNCINvYINtNtNtCsap2RCL79A4I_14wgpu_3dgs_core6buffer8gaussian15GaussiansBufferNtBa_43GaussianPodWithShSingleCov3dRotScaleConfigsENtBc_13BufferWrapper12map_downloadB1f_E00CslQCpptksoiT_3mod
FNDA:1,_RNCNCINvYNtNtCslQCpptksoiT_3mod6buffer17TestBufferWrapperNtNtCsap2RCL79A4I_14wgpu_3dgs_core6buffer13BufferWrapper12map_downloadmE00Bb_
FNDA:2,_RNCNCINvYNtNtNtCsap2RCL79A4I_14wgpu_3dgs_core6buffer15model_transform20ModelTransformBufferNtBb_13BufferWrapper12map_downloadNtB9_17ModelTransformPodE00CslQCpptksoiT_3mod
FNDA:2,_RNCNCINvYNtNtNtCsap2RCL79A4I_14wgpu_3dgs_core6buffer18gaussian_transform23GaussianTransformBufferNtBb_13BufferWrapper12map_downloadNtB9_20GaussianTransformPodE00CslQCpptksoiT_3mod
FNDA:2,_RNCNCINvYNtNtNtCsebiihMPZ3Ak_4wgpu3api6buffer6BufferNtNtCsap2RCL79A4I_14wgpu_3dgs_core6buffer13BufferWrapper12map_downloadNtNtBQ_15model_transform17ModelTransformPodE00CslQCpptksoiT_3mod
FNDA:2,_RNCNCINvYNtNtNtCsebiihMPZ3Ak_4wgpu3api6buffer6BufferNtNtCsap2RCL79A4I_14wgpu_3dgs_core6buffer13BufferWrapper12map_downloadNtNtBQ_18gaussian_transform20GaussianTransformPodE00CslQCpptksoiT_3mod
FNDA:3,_RNCNCINvYNtNtNtCsebiihMPZ3Ak_4wgpu3api6buffer6BufferNtNtCsap2RCL79A4I_14wgpu_3dgs_core6buffer13BufferWrapper12map_downloadNtNtBQ_8gaussian37GaussianPodWithShHalfCov3dHalfConfigsE00CslQCpptksoiT_3mod
FNDA:3,_RNCNCINvYNtNtNtCsebiihMPZ3Ak_4wgpu3api6buffer6BufferNtNtCsap2RCL79A4I_14wgpu_3dgs_core6buffer13BufferWrapper12map_downloadNtNtBQ_8gaussian37GaussianPodWithShNoneCov3dHalfConfigsE00CslQCpptksoiT_3mod
FNDA:3,_RNCNCINvYNtNtNtCsebiihMPZ3Ak_4wgpu3api6buffer6BufferNtNtCsap2RCL79A4I_14wgpu_3dgs_core6buffer13BufferWrapper12map_downloadNtNtBQ_8gaussian38GaussianPodWithShNorm8Cov3dHalfConfigsE00CslQCpptksoiT_3mod
FNDA:3,_RNCNCINvYNtNtNtCsebiihMPZ3Ak_4wgpu3api6buffer6BufferNtNtCsap2RCL79A4I_14wgpu_3dgs_core6buffer13BufferWrapper12map_downloadNtNtBQ_8gaussian39GaussianPodWithShHalfCov3dSingleConfigsE00CslQCpptksoiT_3mod
FNDA:3,_RNCNCINvYNtNtNtCsebiihMPZ3Ak_4wgpu3api6buffer6BufferNtNtCsap2RCL79A4I_14wgpu_3dgs_core6buffer13BufferWrapper12map_downloadNtNtBQ_8gaussian39GaussianPodWithShNoneCov3dSingleConfigsE00CslQCpptksoiT_3mod
FNDA:3,_RNCNCINvYNtNtNtCsebiihMPZ3Ak_4wgpu3api6buffer6BufferNtNtCsap2RCL79A4I_14wgpu_3dgs_core6buffer13BufferWrapper12map_downloadNtNtBQ_8gaussian39GaussianPodWithShSingleCov3dHalfConfigsE00CslQCpptksoiT_3mod
FNDA:3,_RNCNCINvYNtNtNtCsebiihMPZ3Ak_4wgpu3api6buffer6BufferNtNtCsap2RCL79A4I_14wgpu_3dgs_core6buffer13BufferWrapper12map_downloadNtNtBQ_8gaussian40GaussianPodWithShNorm8Cov3dSingleConfigsE00CslQCpptksoiT_3mod
FNDA:3,_RNCNCINvYNtNtNtCsebiihMPZ3Ak_4wgpu3api6buffer6BufferNtNtCsap2RCL79A4I_14wgpu_3dgs_core6buffer13BufferWrapper12map_downloadNtNtBQ_8gaussian41GaussianPodWithShHalfCov3dRotScaleConfigsE00CslQCpptksoiT_3mod
FNDA:3,_RNCNCINvYNtNtNtCsebiihMPZ3Ak_4wgpu3api6buffer6BufferNtNtCsap2RCL79A4I_14wgpu_3dgs_core6buffer13BufferWrapper12map_downloadNtNtBQ_8gaussian41GaussianPodWithShNoneCov3dRotScaleConfigsE00CslQCpptksoiT_3mod
FNDA:3,_RNCNCINvYNtNtNtCsebiihMPZ3Ak_4wgpu3api6buffer6BufferNtNtCsap2RCL79A4I_14wgpu_3dgs_core6buffer13BufferWrapper12map_downloadNtNtBQ_8gaussian41GaussianPodWithShSingleCov3dSingleConfigsE00CslQCpptksoiT_3mod
FNDA:3,_RNCNCINvYNtNtNtCsebiihMPZ3Ak_4wgpu3api6buffer6BufferNtNtCsap2RCL79A4I_14wgpu_3dgs_core6buffer13BufferWrapper12map_downloadNtNtBQ_8gaussian42GaussianPodWithShNorm8Cov3dRotScaleConfigsE00CslQCpptksoiT_3mod
FNDA:3,_RNCNCINvYNtNtNtCsebiihMPZ3Ak_4wgpu3api6buffer6BufferNtNtCsap2RCL79A4I_14wgpu_3dgs_core6buffer13BufferWrapper12map_downloadNtNtBQ_8gaussian43GaussianPodWithShSingleCov3dRotScaleConfigsE00CslQCpptksoiT_3mod
FNDA:1,_RNCNCINvYNtNtNtCsebiihMPZ3Ak_4wgpu3api6buffer6BufferNtNtCsap2RCL79A4I_14wgpu_3dgs_core6buffer13BufferWrapper12map_downloadNtNtNtCslQCpptksoiT_3mod6shader15model_transform6OutputE00B22_
FNDA:1,_RNCNCINvYNtNtNtCsebiihMPZ3Ak_4wgpu3api6buffer6BufferNtNtCsap2RCL79A4I_14wgpu_3dgs_core6buffer13BufferWrapper12map_downloadNtNtNtCslQCpptksoiT_3mod6shader18gaussian_transform6OutputE00B22_
FNDA:7,_RNCNCINvYNtNtNtCsebiihMPZ3Ak_4wgpu3api6buffer6BufferNtNtCsap2RCL79A4I_14wgpu_3dgs_core6buffer13BufferWrapper12map_downloadNtNtNtCslQCpptksoiT_3mod6shader8gaussian6OutputE00B22_
FNDA:5,_RNCNCINvYNtNtNtCsebiihMPZ3Ak_4wgpu3api6buffer6BufferNtNtCsap2RCL79A4I_14wgpu_3dgs_core6buffer13BufferWrapper12map_downloadmE00CslQCpptksoiT_3mod
FNDA:1,_RNCNvYNtNtCslQCpptksoiT_3mod6buffer17TestBufferWrapperNtNtCsap2RCL79A4I_14wgpu_3dgs_core6buffer22FixedSizeBufferWrapper15download_single0B8_
FNDA:1,_RNCNvYNtNtNtCsap2RCL79A4I_14wgpu_3dgs_core6buffer15model_transform20ModelTransformBufferNtB8_22FixedSizeBufferWrapper15download_single0CslQCpptksoiT_3mod
FNDA:1,_RNCNvYNtNtNtCsap2RCL79A4I_14wgpu_3dgs_core6buffer18gaussian_transform23GaussianTransformBufferNtB8_22FixedSizeBufferWrapper15download_single0CslQCpptksoiT_3mod
FNDA:2,_RINvYNtNtNtCsebiihMPZ3Ak_4wgpu3api6buffer6BufferNtNtCsap2RCL79A4I_14wgpu_3dgs_core6buffer13BufferWrapper12map_downloadNtNtBM_15model_transform17ModelTransformPodECslQCpptksoiT_3mod
FNDA:2,_RINvYNtNtNtCsebiihMPZ3Ak_4wgpu3api6buffer6BufferNtNtCsap2RCL79A4I_14wgpu_3dgs_core6buffer13BufferWrapper12map_downloadNtNtBM_18gaussian_transform20GaussianTransformPodECslQCpptksoiT_3mod
FNDA:3,_RINvYNtNtNtCsebiihMPZ3Ak_4wgpu3api6buffer6BufferNtNtCsap2RCL79A4I_14wgpu_3dgs_core6buffer13BufferWrapper12map_downloadNtNtBM_8gaussian37GaussianPodWithShHalfCov3dHalfConfigsECslQCpptksoiT_3mod
FNDA:3,_RINvYNtNtNtCsebiihMPZ3Ak_4wgpu3api6buffer6BufferNtNtCsap2RCL79A4I_14wgpu_3dgs_core6buffer13BufferWrapper12map_downloadNtNtBM_8gaussian37GaussianPodWithShNoneCov3dHalfConfigsECslQCpptksoiT_3mod
FNDA:3,_RINvYNtNtNtCsebiihMPZ3Ak_4wgpu3api6buffer6BufferNtNtCsap2RCL79A4I_14wgpu_3dgs_core6buffer13BufferWrapper12map_downloadNtNtBM_8gaussian38GaussianPodWithShNorm8Cov3dHalfConfigsECslQCpptksoiT_3mod
FNDA:3,_RINvYNtNtNtCsebiihMPZ3Ak_4wgpu3api6buffer6BufferNtNtCsap2RCL79A4I_14wgpu_3dgs_core6buffer13BufferWrapper12map_downloadNtNtBM_8gaussian39GaussianPodWithShHalfCov3dSingleConfigsECslQCpptksoiT_3mod
FNDA:3,_RINvYNtNtNtCsebiihMPZ3Ak_4wgpu3api6buffer6BufferNtNtCsap2RCL79A4I_14wgpu_3dgs_core6buffer13BufferWrapper12map_downloadNtNtBM_8gaussian39GaussianPodWithShNoneCov3dSingleConfigsECslQCpptksoiT_3mod
FNDA:3,_RINvYNtNtNtCsebiihMPZ3Ak_4wgpu3api6buffer6BufferNtNtCsap2RCL79A4I_14wgpu_3dgs_core6buffer13BufferWrapper12map_downloadNtNtBM_8gaussian39GaussianPodWithShSingleCov3dHalfConfigsECslQCpptksoiT_3mod
FNDA:3,_RINvYNtNtNtCsebiihMPZ3Ak_4wgpu3api6buffer6BufferNtNtCsap2RCL79A4I_14wgpu_3dgs_core6buffer13BufferWrapper12map_downloadNtNtBM_8gaussian40GaussianPodWithShNorm8Cov3dSingleConfigsECslQCpptksoiT_3mod
FNDA:3,_RINvYNtNtNtCsebiihMPZ3Ak_4wgpu3api6buffer6BufferNtNtCsap2RCL79A4I_14wgpu_3dgs_core6buffer13BufferWrapper12map_downloadNtNtBM_8gaussian41GaussianPodWithShHalfCov3dRotScaleConfigsECslQCpptksoiT_3mod
FNDA:3,_RINvYNtNtNtCsebiihMPZ3Ak_4wgpu3api6buffer6BufferNtNtCsap2RCL79A4I_14wgpu_3dgs_core6buffer13BufferWrapper12map_downloadNtNtBM_8gaussian41GaussianPodWithShNoneCov3dRotScaleConfigsECslQCpptksoiT_3mod
FNDA:3,_RINvYNtNtNtCsebiihMPZ3Ak_4wgpu3api6buffer6BufferNtNtCsap2RCL79A4I_14wgpu_3dgs_core6buffer13BufferWrapper12map_downloadNtNtBM_8gaussian41GaussianPodWithShSingleCov3dSingleConfigsECslQCpptksoiT_3mod
FNDA:3,_RINvYNtNtNtCsebiihMPZ3Ak_4wgpu3api6buffer6BufferNtNtCsap2RCL79A4I_14wgpu_3dgs_core6buffer13BufferWrapper12map_downloadNtNtBM_8gaussian42GaussianPodWithShNorm8Cov3dRotScaleConfigsECslQCpptksoiT_3mod
FNDA:3,_RINvYNtNtNtCsebiihMPZ3Ak_4wgpu3api6buffer6BufferNtNtCsap2RCL79A4I_14wgpu_3dgs_core6buffer13BufferWrapper12map_downloadNtNtBM_8gaussian43GaussianPodWithShSingleCov3dRotScaleConfigsECslQCpptksoiT_3mod
FNDA:1,_RINvYNtNtNtCsebiihMPZ3Ak_4wgpu3api6buffer6BufferNtNtCsap2RCL79A4I_14wgpu_3dgs_core6buffer13BufferWrapper12map_downloadNtNtNtCslQCpptksoiT_3mod6shader15model_transform6OutputEB1Y_
FNDA:1,_RINvYNtNtNtCsebiihMPZ3Ak_4wgpu3api6buffer6BufferNtNtCsap2RCL79A4I_14wgpu_3dgs_core6buffer13BufferWrapper12map_downloadNtNtNtCslQCpptksoiT_3mod6shader18gaussian_transform6OutputEB1Y_
FNDA:7,_RINvYNtNtNtCsebiihMPZ3Ak_4wgpu3api6buffer6BufferNtNtCsap2RCL79A4I_14wgpu_3dgs_core6buffer13BufferWrapper12map_downloadNtNtNtCslQCpptksoiT_3mod6shader8gaussian6OutputEB1Y_
FNDA:5,_RINvYNtNtNtCsebiihMPZ3Ak_4wgpu3api6buffer6BufferNtNtCsap2RCL79A4I_14wgpu_3dgs_core6buffer13BufferWrapper12map_downloadmECslQCpptksoiT_3mod
FNDA:2,_RINvYNtNtNtCsebiihMPZ3Ak_4wgpu3api6buffer6BufferNtNtCsap2RCL79A4I_14wgpu_3dgs_core6buffer13BufferWrapper8downloadNtNtBM_15model_transform17ModelTransformPodECslQCpptksoiT_3mod
FNDA:2,_RINvYNtNtNtCsebiihMPZ3Ak_4wgpu3api6buffer6BufferNtNtCsap2RCL79A4I_14wgpu_3dgs_core6buffer13BufferWrapper8downloadNtNtBM_18gaussian_transform20GaussianTransformPodECslQCpptksoiT_3mod
FNDA:3,_RINvYNtNtNtCsebiihMPZ3Ak_4wgpu3api6buffer6BufferNtNtCsap2RCL79A4I_14wgpu_3dgs_core6buffer13BufferWrapper8downloadNtNtBM_8gaussian37GaussianPodWithShHalfCov3dHalfConfigsECslQCpptksoiT_3mod
FNDA:3,_RINvYNtNtNtCsebiihMPZ3Ak_4wgpu3api6buffer6BufferNtNtCsap2RCL79A4I_14wgpu_3dgs_core6buffer13BufferWrapper8downloadNtNtBM_8gaussian37GaussianPodWithShNoneCov3dHalfConfigsECslQCpptksoiT_3mod
FNDA:3,_RINvYNtNtNtCsebiihMPZ3Ak_4wgpu3api6buffer6BufferNtNtCsap2RCL79A4I_14wgpu_3dgs_core6buffer13BufferWrapper8downloadNtNtBM_8gaussian38GaussianPodWithShNorm8Cov3dHalfConfigsECslQCpptksoiT_3mod
FNDA:3,_RINvYNtNtNtCsebiihMPZ3Ak_4wgpu3api6buffer6BufferNtNtCsap2RCL79A4I_14wgpu_3dgs_core6buffer13BufferWrapper8downloadNtNtBM_8gaussian39GaussianPodWithShHalfCov3dSingleConfigsECslQCpptksoiT_3mod
FNDA:3,_RINvYNtNtNtCsebiihMPZ3Ak_4wgpu3api6buffer6BufferNtNtCsap2RCL79A4I_14wgpu_3dgs_core6buffer13BufferWrapper8downloadNtNtBM_8gaussian39GaussianPodWithShNoneCov3dSingleConfigsECslQCpptksoiT_3mod
FNDA:3,_RINvYNtNtNtCsebiihMPZ3Ak_4wgpu3api6buffer6BufferNtNtCsap2RCL79A4I_14wgpu_3dgs_core6buffer13BufferWrapper8downloadNtNtBM_8gaussian39GaussianPodWithShSingleCov3dHalfConfigsECslQCpptksoiT_3mod
FNDA:3,_RINvYNtNtNtCsebiihMPZ3Ak_4wgpu3api6buffer6BufferNtNtCsap2RCL79A4I_14wgpu_3dgs_core6buffer13BufferWrapper8downloadNtNtBM_8gaussian40GaussianPodWithShNorm8Cov3dSingleConfigsECslQCpptksoiT_3mod
FNDA:3,_RINvYNtNtNtCsebiihMPZ3Ak_4wgpu3api6buffer6BufferNtNtCsap2RCL79A4I_14wgpu_3dgs_core6buffer13BufferWrapper8downloadNtNtBM_8gaussian41GaussianPodWithShHalfCov3dRotScaleConfigsECslQCpptksoiT_3mod
FNDA:3,_RINvYNtNtNtCsebiihMPZ3Ak_4wgpu3api6buffer6BufferNtNtCsap2RCL79A4I_14wgpu_3dgs_core6buffer13BufferWrapper8downloadNtNtBM_8gaussian41GaussianPodWithShNoneCov3dRotScaleConfigsECslQCpptksoiT_3mod
FNDA:3,_RINvYNtNtNtCsebiihMPZ3Ak_4wgpu3api6buffer6BufferNtNtCsap2RCL79A4I_14wgpu_3dgs_core6buffer13BufferWrapper8downloadNtNtBM_8gaussian41GaussianPodWithShSingleCov3dSingleConfigsECslQCpptksoiT_3mod
FNDA:3,_RINvYNtNtNtCsebiihMPZ3Ak_4wgpu3api6buffer6BufferNtNtCsap2RCL79A4I_14wgpu_3dgs_core6buffer13BufferWrapper8downloadNtNtBM_8gaussian42GaussianPodWithShNorm8Cov3dRotScaleConfigsECslQCpptksoiT_3mod
FNDA:3,_RINvYNtNtNtCsebiihMPZ3Ak_4wgpu3api6buffer6BufferNtNtCsap2RCL79A4I_14wgpu_3dgs_core6buffer13BufferWrapper8downloadNtNtBM_8gaussian43GaussianPodWithShSingleCov3dRotScaleConfigsECslQCpptksoiT_3mod
FNDA:1,_RINvYNtNtNtCsebiihMPZ3Ak_4wgpu3api6buffer6BufferNtNtCsap2RCL79A4I_14wgpu_3dgs_core6buffer13BufferWrapper8downloadNtNtNtCslQCpptksoiT_3mod6shader15model_transform6OutputEB1T_
FNDA:1,_RINvYNtNtNtCsebiihMPZ3Ak_4wgpu3api6buffer6BufferNtNtCsap2RCL79A4I_14wgpu_3dgs_core6buffer13BufferWrapper8downloadNtNtNtCslQCpptksoiT_3mod6shader18gaussian_transform6OutputEB1T_
FNDA:7,_RINvYNtNtNtCsebiihMPZ3Ak_4wgpu3api6buffer6BufferNtNtCsap2RCL79A4I_14wgpu_3dgs_core6buffer13BufferWrapper8downloadNtNtNtCslQCpptksoiT_3mod6shader8gaussian6OutputEB1T_
FNDA:5,_RINvYNtNtNtCsebiihMPZ3Ak_4wgpu3api6buffer6BufferNtNtCsap2RCL79A4I_14wgpu_3dgs_core6buffer13BufferWrapper8downloadmECslQCpptksoiT_3mod
FNDA:54,_RNvYNtNtNtCsebiihMPZ3Ak_4wgpu3api6buffer6BufferNtNtCsap2RCL79A4I_14wgpu_3dgs_core6buffer13BufferWrapper16prepare_downloadCslQCpptksoiT_3mod
FNDA:2,_RINvYNtNtNtCsap2RCL79A4I_14wgpu_3dgs_core6buffer18gaussian_transform23GaussianTransformBufferNtB7_13BufferWrapper12map_downloadNtB5_20GaussianTransformPodECslQCpptksoiT_3mod
FNDA:2,_RINvYNtNtNtCsap2RCL79A4I_14wgpu_3dgs_core6buffer18gaussian_transform23GaussianTransformBufferNtB7_13BufferWrapper8downloadNtB5_20GaussianTransformPodECslQCpptksoiT_3mod
FNDA:2,_RNvYNtNtNtCsap2RCL79A4I_14wgpu_3dgs_core6buffer18gaussian_transform23GaussianTransformBufferNtB6_13BufferWrapper16prepare_downloadCslQCpptksoiT_3mod
FNDA:1,_RNvYNtNtNtCsap2RCL79A4I_14wgpu_3dgs_core6buffer18gaussian_transform23GaussianTransformBufferNtB6_22FixedSizeBufferWrapper15download_singleCslQCpptksoiT_3mod
FNDA:5,_RINvYINtNtNtCsap2RCL79A4I_14wgpu_3dgs_core6buffer8gaussian15GaussiansBufferNtB6_37GaussianPodWithShHalfCov3dHalfConfigsENtB8_13BufferWrapper12map_downloadB1b_ECslQCpptksoiT_3mod
FNDA:5,_RINvYINtNtNtCsap2RCL79A4I_14wgpu_3dgs_core6buffer8gaussian15GaussiansBufferNtB6_37GaussianPodWithShHalfCov3dHalfConfigsENtB8_13BufferWrapper8downloadB1b_ECslQCpptksoiT_3mod
FNDA:5,_RINvYINtNtNtCsap2RCL79A4I_14wgpu_3dgs_core6buffer8gaussian15GaussiansBufferNtB6_37GaussianPodWithShNoneCov3dHalfConfigsENtB8_13BufferWrapper12map_downloadB1b_ECslQCpptksoiT_3mod
FNDA:5,_RINvYINtNtNtCsap2RCL79A4I_14wgpu_3dgs_core6buffer8gaussian15GaussiansBufferNtB6_37GaussianPodWithShNoneCov3dHalfConfigsENtB8_13BufferWrapper8downloadB1b_ECslQCpptksoiT_3mod
FNDA:5,_RINvYINtNtNtCsap2RCL79A4I_14wgpu_3dgs_core6buffer8gaussian15GaussiansBufferNtB6_38GaussianPodWithShNorm8Cov3dHalfConfigsENtB8_13BufferWrapper12map_downloadB1b_ECslQCpptksoiT_3mod
FNDA:5,_RINvYINtNtNtCsap2RCL79A4I_14wgpu_3dgs_core6buffer8gaussian15GaussiansBufferNtB6_38GaussianPodWithShNorm8Cov3dHalfConfigsENtB8_13BufferWrapper8downloadB1b_ECslQCpptksoiT_3mod
FNDA:5,_RINvYINtNtNtCsap2RCL79A4I_14wgpu_3dgs_core6buffer8gaussian15GaussiansBufferNtB6_39GaussianPodWithShHalfCov3dSingleConfigsENtB8_13BufferWrapper12map_downloadB1b_ECslQCpptksoiT_3mod
FNDA:5,_RINvYINtNtNtCsap2RCL79A4I_14wgpu_3dgs_core6buffer8gaussian15GaussiansBufferNtB6_39GaussianPodWithShHalfCov3dSingleConfigsENtB8_13BufferWrapper8downloadB1b_ECslQCpptksoiT_3mod
FNDA:5,_RINvYINtNtNtCsap2RCL79A4I_14wgpu_3dgs_core6buffer8gaussian15GaussiansBufferNtB6_39GaussianPodWithShNoneCov3dSingleConfigsENtB8_13BufferWrapper12map_downloadB1b_ECslQCpptksoiT_3mod
FNDA:5,_RINvYINtNtNtCsap2RCL79A4I_14wgpu_3dgs_core6buffer8gaussian15GaussiansBufferNtB6_39GaussianPodWithShNoneCov3dSingleConfigsENtB8_13BufferWrapper8downloadB1b_ECslQCpptksoiT_3mod
FNDA:5,_RINvYINtNtNtCsap2RCL79A4I_14wgpu_3dgs_core6buffer8gaussian15GaussiansBufferNtB6_39GaussianPodWithShSingleCov3dHalfConfigsENtB8_13BufferWrapper12map_downloadB1b_ECslQCpptksoiT_3mod
FNDA:5,_RINvYINtNtNtCsap2RCL79A4I_14wgpu_3dgs_core6buffer8gaussian15GaussiansBufferNtB6_39GaussianPodWithShSingleCov3dHalfConfigsENtB8_13BufferWrapper8downloadB1b_ECslQCpptksoiT_3mod
FNDA:5,_RINvYINtNtNtCsap2RCL79A4I_14wgpu_3dgs_core6buffer8gaussian15GaussiansBufferNtB6_40GaussianPodWithShNorm8Cov3dSingleConfigsENtB8_13BufferWrapper12map_downloadB1b_ECslQCpptksoiT_3mod
FNDA:5,_RINvYINtNtNtCsap2RCL79A4I_14wgpu_3dgs_core6buffer8gaussian15GaussiansBufferNtB6_40GaussianPodWithShNorm8Cov3dSingleConfigsENtB8_13BufferWrapper8downloadB1b_ECslQCpptksoiT_3mod
FNDA:6,_RINvYINtNtNtCsap2RCL79A4I_14wgpu_3dgs_core6buffer8gaussian15GaussiansBufferNtB6_41GaussianPodWithShHalfCov3dRotScaleConfigsENtB8_13BufferWrapper12map_downloadB1b_ECslQCpptksoiT_3mod
FNDA:6,_RINvYINtNtNtCsap2RCL79A4I_14wgpu_3dgs_core6buffer8gaussian15GaussiansBufferNtB6_41GaussianPodWithShHalfCov3dRotScaleConfigsENtB8_13BufferWrapper8downloadB1b_ECslQCpptksoiT_3mod
FNDA:5,_RINvYINtNtNtCsap2RCL79A4I_14wgpu_3dgs_core6buffer8gaussian15GaussiansBufferNtB6_41GaussianPodWithShNoneCov3dRotScaleConfigsENtB8_13BufferWrapper12map_downloadB1b_ECslQCpptksoiT_3mod
FNDA:5,_RINvYINtNtNtCsap2RCL79A4I_14wgpu_3dgs_core6buffer8gaussian15GaussiansBufferNtB6_41GaussianPodWithShNoneCov3dRotScaleConfigsENtB8_13BufferWrapper8downloadB1b_ECslQCpptksoiT_3mod
FNDA:5,_RINvYINtNtNtCsap2RCL79A4I_14wgpu_3dgs_core6buffer8gaussian15GaussiansBufferNtB6_41GaussianPodWithShSingleCov3dSingleConfigsENtB8_13BufferWrapper12map_downloadB1b_ECslQCpptksoiT_3mod
FNDA:5,_RINvYINtNtNtCsap2RCL79A4I_14wgpu_3dgs_core6buffer8gaussian15GaussiansBufferNtB6_41GaussianPodWithShSingleCov3dSingleConfigsENtB8_13BufferWrapper8downloadB1b_ECslQCpptksoiT_3mod
FNDA:6,_RINvYINtNtNtCsap2RCL79A4I_14wgpu_3dgs_core6buffer8gaussian15GaussiansBufferNtB6_42GaussianPodWithShNorm8Cov3dRotScaleConfigsENtB8_13BufferWrapper12map_downloadB1b_ECslQCpptksoiT_3mod
FNDA:6,_RINvYINtNtNtCsap2RCL79A4I_14wgpu_3dgs_core6buffer8gaussian15GaussiansBufferNtB6_42GaussianPodWithShNorm8Cov3dRotScaleConfigsENtB8_13BufferWrapper8downloadB1b_ECslQCpptksoiT_3mod
FNDA:6,_RINvYINtNtNtCsap2RCL79A4I_14wgpu_3dgs_core6buffer8gaussian15GaussiansBufferNtB6_43GaussianPodWithShSingleCov3dRotScaleConfigsENtB8_13BufferWrapper12map_downloadB1b_ECslQCpptksoiT_3mod
FNDA:6,_RINvYINtNtNtCsap2RCL79A4I_14wgpu_3dgs_core6buffer8gaussian15GaussiansBufferNtB6_43GaussianPodWithShSingleCov3dRotScaleConfigsENtB8_13BufferWrapper8downloadB1b_ECslQCpptksoiT_3mod
FNDA:5,_RNvYINtNtNtCsap2RCL79A4I_14wgpu_3dgs_core6buffer8gaussian15GaussiansBufferNtB5_37GaussianPodWithShHalfCov3dHalfConfigsENtB7_13BufferWrapper16prepare_downloadCslQCpptksoiT_3mod
FNDA:5,_RNvYINtNtNtCsap2RCL79A4I_14wgpu_3dgs_core6buffer8gaussian15GaussiansBufferNtB5_37GaussianPodWithShNoneCov3dHalfConfigsENtB7_13BufferWrapper16prepare_downloadCslQCpptksoiT_3mod
FNDA:5,_RNvYINtNtNtCsap2RCL79A4I_14wgpu_3dgs_core6buffer8gaussian15GaussiansBufferNtB5_38GaussianPodWithShNorm8Cov3dHalfConfigsENtB7_13BufferWrapper16prepare_downloadCslQCpptksoiT_3mod
FNDA:5,_RNvYINtNtNtCsap2RCL79A4I_14wgpu_3dgs_core6buffer8gaussian15GaussiansBufferNtB5_39GaussianPodWithShHalfCov3dSingleConfigsENtB7_13BufferWrapper16prepare_downloadCslQCpptksoiT_3mod
FNDA:5,_RNvYINtNtNtCsap2RCL79A4I_14wgpu_3dgs_core6buffer8gaussian15GaussiansBufferNtB5_39GaussianPodWithShNoneCov3dSingleConfigsENtB7_13BufferWrapper16prepare_downloadCslQCpptksoiT_3mod
FNDA:5,_RNvYINtNtNtCsap2RCL79A4I_14wgpu_3dgs_core6buffer8gaussian15GaussiansBufferNtB5_39GaussianPodWithShSingleCov3dHalfConfigsENtB7_13BufferWrapper16prepare_downloadCslQCpptksoiT_3mod
FNDA:5,_RNvYINtNtNtCsap2RCL79A4I_14wgpu_3dgs_core6buffer8gaussian15GaussiansBufferNtB5_40GaussianPodWithShNorm8Cov3dSingleConfigsENtB7_13BufferWrapper16prepare_downloadCslQCpptksoiT_3mod
FNDA:6,_RNvYINtNtNtCsap2RCL79A4I_14wgpu_3dgs_core6buffer8gaussian15GaussiansBufferNtB5_41GaussianPodWithShHalfCov3dRotScaleConfigsENtB7_13BufferWrapper16prepare_downloadCslQCpptksoiT_3mod
FNDA:5,_RNvYINtNtNtCsap2RCL79A4I_14wgpu_3dgs_core6buffer8gaussian15GaussiansBufferNtB5_41GaussianPodWithShNoneCov3dRotScaleConfigsENtB7_13BufferWrapper16prepare_downloadCslQCpptksoiT_3mod
FNDA:5,_RNvYINtNtNtCsap2RCL79A4I_14wgpu_3dgs_core6buffer8gaussian15GaussiansBufferNtB5_41GaussianPodWithShSingleCov3dSingleConfigsENtB7_13BufferWrapper16prepare_downloadCslQCpptksoiT_3mod
FNDA:6,_RNvYINtNtNtCsap2RCL79A4I_14wgpu_3dgs_core6buffer8gaussian15GaussiansBufferNtB5_42GaussianPodWithShNorm8Cov3dRotScaleConfigsENtB7_13BufferWrapper16prepare_downloadCslQCpptksoiT_3mod
FNDA:6,_RNvYINtNtNtCsap2RCL79A4I_14wgpu_3dgs_core6buffer8gaussian15GaussiansBufferNtB5_43GaussianPodWithShSingleCov3dRotScaleConfigsENtB7_13BufferWrapper16prepare_downloadCslQCpptksoiT_3mod
FNDA:2,_RINvYNtNtNtCsap2RCL79A4I_14wgpu_3dgs_core6buffer15model_transform20ModelTransformBufferNtB7_13BufferWrapper12map_downloadNtB5_17ModelTransformPodECslQCpptksoiT_3mod
FNDA:2,_RINvYNtNtNtCsap2RCL79A4I_14wgpu_3dgs_core6buffer15model_transform20ModelTransformBufferNtB7_13BufferWrapper8downloadNtB5_17ModelTransformPodECslQCpptksoiT_3mod
FNDA:2,_RNvYNtNtNtCsap2RCL79A4I_14wgpu_3dgs_core6buffer15model_transform20ModelTransformBufferNtB6_13BufferWrapper16prepare_downloadCslQCpptksoiT_3mod
FNDA:1,_RNvYNtNtNtCsap2RCL79A4I_14wgpu_3dgs_core6buffer15model_transform20ModelTransformBufferNtB6_22FixedSizeBufferWrapper15download_singleCslQCpptksoiT_3mod
FNDA:1,_RINvYNtNtCslQCpptksoiT_3mod6buffer17TestBufferWrapperNtNtCsap2RCL79A4I_14wgpu_3dgs_core6buffer13BufferWrapper12map_downloadmEB7_
FNDA:1,_RINvYNtNtCslQCpptksoiT_3mod6buffer17TestBufferWrapperNtNtCsap2RCL79A4I_14wgpu_3dgs_core6buffer13BufferWrapper8downloadmEB7_
FNDA:1,_RNvYNtNtCslQCpptksoiT_3mod6buffer17TestBufferWrapperNtNtCsap2RCL79A4I_14wgpu_3dgs_core6buffer13BufferWrapper16prepare_downloadB6_
FNDA:1,_RNvYNtNtCslQCpptksoiT_3mod6buffer17TestBufferWrapperNtNtCsap2RCL79A4I_14wgpu_3dgs_core6buffer22FixedSizeBufferWrapper15download_singleB6_
FNDA:4,_RNvYNtNtCslQCpptksoiT_3mod6buffer17TestBufferWrapperNtNtCsap2RCL79A4I_14wgpu_3dgs_core6buffer22FixedSizeBufferWrapper18verify_buffer_sizeB6_
FNDA:5,_RNvYNtNtCslQCpptksoiT_3mod6buffer17TestBufferWrapperNtNtCsap2RCL79A4I_14wgpu_3dgs_core6buffer22FixedSizeBufferWrapper8pod_sizeB6_
FNDA:109,_RNvXNtCsap2RCL79A4I_14wgpu_3dgs_core6bufferNtNtNtCsebiihMPZ3Ak_4wgpu3api6buffer6BufferNtB2_13BufferWrapper6buffer
FNDA:2,_RNvYNtNtNtCsap2RCL79A4I_14wgpu_3dgs_core6buffer18gaussian_transform23GaussianTransformBufferNtB6_22FixedSizeBufferWrapper18verify_buffer_sizeB8_
FNDA:2,_RNvYNtNtNtCsap2RCL79A4I_14wgpu_3dgs_core6buffer18gaussian_transform23GaussianTransformBufferNtB6_22FixedSizeBufferWrapper8pod_sizeB8_
FNDA:2,_RNvYNtNtNtCsap2RCL79A4I_14wgpu_3dgs_core6buffer15model_transform20ModelTransformBufferNtB6_22FixedSizeBufferWrapper18verify_buffer_sizeB8_
FNDA:2,_RNvYNtNtNtCsap2RCL79A4I_14wgpu_3dgs_core6buffer15model_transform20ModelTransformBufferNtB6_22FixedSizeBufferWrapper8pod_sizeB8_
FNDA:0,_RINvYpNtNtCs3bDQ3tnbls4_14wgpu_3dgs_core6buffer13BufferWrapper12map_downloadpEB8_
FNDA:0,_RINvYpNtNtCs3bDQ3tnbls4_14wgpu_3dgs_core6buffer13BufferWrapper8downloadpEB8_
FNDA:0,_RNCINvYpNtNtCs3bDQ3tnbls4_14wgpu_3dgs_core6buffer13BufferWrapper12map_downloadpE0Ba_
FNDA:0,_RNCINvYpNtNtCs3bDQ3tnbls4_14wgpu_3dgs_core6buffer13BufferWrapper8downloadpE0Ba_
FNDA:0,_RNCNCINvYpNtNtCs3bDQ3tnbls4_14wgpu_3dgs_core6buffer13BufferWrapper12map_downloadpE00Bc_
FNDA:0,_RNCNvYpNtNtCs3bDQ3tnbls4_14wgpu_3dgs_core6buffer22FixedSizeBufferWrapper15download_single0B9_
FNDA:0,_RNvXNtCs3bDQ3tnbls4_14wgpu_3dgs_core6bufferNtNtNtCsebiihMPZ3Ak_4wgpu3api6buffer6BufferNtB2_13BufferWrapper6buffer
FNDA:0,_RNvYpNtNtCs3bDQ3tnbls4_14wgpu_3dgs_core6buffer13BufferWrapper16prepare_downloadB7_
FNDA:0,_RNvYpNtNtCs3bDQ3tnbls4_14wgpu_3dgs_core6buffer22FixedSizeBufferWrapper15download_singleB7_
FNDA:0,_RNvYpNtNtCs3bDQ3tnbls4_14wgpu_3dgs_core6buffer22FixedSizeBufferWrapper18verify_buffer_sizeB7_
FNDA:0,_RNvYpNtNtCs3bDQ3tnbls4_14wgpu_3dgs_core6buffer22FixedSizeBufferWrapper8pod_sizeB7_
FNF:11
FNH:11
DA:22,122
DA:23,122
DA:24,122
DA:25,122
DA:26,122
DA:27,122
DA:28,122
DA:30,122
DA:31,122
DA:32,122
DA:33,122
DA:34,122
DA:35,122
DA:37,122
DA:38,122
DA:39,122
DA:45,122
DA:46,122
DA:47,122
DA:48,122
DA:49,122
DA:50,122
DA:51,122
DA:52,122
DA:53,122
DA:54,122
DA:55,122
DA:57,122
DA:59,122
DA:60,122
DA:65,122
DA:66,122
DA:67,122
DA:68,122
DA:69,122
DA:70,122
DA:71,122
DA:72,122
DA:73,122
DA:74,0
DA:75,122
DA:76,122
DA:77,122
DA:78,122
DA:80,122
DA:81,122
DA:83,122
DA:84,122
DA:85,122
DA:89,109
DA:90,109
DA:91,109
DA:100,9
DA:101,9
DA:102,9
DA:107,8
DA:108,8
DA:109,8
DA:110,8
DA:111,1
DA:112,1
DA:113,1
DA:114,1
DA:115,7
DA:116,7
DA:117,8
DA:120,3
DA:121,3
DA:122,3
DA:123,3
DA:124,3
DA:125,3
DA:126,3
DA:127,3
DA:129,3
DA:130,3
DA:131,3
DA:132,3
DA:133,3
BRF:0
BRH:0
LF:80
LH:79
end_of_record
SF:C:\Users\s2010\Me\Codes\Rust\wgpu-3dgs-core\src\buffer\model_transform.rs
FN:43,_RNvXs0_NtNtCsap2RCL79A4I_14wgpu_3dgs_core6buffer15model_transformNtNtNtCsebiihMPZ3Ak_4wgpu3api6buffer6BufferINtNtCsmHtFwzCQ9E_4core7convert4FromNtB5_20ModelTransformBufferE4from
FN:31,_RNvMNtNtCsap2RCL79A4I_14wgpu_3dgs_core6buffer15model_transformNtB2_20ModelTransformBuffer15update_with_pod
FN:15,_RNvMNtNtCsap2RCL79A4I_14wgpu_3dgs_core6buffer15model_transformNtB2_20ModelTransformBuffer3new
FN:26,_RNvMNtNtCsap2RCL79A4I_14wgpu_3dgs_core6buffer15model_transformNtB2_20ModelTransformBuffer6update
FN:71,_RNvMs3_NtNtCsap2RCL79A4I_14wgpu_3dgs_core6buffer15model_transformNtB5_17ModelTransformPod3new
FN:51,_RNvXs1_NtNtCsap2RCL79A4I_14wgpu_3dgs_core6buffer15model_transformNtB5_20ModelTransformBufferINtNtCsmHtFwzCQ9E_4core7convert7TryFromNtNtNtCsebiihMPZ3Ak_4wgpu3api6buffer6BufferE8try_from
FN:81,_RNvXs4_NtNtCsap2RCL79A4I_14wgpu_3dgs_core6buffer15model_transformNtB5_17ModelTransformPodNtNtCsmHtFwzCQ9E_4core7default7Default7default
FN:37,_RNvXs_NtNtCsap2RCL79A4I_14wgpu_3dgs_core6buffer15model_transformNtB4_20ModelTransformBufferNtB6_13BufferWrapper6buffer
FN:52,_RNCNvXs1_NtNtCsap2RCL79A4I_14wgpu_3dgs_core6buffer15model_transformNtB7_20ModelTransformBufferINtNtCsmHtFwzCQ9E_4core7convert7TryFromNtNtNtCsebiihMPZ3Ak_4wgpu3api6buffer6BufferE8try_from0Bb_
FN:52,_RNCNvXs1_NtNtCs3bDQ3tnbls4_14wgpu_3dgs_core6buffer15model_transformNtB7_20ModelTransformBufferINtNtCsmHtFwzCQ9E_4core7convert7TryFromNtNtNtCsebiihMPZ3Ak_4wgpu3api6buffer6BufferE8try_from0Bb_
FN:31,_RNvMNtNtCs3bDQ3tnbls4_14wgpu_3dgs_core6buffer15model_transformNtB2_20ModelTransformBuffer15update_with_pod
FN:15,_RNvMNtNtCs3bDQ3tnbls4_14wgpu_3dgs_core6buffer15model_transformNtB2_20ModelTransformBuffer3new
FN:26,_RNvMNtNtCs3bDQ3tnbls4_14wgpu_3dgs_core6buffer15model_transformNtB2_20ModelTransformBuffer6update
FN:71,_RNvMs3_NtNtCs3bDQ3tnbls4_14wgpu_3dgs_core6buffer15model_transformNtB5_17ModelTransformPod3new
FN:43,_RNvXs0_NtNtCs3bDQ3tnbls4_14wgpu_3dgs_core6buffer15model_transformNtNtNtCsebiihMPZ3Ak_4wgpu3api6buffer6BufferINtNtCsmHtFwzCQ9E_4core7convert4FromNtB5_20ModelTransformBufferE4from
FN:51,_RNvXs1_NtNtCs3bDQ3tnbls4_14wgpu_3dgs_core6buffer15model_transformNtB5_20ModelTransformBufferINtNtCsmHtFwzCQ9E_4core7convert7TryFromNtNtNtCsebiihMPZ3Ak_4wgpu3api6buffer6BufferE8try_from
FN:81,_RNvXs4_NtNtCs3bDQ3tnbls4_14wgpu_3dgs_core6buffer15model_transformNtB5_17ModelTransformPodNtNtCsmHtFwzCQ9E_4core7default7Default7default
FN:37,_RNvXs_NtNtCs3bDQ3tnbls4_14wgpu_3dgs_core6buffer15model_transformNtB4_20ModelTransformBufferNtB6_13BufferWrapper6buffer
FNDA:1,_RNvXs0_NtNtCsap2RCL79A4I_14wgpu_3dgs_core6buffer15model_transformNtNtNtCsebiihMPZ3Ak_4wgpu3api6buffer6BufferINtNtCsmHtFwzCQ9E_4core7convert4FromNtB5_20ModelTransformBufferE4from
FNDA:2,_RNvMNtNtCsap2RCL79A4I_14wgpu_3dgs_core6buffer15model_transformNtB2_20ModelTransformBuffer15update_with_pod
FNDA:2,_RNvMNtNtCsap2RCL79A4I_14wgpu_3dgs_core6buffer15model_transformNtB2_20ModelTransformBuffer3new
FNDA:1,_RNvMNtNtCsap2RCL79A4I_14wgpu_3dgs_core6buffer15model_transformNtB2_20ModelTransformBuffer6update
FNDA:7,_RNvMs3_NtNtCsap2RCL79A4I_14wgpu_3dgs_core6buffer15model_transformNtB5_17ModelTransformPod3new
FNDA:2,_RNvXs1_NtNtCsap2RCL79A4I_14wgpu_3dgs_core6buffer15model_transformNtB5_20ModelTransformBufferINtNtCsmHtFwzCQ9E_4core7convert7TryFromNtNtNtCsebiihMPZ3Ak_4wgpu3api6buffer6BufferE8try_from
FNDA:2,_RNvXs4_NtNtCsap2RCL79A4I_14wgpu_3dgs_core6buffer15model_transformNtB5_17ModelTransformPodNtNtCsmHtFwzCQ9E_4core7default7Default7default
FNDA:6,_RNvXs_NtNtCsap2RCL79A4I_14wgpu_3dgs_core6buffer15model_transformNtB4_20ModelTransformBufferNtB6_13BufferWrapper6buffer
FNDA:2,_RNCNvXs1_NtNtCsap2RCL79A4I_14wgpu_3dgs_core6buffer15model_transformNtB7_20ModelTransformBufferINtNtCsmHtFwzCQ9E_4core7convert7TryFromNtNtNtCsebiihMPZ3Ak_4wgpu3api6buffer6BufferE8try_from0Bb_
FNDA:0,_RNCNvXs1_NtNtCs3bDQ3tnbls4_14wgpu_3dgs_core6buffer15model_transformNtB7_20ModelTransformBufferINtNtCsmHtFwzCQ9E_4core7convert7TryFromNtNtNtCsebiihMPZ3Ak_4wgpu3api6buffer6BufferE8try_from0Bb_
FNDA:0,_RNvMNtNtCs3bDQ3tnbls4_14wgpu_3dgs_core6buffer15model_transformNtB2_20ModelTransformBuffer15update_with_pod
FNDA:0,_RNvMNtNtCs3bDQ3tnbls4_14wgpu_3dgs_core6buffer15model_transformNtB2_20ModelTransformBuffer3new
FNDA:0,_RNvMNtNtCs3bDQ3tnbls4_14wgpu_3dgs_core6buffer15model_transformNtB2_20ModelTransformBuffer6update
FNDA:0,_RNvMs3_NtNtCs3bDQ3tnbls4_14wgpu_3dgs_core6buffer15model_transformNtB5_17ModelTransformPod3new
FNDA:0,_RNvXs0_NtNtCs3bDQ3tnbls4_14wgpu_3dgs_core6buffer15model_transformNtNtNtCsebiihMPZ3Ak_4wgpu3api6buffer6BufferINtNtCsmHtFwzCQ9E_4core7convert4FromNtB5_20ModelTransformBufferE4from
FNDA:0,_RNvXs1_NtNtCs3bDQ3tnbls4_14wgpu_3dgs_core6buffer15model_transformNtB5_20ModelTransformBufferINtNtCsmHtFwzCQ9E_4core7convert7TryFromNtNtNtCsebiihMPZ3Ak_4wgpu3api6buffer6BufferE8try_from
FNDA:0,_RNvXs4_NtNtCs3bDQ3tnbls4_14wgpu_3dgs_core6buffer15model_transformNtB5_17ModelTransformPodNtNtCsmHtFwzCQ9E_4core7default7Default7default
FNDA:0,_RNvXs_NtNtCs3bDQ3tnbls4_14wgpu_3dgs_core6buffer15model_transformNtB4_20ModelTransformBufferNtB6_13BufferWrapper6buffer
FNF:9
FNH:9
DA:15,2
DA:16,2
DA:17,2
DA:18,2
DA:19,2
DA:20,2
DA:22,2
DA:23,2
DA:26,1
DA:27,1
DA:28,1
DA:31,2
DA:32,2
DA:33,2
DA:37,6
DA:38,6
DA:39,6
DA:43,1
DA:44,1
DA:45,1
DA:51,2
DA:52,2
DA:53,2
DA:71,7
DA:72,7
DA:73,7
DA:74,7
DA:75,7
DA:76,7
DA:77,7
DA:81,2
DA:82,2
DA:83,2
BRF:0
BRH:0
LF:34
LH:34
end_of_record
SF:C:\Users\s2010\Me\Codes\Rust\wgpu-3dgs-core\src\compute_bundle.rs
FN:72,_RINvMNtCsap2RCL79A4I_14wgpu_3dgs_core14compute_bundleINtB3_13ComputeBundleuE17create_bind_groupANtNtNtCsebiihMPZ3Ak_4wgpu3api10bind_group15BindingResourcej1_ECslQCpptksoiT_3mod
FN:114,_RINvMNtCsap2RCL79A4I_14wgpu_3dgs_core14compute_bundleINtB3_13ComputeBundleuE25dispatch_with_bind_groupsRINtNtCsj4FhK7DZU1O_5alloc3vec3VecNtNtNtCsebiihMPZ3Ak_4wgpu3api10bind_group9BindGroupEECslQCpptksoiT_3mod
FN:72,_RINvMNtCsap2RCL79A4I_14wgpu_3dgs_core14compute_bundleNtB3_13ComputeBundle17create_bind_groupANtNtNtCsebiihMPZ3Ak_4wgpu3api10bind_group15BindingResourcej1_ECslQCpptksoiT_3mod
FN:260,_RINvMs0_NtCsap2RCL79A4I_14wgpu_3dgs_core14compute_bundleINtB6_13ComputeBundleuE23new_without_bind_groupsINtNtCsj4FhK7DZU1O_5alloc3vec3VecRNtNtNtCsebiihMPZ3Ak_4wgpu3api17bind_group_layout25BindGroupLayoutDescriptorEECslQCpptksoiT_3mod
FN:344,_RINvMs0_NtCsap2RCL79A4I_14wgpu_3dgs_core14compute_bundleINtB6_13ComputeBundleuE8dispatchRINtNtCsj4FhK7DZU1O_5alloc3vec3VecNtNtNtCsebiihMPZ3Ak_4wgpu3api10bind_group9BindGroupEECslQCpptksoiT_3mod
FN:500,_RINvMs2_NtCsap2RCL79A4I_14wgpu_3dgs_core14compute_bundleINtB6_20ComputeBundleBuilderNtNtCs9SnwICGty7U_4wesl7resolve11PkgResolverE5buildANtNtNtCsebiihMPZ3Ak_4wgpu3api10bind_group15BindingResourcej2_AB29_j1_ECslQCpptksoiT_3mod
FN:500,_RINvMs2_NtCsap2RCL79A4I_14wgpu_3dgs_core14compute_bundleINtB6_20ComputeBundleBuilderNtNtCs9SnwICGty7U_4wesl7resolve11PkgResolverE5buildANtNtNtCsebiihMPZ3Ak_4wgpu3api10bind_group15BindingResourcej3_AB29_j1_ECslQCpptksoiT_3mod
FN:410,_RINvMs2_NtCsap2RCL79A4I_14wgpu_3dgs_core14compute_bundleNtB6_20ComputeBundleBuilder18bind_group_layoutsARNtNtNtCsebiihMPZ3Ak_4wgpu3api17bind_group_layout25BindGroupLayoutDescriptorj2_ECslQCpptksoiT_3mod
FN:500,_RINvMs2_NtCsap2RCL79A4I_14wgpu_3dgs_core14compute_bundleNtB6_20ComputeBundleBuilder5buildANtNtNtCsebiihMPZ3Ak_4wgpu3api10bind_group15BindingResourcej1_AB1p_B2m_ECslQCpptksoiT_3mod
FN:500,_RINvMs2_NtCsap2RCL79A4I_14wgpu_3dgs_core14compute_bundleNtB6_20ComputeBundleBuilder5buildANtNtNtCsebiihMPZ3Ak_4wgpu3api10bind_group15BindingResourcej1_AB1p_j2_ECslQCpptksoiT_3mod
FN:395,_RINvMs2_NtCsap2RCL79A4I_14wgpu_3dgs_core14compute_bundleNtB6_20ComputeBundleBuilder5labelReECslQCpptksoiT_3mod
FN:476,_RINvMs2_NtCsap2RCL79A4I_14wgpu_3dgs_core14compute_bundleNtB6_20ComputeBundleBuilder7manglerNtNtCs9SnwICGty7U_4wesl6mangle9NoManglerECslQCpptksoiT_3mod
FN:461,_RINvMs2_NtCsap2RCL79A4I_14wgpu_3dgs_core14compute_bundleNtB6_20ComputeBundleBuilder8resolverNtNtCs9SnwICGty7U_4wesl7resolve11PkgResolverECslQCpptksoiT_3mod
FN:461,_RINvMs2_NtCsap2RCL79A4I_14wgpu_3dgs_core14compute_bundleNtB6_20ComputeBundleBuilder8resolverNtNtCs9SnwICGty7U_4wesl7resolve16StandardResolverECslQCpptksoiT_3mod
FN:233,_RINvMs_NtCsap2RCL79A4I_14wgpu_3dgs_core14compute_bundleNtB5_13ComputeBundle24create_bind_group_staticANtNtNtCsebiihMPZ3Ak_4wgpu3api10bind_group15BindingResourcej1_ECslQCpptksoiT_3mod
FN:233,_RINvMs_NtCsap2RCL79A4I_14wgpu_3dgs_core14compute_bundleNtB5_13ComputeBundle24create_bind_group_staticANtNtNtCsebiihMPZ3Ak_4wgpu3api10bind_group15BindingResourcej2_ECslQCpptksoiT_3mod
FN:233,_RINvMs_NtCsap2RCL79A4I_14wgpu_3dgs_core14compute_bundleNtB5_13ComputeBundle24create_bind_group_staticANtNtNtCsebiihMPZ3Ak_4wgpu3api10bind_group15BindingResourcej3_ECslQCpptksoiT_3mod
FN:141,_RINvMs_NtCsap2RCL79A4I_14wgpu_3dgs_core14compute_bundleNtB5_13ComputeBundle3newINtNtCsj4FhK7DZU1O_5alloc3vec3VecRNtNtNtCsebiihMPZ3Ak_4wgpu3api17bind_group_layout25BindGroupLayoutDescriptorEANtNtB1R_10bind_group15BindingResourcej1_AB31_B3D_ECslQCpptksoiT_3mod
FN:141,_RINvMs_NtCsap2RCL79A4I_14wgpu_3dgs_core14compute_bundleNtB5_13ComputeBundle3newINtNtCsj4FhK7DZU1O_5alloc3vec3VecRNtNtNtCsebiihMPZ3Ak_4wgpu3api17bind_group_layout25BindGroupLayoutDescriptorEANtNtB1R_10bind_group15BindingResourcej1_AB31_j2_ECslQCpptksoiT_3mod
FN:141,_RINvMs_NtCsap2RCL79A4I_14wgpu_3dgs_core14compute_bundleNtB5_13ComputeBundle3newINtNtCsj4FhK7DZU1O_5alloc3vec3VecRNtNtNtCsebiihMPZ3Ak_4wgpu3api17bind_group_layout25BindGroupLayoutDescriptorEANtNtB1R_10bind_group15BindingResourcej2_AB31_j1_ECslQCpptksoiT_3mod
FN:141,_RINvMs_NtCsap2RCL79A4I_14wgpu_3dgs_core14compute_bundleNtB5_13ComputeBundle3newINtNtCsj4FhK7DZU1O_5alloc3vec3VecRNtNtNtCsebiihMPZ3Ak_4wgpu3api17bind_group_layout25BindGroupLayoutDescriptorEANtNtB1R_10bind_group15BindingResourcej3_AB31_j1_ECslQCpptksoiT_3mod
FN:220,_RINvMs_NtCsap2RCL79A4I_14wgpu_3dgs_core14compute_bundleNtB5_13ComputeBundle40update_bind_group_with_binding_resourcesANtNtNtCsebiihMPZ3Ak_4wgpu3api10bind_group15BindingResourcej1_ECslQCpptksoiT_3mod
FN:289,_RNCINvMs0_NtCsap2RCL79A4I_14wgpu_3dgs_core14compute_bundleINtB8_13ComputeBundleuE23new_without_bind_groupsINtNtCsj4FhK7DZU1O_5alloc3vec3VecRNtNtNtCsebiihMPZ3Ak_4wgpu3api17bind_group_layout25BindGroupLayoutDescriptorEE0CslQCpptksoiT_3mod
FN:247,_RNCINvMs_NtCsap2RCL79A4I_14wgpu_3dgs_core14compute_bundleNtB7_13ComputeBundle24create_bind_group_staticANtNtNtCsebiihMPZ3Ak_4wgpu3api10bind_group15BindingResourcej1_E0CslQCpptksoiT_3mod
FN:247,_RNCINvMs_NtCsap2RCL79A4I_14wgpu_3dgs_core14compute_bundleNtB7_13ComputeBundle24create_bind_group_staticANtNtNtCsebiihMPZ3Ak_4wgpu3api10bind_group15BindingResourcej2_E0CslQCpptksoiT_3mod
FN:247,_RNCINvMs_NtCsap2RCL79A4I_14wgpu_3dgs_core14compute_bundleNtB7_13ComputeBundle24create_bind_group_staticANtNtNtCsebiihMPZ3Ak_4wgpu3api10bind_group15BindingResourcej3_E0CslQCpptksoiT_3mod
FN:176,_RNCINvMs_NtCsap2RCL79A4I_14wgpu_3dgs_core14compute_bundleNtB7_13ComputeBundle3newINtNtCsj4FhK7DZU1O_5alloc3vec3VecRNtNtNtCsebiihMPZ3Ak_4wgpu3api17bind_group_layout25BindGroupLayoutDescriptorEANtNtB1T_10bind_group15BindingResourcej1_AB33_B3F_E0CslQCpptksoiT_3mod
FN:176,_RNCINvMs_NtCsap2RCL79A4I_14wgpu_3dgs_core14compute_bundleNtB7_13ComputeBundle3newINtNtCsj4FhK7DZU1O_5alloc3vec3VecRNtNtNtCsebiihMPZ3Ak_4wgpu3api17bind_group_layout25BindGroupLayoutDescriptorEANtNtB1T_10bind_group15BindingResourcej1_AB33_j2_E0CslQCpptksoiT_3mod
FN:176,_RNCINvMs_NtCsap2RCL79A4I_14wgpu_3dgs_core14compute_bundleNtB7_13ComputeBundle3newINtNtCsj4FhK7DZU1O_5alloc3vec3VecRNtNtNtCsebiihMPZ3Ak_4wgpu3api17bind_group_layout25BindGroupLayoutDescriptorEANtNtB1T_10bind_group15BindingResourcej2_AB33_j1_E0CslQCpptksoiT_3mod
FN:176,_RNCINvMs_NtCsap2RCL79A4I_14wgpu_3dgs_core14compute_bundleNtB7_13ComputeBundle3newINtNtCsj4FhK7DZU1O_5alloc3vec3VecRNtNtNtCsebiihMPZ3Ak_4wgpu3api17bind_group_layout25BindGroupLayoutDescriptorEANtNtB1T_10bind_group15BindingResourcej3_AB33_j1_E0CslQCpptksoiT_3mod
FN:88,_RNvMNtCsap2RCL79A4I_14wgpu_3dgs_core14compute_bundleINtB2_13ComputeBundleuE14workgroup_sizeCslQCpptksoiT_3mod
FN:101,_RNvMNtCsap2RCL79A4I_14wgpu_3dgs_core14compute_bundleINtB2_13ComputeBundleuE18bind_group_layoutsCslQCpptksoiT_3mod
FN:93,_RNvMNtCsap2RCL79A4I_14wgpu_3dgs_core14compute_bundleINtB2_13ComputeBundleuE5labelCslQCpptksoiT_3mod
FN:106,_RNvMNtCsap2RCL79A4I_14wgpu_3dgs_core14compute_bundleINtB2_13ComputeBundleuE8pipelineCslQCpptksoiT_3mod
FN:101,_RNvMNtCsap2RCL79A4I_14wgpu_3dgs_core14compute_bundleNtB2_13ComputeBundle18bind_group_layoutsCslQCpptksoiT_3mod
FN:431,_RNvMs2_NtCsap2RCL79A4I_14wgpu_3dgs_core14compute_bundleINtB5_20ComputeBundleBuilderNtNtCs9SnwICGty7U_4wesl7resolve11PkgResolverE11entry_pointCslQCpptksoiT_3mod
FN:440,_RNvMs2_NtCsap2RCL79A4I_14wgpu_3dgs_core14compute_bundleINtB5_20ComputeBundleBuilderNtNtCs9SnwICGty7U_4wesl7resolve11PkgResolverE11main_shaderCslQCpptksoiT_3mod
FN:455,_RNvMs2_NtCsap2RCL79A4I_14wgpu_3dgs_core14compute_bundleINtB5_20ComputeBundleBuilderNtNtCs9SnwICGty7U_4wesl7resolve11PkgResolverE20wesl_compile_optionsCslQCpptksoiT_3mod
FN:431,_RNvMs2_NtCsap2RCL79A4I_14wgpu_3dgs_core14compute_bundleNtB5_20ComputeBundleBuilder11entry_pointCslQCpptksoiT_3mod
FN:440,_RNvMs2_NtCsap2RCL79A4I_14wgpu_3dgs_core14compute_bundleNtB5_20ComputeBundleBuilder11main_shaderCslQCpptksoiT_3mod
FN:494,_RNvMs2_NtCsap2RCL79A4I_14wgpu_3dgs_core14compute_bundleNtB5_20ComputeBundleBuilder14workgroup_sizeCslQCpptksoiT_3mod
FN:401,_RNvMs2_NtCsap2RCL79A4I_14wgpu_3dgs_core14compute_bundleNtB5_20ComputeBundleBuilder17bind_group_layoutCslQCpptksoiT_3mod
FN:455,_RNvMs2_NtCsap2RCL79A4I_14wgpu_3dgs_core14compute_bundleNtB5_20ComputeBundleBuilder20wesl_compile_optionsCslQCpptksoiT_3mod
FN:419,_RNvMs2_NtCsap2RCL79A4I_14wgpu_3dgs_core14compute_bundleNtB5_20ComputeBundleBuilder24pipeline_compile_optionsCslQCpptksoiT_3mod
FN:546,_RNvMs2_NtCsap2RCL79A4I_14wgpu_3dgs_core14compute_bundleNtB5_20ComputeBundleBuilder25build_without_bind_groupsCslQCpptksoiT_3mod
FN:378,_RNvMs1_NtCsap2RCL79A4I_14wgpu_3dgs_core14compute_bundleNtB5_20ComputeBundleBuilder3new
FN:191,_RNvMs_NtCsap2RCL79A4I_14wgpu_3dgs_core14compute_bundleNtB4_13ComputeBundle11bind_groups
FN:204,_RNvMs_NtCsap2RCL79A4I_14wgpu_3dgs_core14compute_bundleNtB4_13ComputeBundle17update_bind_group
FN:196,_RNvMs_NtCsap2RCL79A4I_14wgpu_3dgs_core14compute_bundleNtB4_13ComputeBundle8dispatch
FN:590,_RNvXs3_NtCsap2RCL79A4I_14wgpu_3dgs_core14compute_bundleNtB5_20ComputeBundleBuilderNtNtCsmHtFwzCQ9E_4core7default7Default7default
FN:114,_RINvMNtCsap2RCL79A4I_14wgpu_3dgs_core14compute_bundleNtB3_13ComputeBundle25dispatch_with_bind_groupsRSNtNtNtCsebiihMPZ3Ak_4wgpu3api10bind_group9BindGroupEB5_
FN:88,_RNvMNtCsap2RCL79A4I_14wgpu_3dgs_core14compute_bundleNtB2_13ComputeBundle14workgroup_sizeB4_
FN:72,_RINvMNtCs3bDQ3tnbls4_14wgpu_3dgs_core14compute_bundleINtB3_13ComputeBundlepE17create_bind_grouppEB5_
FN:114,_RINvMNtCs3bDQ3tnbls4_14wgpu_3dgs_core14compute_bundleINtB3_13ComputeBundlepE25dispatch_with_bind_groupspEB5_
FN:260,_RINvMs0_NtCs3bDQ3tnbls4_14wgpu_3dgs_core14compute_bundleINtB6_13ComputeBundleuE23new_without_bind_groupspEB8_
FN:344,_RINvMs0_NtCs3bDQ3tnbls4_14wgpu_3dgs_core14compute_bundleINtB6_13ComputeBundleuE8dispatchpEB8_
FN:410,_RINvMs2_NtCs3bDQ3tnbls4_14wgpu_3dgs_core14compute_bundleINtB6_20ComputeBundleBuilderpE18bind_group_layoutspEB8_
FN:500,_RINvMs2_NtCs3bDQ3tnbls4_14wgpu_3dgs_core14compute_bundleINtB6_20ComputeBundleBuilderpE5buildppEB8_
FN:395,_RINvMs2_NtCs3bDQ3tnbls4_14wgpu_3dgs_core14compute_bundleINtB6_20ComputeBundleBuilderpE5labelpEB8_
FN:476,_RINvMs2_NtCs3bDQ3tnbls4_14wgpu_3dgs_core14compute_bundleINtB6_20ComputeBundleBuilderpE7manglerpEB8_
FN:461,_RINvMs2_NtCs3bDQ3tnbls4_14wgpu_3dgs_core14compute_bundleINtB6_20ComputeBundleBuilderpE8resolverpEB8_
FN:233,_RINvMs_NtCs3bDQ3tnbls4_14wgpu_3dgs_core14compute_bundleNtB5_13ComputeBundle24create_bind_group_staticpEB7_
FN:141,_RINvMs_NtCs3bDQ3tnbls4_14wgpu_3dgs_core14compute_bundleNtB5_13ComputeBundle3newpppEB7_
FN:220,_RINvMs_NtCs3bDQ3tnbls4_14wgpu_3dgs_core14compute_bundleNtB5_13ComputeBundle40update_bind_group_with_binding_resourcespEB7_
FN:289,_RNCINvMs0_NtCs3bDQ3tnbls4_14wgpu_3dgs_core14compute_bundleINtB8_13ComputeBundleuE23new_without_bind_groupspE0Ba_
FN:247,_RNCINvMs_NtCs3bDQ3tnbls4_14wgpu_3dgs_core14compute_bundleNtB7_13ComputeBundle24create_bind_group_staticpE0B9_
FN:176,_RNCINvMs_NtCs3bDQ3tnbls4_14wgpu_3dgs_core14compute_bundleNtB7_13ComputeBundle3newpppE0B9_
FN:88,_RNvMNtCs3bDQ3tnbls4_14wgpu_3dgs_core14compute_bundleINtB2_13ComputeBundlepE14workgroup_sizeB4_
FN:101,_RNvMNtCs3bDQ3tnbls4_14wgpu_3dgs_core14compute_bundleINtB2_13ComputeBundlepE18bind_group_layoutsB4_
FN:93,_RNvMNtCs3bDQ3tnbls4_14wgpu_3dgs_core14compute_bundleINtB2_13ComputeBundlepE5labelB4_
FN:106,_RNvMNtCs3bDQ3tnbls4_14wgpu_3dgs_core14compute_bundleINtB2_13ComputeBundlepE8pipelineB4_
FN:378,_RNvMs1_NtCs3bDQ3tnbls4_14wgpu_3dgs_core14compute_bundleNtB5_20ComputeBundleBuilder3new
FN:431,_RNvMs2_NtCs3bDQ3tnbls4_14wgpu_3dgs_core14compute_bundleINtB5_20ComputeBundleBuilderpE11entry_pointB7_
FN:440,_RNvMs2_NtCs3bDQ3tnbls4_14wgpu_3dgs_core14compute_bundleINtB5_20ComputeBundleBuilderpE11main_shaderB7_
FN:494,_RNvMs2_NtCs3bDQ3tnbls4_14wgpu_3dgs_core14compute_bundleINtB5_20ComputeBundleBuilderpE14workgroup_sizeB7_
FN:401,_RNvMs2_NtCs3bDQ3tnbls4_14wgpu_3dgs_core14compute_bundleINtB5_20ComputeBundleBuilderpE17bind_group_layoutB7_
FN:455,_RNvMs2_NtCs3bDQ3tnbls4_14wgpu_3dgs_core14compute_bundleINtB5_20ComputeBundleBuilderpE20wesl_compile_optionsB7_
FN:419,_RNvMs2_NtCs3bDQ3tnbls4_14wgpu_3dgs_core14compute_bundleINtB5_20ComputeBundleBuilderpE24pipeline_compile_optionsB7_
FN:546,_RNvMs2_NtCs3bDQ3tnbls4_14wgpu_3dgs_core14compute_bundleINtB5_20ComputeBundleBuilderpE25build_without_bind_groupsB7_
FN:191,_RNvMs_NtCs3bDQ3tnbls4_14wgpu_3dgs_core14compute_bundleNtB4_13ComputeBundle11bind_groups
FN:204,_RNvMs_NtCs3bDQ3tnbls4_14wgpu_3dgs_core14compute_bundleNtB4_13ComputeBundle17update_bind_group
FN:196,_RNvMs_NtCs3bDQ3tnbls4_14wgpu_3dgs_core14compute_bundleNtB4_13ComputeBundle8dispatch
FN:590,_RNvXs3_NtCs3bDQ3tnbls4_14wgpu_3dgs_core14compute_bundleNtB5_20ComputeBundleBuilderNtNtCsmHtFwzCQ9E_4core7default7Default7default
FNDA:2,_RINvMNtCsap2RCL79A4I_14wgpu_3dgs_core14compute_bundleINtB3_13ComputeBundleuE17create_bind_groupANtNtNtCsebiihMPZ3Ak_4wgpu3api10bind_group15BindingResourcej1_ECslQCpptksoiT_3mod
FNDA:1,_RINvMNtCsap2RCL79A4I_14wgpu_3dgs_core14compute_bundleINtB3_13ComputeBundleuE25dispatch_with_bind_groupsRINtNtCsj4FhK7DZU1O_5alloc3vec3VecNtNtNtCsebiihMPZ3Ak_4wgpu3api10bind_group9BindGroupEECslQCpptksoiT_3mod
FNDA:1,_RINvMNtCsap2RCL79A4I_14wgpu_3dgs_core14compute_bundleNtB3_13ComputeBundle17create_bind_groupANtNtNtCsebiihMPZ3Ak_4wgpu3api10bind_group15BindingResourcej1_ECslQCpptksoiT_3mod
FNDA:13,_RINvMs0_NtCsap2RCL79A4I_14wgpu_3dgs_core14compute_bundleINtB6_13ComputeBundleuE23new_without_bind_groupsINtNtCsj4FhK7DZU1O_5alloc3vec3VecRNtNtNtCsebiihMPZ3Ak_4wgpu3api17bind_group_layout25BindGroupLayoutDescriptorEECslQCpptksoiT_3mod
FNDA:1,_RINvMs0_NtCsap2RCL79A4I_14wgpu_3dgs_core14compute_bundleINtB6_13ComputeBundleuE8dispatchRINtNtCsj4FhK7DZU1O_5alloc3vec3VecNtNtNtCsebiihMPZ3Ak_4wgpu3api10bind_group9BindGroupEECslQCpptksoiT_3mod
FNDA:8,_RINvMs2_NtCsap2RCL79A4I_14wgpu_3dgs_core14compute_bundleINtB6_20ComputeBundleBuilderNtNtCs9SnwICGty7U_4wesl7resolve11PkgResolverE5buildANtNtNtCsebiihMPZ3Ak_4wgpu3api10bind_group15BindingResourcej2_AB29_j1_ECslQCpptksoiT_3mod
FNDA:1,_RINvMs2_NtCsap2RCL79A4I_14wgpu_3dgs_core14compute_bundleINtB6_20ComputeBundleBuilderNtNtCs9SnwICGty7U_4wesl7resolve11PkgResolverE5buildANtNtNtCsebiihMPZ3Ak_4wgpu3api10bind_group15BindingResourcej3_AB29_j1_ECslQCpptksoiT_3mod
FNDA:1,_RINvMs2_NtCsap2RCL79A4I_14wgpu_3dgs_core14compute_bundleNtB6_20ComputeBundleBuilder18bind_group_layoutsARNtNtNtCsebiihMPZ3Ak_4wgpu3api17bind_group_layout25BindGroupLayoutDescriptorj2_ECslQCpptksoiT_3mod
FNDA:6,_RINvMs2_NtCsap2RCL79A4I_14wgpu_3dgs_core14compute_bundleNtB6_20ComputeBundleBuilder5buildANtNtNtCsebiihMPZ3Ak_4wgpu3api10bind_group15BindingResourcej1_AB1p_B2m_ECslQCpptksoiT_3mod
FNDA:1,_RINvMs2_NtCsap2RCL79A4I_14wgpu_3dgs_core14compute_bundleNtB6_20ComputeBundleBuilder5buildANtNtNtCsebiihMPZ3Ak_4wgpu3api10bind_group15BindingResourcej1_AB1p_j2_ECslQCpptksoiT_3mod
FNDA:1,_RINvMs2_NtCsap2RCL79A4I_14wgpu_3dgs_core14compute_bundleNtB6_20ComputeBundleBuilder5labelReECslQCpptksoiT_3mod
FNDA:1,_RINvMs2_NtCsap2RCL79A4I_14wgpu_3dgs_core14compute_bundleNtB6_20ComputeBundleBuilder7manglerNtNtCs9SnwICGty7U_4wesl6mangle9NoManglerECslQCpptksoiT_3mod
FNDA:9,_RINvMs2_NtCsap2RCL79A4I_14wgpu_3dgs_core14compute_bundleNtB6_20ComputeBundleBuilder8resolverNtNtCs9SnwICGty7U_4wesl7resolve11PkgResolverECslQCpptksoiT_3mod
FNDA:10,_RINvMs2_NtCsap2RCL79A4I_14wgpu_3dgs_core14compute_bundleNtB6_20ComputeBundleBuilder8resolverNtNtCs9SnwICGty7U_4wesl7resolve16StandardResolverECslQCpptksoiT_3mod
FNDA:4,_RINvMs_NtCsap2RCL79A4I_14wgpu_3dgs_core14compute_bundleNtB5_13ComputeBundle24create_bind_group_staticANtNtNtCsebiihMPZ3Ak_4wgpu3api10bind_group15BindingResourcej1_ECslQCpptksoiT_3mod
FNDA:8,_RINvMs_NtCsap2RCL79A4I_14wgpu_3dgs_core14compute_bundleNtB5_13ComputeBundle24create_bind_group_staticANtNtNtCsebiihMPZ3Ak_4wgpu3api10bind_group15BindingResourcej2_ECslQCpptksoiT_3mod
FNDA:1,_RINvMs_NtCsap2RCL79A4I_14wgpu_3dgs_core14compute_bundleNtB5_13ComputeBundle24create_bind_group_staticANtNtNtCsebiihMPZ3Ak_4wgpu3api10bind_group15BindingResourcej3_ECslQCpptksoiT_3mod
FNDA:2,_RINvMs_NtCsap2RCL79A4I_14wgpu_3dgs_core14compute_bundleNtB5_13ComputeBundle3newINtNtCsj4FhK7DZU1O_5alloc3vec3VecRNtNtNtCsebiihMPZ3Ak_4wgpu3api17bind_group_layout25BindGroupLayoutDescriptorEANtNtB1R_10bind_group15BindingResourcej1_AB31_B3D_ECslQCpptksoiT_3mod
FNDA:1,_RINvMs_NtCsap2RCL79A4I_14wgpu_3dgs_core14compute_bundleNtB5_13ComputeBundle3newINtNtCsj4FhK7DZU1O_5alloc3vec3VecRNtNtNtCsebiihMPZ3Ak_4wgpu3api17bind_group_layout25BindGroupLayoutDescriptorEANtNtB1R_10bind_group15BindingResourcej1_AB31_j2_ECslQCpptksoiT_3mod
FNDA:8,_RINvMs_NtCsap2RCL79A4I_14wgpu_3dgs_core14compute_bundleNtB5_13ComputeBundle3newINtNtCsj4FhK7DZU1O_5alloc3vec3VecRNtNtNtCsebiihMPZ3Ak_4wgpu3api17bind_group_layout25BindGroupLayoutDescriptorEANtNtB1R_10bind_group15BindingResourcej2_AB31_j1_ECslQCpptksoiT_3mod
FNDA:1,_RINvMs_NtCsap2RCL79A4I_14wgpu_3dgs_core14compute_bundleNtB5_13ComputeBundle3newINtNtCsj4FhK7DZU1O_5alloc3vec3VecRNtNtNtCsebiihMPZ3Ak_4wgpu3api17bind_group_layout25BindGroupLayoutDescriptorEANtNtB1R_10bind_group15BindingResourcej3_AB31_j1_ECslQCpptksoiT_3mod
FNDA:1,_RINvMs_NtCsap2RCL79A4I_14wgpu_3dgs_core14compute_bundleNtB5_13ComputeBundle40update_bind_group_with_binding_resourcesANtNtNtCsebiihMPZ3Ak_4wgpu3api10bind_group15BindingResourcej1_ECslQCpptksoiT_3mod
FNDA:13,_RNCINvMs0_NtCsap2RCL79A4I_14wgpu_3dgs_core14compute_bundleINtB8_13ComputeBundleuE23new_without_bind_groupsINtNtCsj4FhK7DZU1O_5alloc3vec3VecRNtNtNtCsebiihMPZ3Ak_4wgpu3api17bind_group_layout25BindGroupLayoutDescriptorEE0CslQCpptksoiT_3mod
FNDA:4,_RNCINvMs_NtCsap2RCL79A4I_14wgpu_3dgs_core14compute_bundleNtB7_13ComputeBundle24create_bind_group_staticANtNtNtCsebiihMPZ3Ak_4wgpu3api10bind_group15BindingResourcej1_E0CslQCpptksoiT_3mod
FNDA:16,_RNCINvMs_NtCsap2RCL79A4I_14wgpu_3dgs_core14compute_bundleNtB7_13ComputeBundle24create_bind_group_staticANtNtNtCsebiihMPZ3Ak_4wgpu3api10bind_group15BindingResourcej2_E0CslQCpptksoiT_3mod
FNDA:3,_RNCINvMs_NtCsap2RCL79A4I_14wgpu_3dgs_core14compute_bundleNtB7_13ComputeBundle24create_bind_group_staticANtNtNtCsebiihMPZ3Ak_4wgpu3api10bind_group15BindingResourcej3_E0CslQCpptksoiT_3mod
FNDA:1,_RNCINvMs_NtCsap2RCL79A4I_14wgpu_3dgs_core14compute_bundleNtB7_13ComputeBundle3newINtNtCsj4FhK7DZU1O_5alloc3vec3VecRNtNtNtCsebiihMPZ3Ak_4wgpu3api17bind_group_layout25BindGroupLayoutDescriptorEANtNtB1T_10bind_group15BindingResourcej1_AB33_B3F_E0CslQCpptksoiT_3mod
FNDA:0,_RNCINvMs_NtCsap2RCL79A4I_14wgpu_3dgs_core14compute_bundleNtB7_13ComputeBundle3newINtNtCsj4FhK7DZU1O_5alloc3vec3VecRNtNtNtCsebiihMPZ3Ak_4wgpu3api17bind_group_layout25BindGroupLayoutDescriptorEANtNtB1T_10bind_group15BindingResourcej1_AB33_j2_E0CslQCpptksoiT_3mod
FNDA:8,_RNCINvMs_NtCsap2RCL79A4I_14wgpu_3dgs_core14compute_bundleNtB7_13ComputeBundle3newINtNtCsj4FhK7DZU1O_5alloc3vec3VecRNtNtNtCsebiihMPZ3Ak_4wgpu3api17bind_group_layout25BindGroupLayoutDescriptorEANtNtB1T_10bind_group15BindingResourcej2_AB33_j1_E0CslQCpptksoiT_3mod
FNDA:1,_RNCINvMs_NtCsap2RCL79A4I_14wgpu_3dgs_core14compute_bundleNtB7_13ComputeBundle3newINtNtCsj4FhK7DZU1O_5alloc3vec3VecRNtNtNtCsebiihMPZ3Ak_4wgpu3api17bind_group_layout25BindGroupLayoutDescriptorEANtNtB1T_10bind_group15BindingResourcej3_AB33_j1_E0CslQCpptksoiT_3mod
FNDA:3,_RNvMNtCsap2RCL79A4I_14wgpu_3dgs_core14compute_bundleINtB2_13ComputeBundleuE14workgroup_sizeCslQCpptksoiT_3mod
FNDA:2,_RNvMNtCsap2RCL79A4I_14wgpu_3dgs_core14compute_bundleINtB2_13ComputeBundleuE18bind_group_layoutsCslQCpptksoiT_3mod
FNDA:10,_RNvMNtCsap2RCL79A4I_14wgpu_3dgs_core14compute_bundleINtB2_13ComputeBundleuE5labelCslQCpptksoiT_3mod
FNDA:1,_RNvMNtCsap2RCL79A4I_14wgpu_3dgs_core14compute_bundleINtB2_13ComputeBundleuE8pipelineCslQCpptksoiT_3mod
FNDA:1,_RNvMNtCsap2RCL79A4I_14wgpu_3dgs_core14compute_bundleNtB2_13ComputeBundle18bind_group_layoutsCslQCpptksoiT_3mod
FNDA:9,_RNvMs2_NtCsap2RCL79A4I_14wgpu_3dgs_core14compute_bundleINtB5_20ComputeBundleBuilderNtNtCs9SnwICGty7U_4wesl7resolve11PkgResolverE11entry_pointCslQCpptksoiT_3mod
FNDA:9,_RNvMs2_NtCsap2RCL79A4I_14wgpu_3dgs_core14compute_bundleINtB5_20ComputeBundleBuilderNtNtCs9SnwICGty7U_4wesl7resolve11PkgResolverE11main_shaderCslQCpptksoiT_3mod
FNDA:7,_RNvMs2_NtCsap2RCL79A4I_14wgpu_3dgs_core14compute_bundleINtB5_20ComputeBundleBuilderNtNtCs9SnwICGty7U_4wesl7resolve11PkgResolverE20wesl_compile_optionsCslQCpptksoiT_3mod
FNDA:10,_RNvMs2_NtCsap2RCL79A4I_14wgpu_3dgs_core14compute_bundleNtB5_20ComputeBundleBuilder11entry_pointCslQCpptksoiT_3mod
FNDA:10,_RNvMs2_NtCsap2RCL79A4I_14wgpu_3dgs_core14compute_bundleNtB5_20ComputeBundleBuilder11main_shaderCslQCpptksoiT_3mod
FNDA:3,_RNvMs2_NtCsap2RCL79A4I_14wgpu_3dgs_core14compute_bundleNtB5_20ComputeBundleBuilder14workgroup_sizeCslQCpptksoiT_3mod
FNDA:18,_RNvMs2_NtCsap2RCL79A4I_14wgpu_3dgs_core14compute_bundleNtB5_20ComputeBundleBuilder17bind_group_layoutCslQCpptksoiT_3mod
FNDA:1,_RNvMs2_NtCsap2RCL79A4I_14wgpu_3dgs_core14compute_bundleNtB5_20ComputeBundleBuilder20wesl_compile_optionsCslQCpptksoiT_3mod
FNDA:1,_RNvMs2_NtCsap2RCL79A4I_14wgpu_3dgs_core14compute_bundleNtB5_20ComputeBundleBuilder24pipeline_compile_optionsCslQCpptksoiT_3mod
FNDA:5,_RNvMs2_NtCsap2RCL79A4I_14wgpu_3dgs_core14compute_bundleNtB5_20ComputeBundleBuilder25build_without_bind_groupsCslQCpptksoiT_3mod
FNDA:21,_RNvMs1_NtCsap2RCL79A4I_14wgpu_3dgs_core14compute_bundleNtB5_20ComputeBundleBuilder3new
FNDA:11,_RNvMs_NtCsap2RCL79A4I_14wgpu_3dgs_core14compute_bundleNtB4_13ComputeBundle11bind_groups
FNDA:1,_RNvMs_NtCsap2RCL79A4I_14wgpu_3dgs_core14compute_bundleNtB4_13ComputeBundle17update_bind_group
FNDA:11,_RNvMs_NtCsap2RCL79A4I_14wgpu_3dgs_core14compute_bundleNtB4_13ComputeBundle8dispatch
FNDA:1,_RNvXs3_NtCsap2RCL79A4I_14wgpu_3dgs_core14compute_bundleNtB5_20ComputeBundleBuilderNtNtCsmHtFwzCQ9E_4core7default7Default7default
FNDA:11,_RINvMNtCsap2RCL79A4I_14wgpu_3dgs_core14compute_bundleNtB3_13ComputeBundle25dispatch_with_bind_groupsRSNtNtNtCsebiihMPZ3Ak_4wgpu3api10bind_group9BindGroupEB5_
FNDA:12,_RNvMNtCsap2RCL79A4I_14wgpu_3dgs_core14compute_bundleNtB2_13ComputeBundle14workgroup_sizeB4_
FNDA:0,_RINvMNtCs3bDQ3tnbls4_14wgpu_3dgs_core14compute_bundleINtB3_13ComputeBundlepE17create_bind_grouppEB5_
FNDA:0,_RINvMNtCs3bDQ3tnbls4_14wgpu_3dgs_core14compute_bundleINtB3_13ComputeBundlepE25dispatch_with_bind_groupspEB5_
FNDA:0,_RINvMs0_NtCs3bDQ3tnbls4_14wgpu_3dgs_core14compute_bundleINtB6_13ComputeBundleuE23new_without_bind_groupspEB8_
FNDA:0,_RINvMs0_NtCs3bDQ3tnbls4_14wgpu_3dgs_core14compute_bundleINtB6_13ComputeBundleuE8dispatchpEB8_
FNDA:0,_RINvMs2_NtCs3bDQ3tnbls4_14wgpu_3dgs_core14compute_bundleINtB6_20ComputeBundleBuilderpE18bind_group_layoutspEB8_
FNDA:0,_RINvMs2_NtCs3bDQ3tnbls4_14wgpu_3dgs_core14compute_bundleINtB6_20ComputeBundleBuilderpE5buildppEB8_
FNDA:0,_RINvMs2_NtCs3bDQ3tnbls4_14wgpu_3dgs_core14compute_bundleINtB6_20ComputeBundleBuilderpE5labelpEB8_
FNDA:0,_RINvMs2_NtCs3bDQ3tnbls4_14wgpu_3dgs_core14compute_bundleINtB6_20ComputeBundleBuilderpE7manglerpEB8_
FNDA:0,_RINvMs2_NtCs3bDQ3tnbls4_14wgpu_3dgs_core14compute_bundleINtB6_20ComputeBundleBuilderpE8resolverpEB8_
FNDA:0,_RINvMs_NtCs3bDQ3tnbls4_14wgpu_3dgs_core14compute_bundleNtB5_13ComputeBundle24create_bind_group_staticpEB7_
FNDA:0,_RINvMs_NtCs3bDQ3tnbls4_14wgpu_3dgs_core14compute_bundleNtB5_13ComputeBundle3newpppEB7_
FNDA:0,_RINvMs_NtCs3bDQ3tnbls4_14wgpu_3dgs_core14compute_bundleNtB5_13ComputeBundle40update_bind_group_with_binding_resourcespEB7_
FNDA:0,_RNCINvMs0_NtCs3bDQ3tnbls4_14wgpu_3dgs_core14compute_bundleINtB8_13ComputeBundleuE23new_without_bind_groupspE0Ba_
FNDA:0,_RNCINvMs_NtCs3bDQ3tnbls4_14wgpu_3dgs_core14compute_bundleNtB7_13ComputeBundle24create_bind_group_staticpE0B9_
FNDA:0,_RNCINvMs_NtCs3bDQ3tnbls4_14wgpu_3dgs_core14compute_bundleNtB7_13ComputeBundle3newpppE0B9_
FNDA:0,_RNvMNtCs3bDQ3tnbls4_14wgpu_3dgs_core14compute_bundleINtB2_13ComputeBundlepE14workgroup_sizeB4_
FNDA:0,_RNvMNtCs3bDQ3tnbls4_14wgpu_3dgs_core14compute_bundleINtB2_13ComputeBundlepE18bind_group_layoutsB4_
FNDA:0,_RNvMNtCs3bDQ3tnbls4_14wgpu_3dgs_core14compute_bundleINtB2_13ComputeBundlepE5labelB4_
FNDA:0,_RNvMNtCs3bDQ3tnbls4_14wgpu_3dgs_core14compute_bundleINtB2_13ComputeBundlepE8pipelineB4_
FNDA:0,_RNvMs1_NtCs3bDQ3tnbls4_14wgpu_3dgs_core14compute_bundleNtB5_20ComputeBundleBuilder3new
FNDA:0,_RNvMs2_NtCs3bDQ3tnbls4_14wgpu_3dgs_core14compute_bundleINtB5_20ComputeBundleBuilderpE11entry_pointB7_
FNDA:0,_RNvMs2_NtCs3bDQ3tnbls4_14wgpu_3dgs_core14compute_bundleINtB5_20ComputeBundleBuilderpE11main_shaderB7_
FNDA:0,_RNvMs2_NtCs3bDQ3tnbls4_14wgpu_3dgs_core14compute_bundleINtB5_20ComputeBundleBuilderpE14workgroup_sizeB7_
FNDA:0,_RNvMs2_NtCs3bDQ3tnbls4_14wgpu_3dgs_core14compute_bundleINtB5_20ComputeBundleBuilderpE17bind_group_layoutB7_
FNDA:0,_RNvMs2_NtCs3bDQ3tnbls4_14wgpu_3dgs_core14compute_bundleINtB5_20ComputeBundleBuilderpE20wesl_compile_optionsB7_
FNDA:0,_RNvMs2_NtCs3bDQ3tnbls4_14wgpu_3dgs_core14compute_bundleINtB5_20ComputeBundleBuilderpE24pipeline_compile_optionsB7_
FNDA:0,_RNvMs2_NtCs3bDQ3tnbls4_14wgpu_3dgs_core14compute_bundleINtB5_20ComputeBundleBuilderpE25build_without_bind_groupsB7_
FNDA:0,_RNvMs_NtCs3bDQ3tnbls4_14wgpu_3dgs_core14compute_bundleNtB4_13ComputeBundle11bind_groups
FNDA:0,_RNvMs_NtCs3bDQ3tnbls4_14wgpu_3dgs_core14compute_bundleNtB4_13ComputeBundle17update_bind_group
FNDA:0,_RNvMs_NtCs3bDQ3tnbls4_14wgpu_3dgs_core14compute_bundleNtB4_13ComputeBundle8dispatch
FNDA:0,_RNvXs3_NtCs3bDQ3tnbls4_14wgpu_3dgs_core14compute_bundleNtB5_20ComputeBundleBuilderNtNtCsmHtFwzCQ9E_4core7default7Default7default
FNF:31
FNH:31
DA:72,3
DA:73,3
DA:74,3
DA:75,3
DA:76,3
DA:77,3
DA:78,3
DA:79,3
DA:80,3
DA:81,3
DA:82,3
DA:83,3
DA:85,3
DA:88,15
DA:89,15
DA:90,15
DA:93,10
DA:94,10
DA:95,10
DA:101,3
DA:102,3
DA:103,3
DA:106,1
DA:107,1
DA:108,1
DA:114,12
DA:115,12
DA:116,12
DA:117,12
DA:118,12
DA:119,12
DA:120,12
DA:121,12
DA:122,12
DA:123,12
DA:125,12
DA:127,13
DA:128,13
DA:129,13
DA:131,12
DA:132,12
DA:141,12
DA:142,12
DA:143,12
DA:144,12
DA:145,12
DA:146,12
DA:147,12
DA:148,12
DA:149,12
DA:150,12
DA:151,12
DA:152,12
DA:153,12
DA:154,12
DA:155,12
DA:156,12
DA:157,12
DA:158,12
DA:159,1
DA:161,11
DA:163,11
DA:164,1
DA:165,1
DA:166,1
DA:167,1
DA:168,10
DA:170,10
DA:171,10
DA:172,10
DA:173,10
DA:174,10
DA:175,10
DA:176,10
DA:177,10
DA:178,10
DA:179,10
DA:181,10
DA:182,10
DA:183,10
DA:184,10
DA:185,10
DA:186,10
DA:187,10
DA:188,12
DA:191,11
DA:192,11
DA:193,11
DA:196,11
DA:197,11
DA:198,11
DA:204,1
DA:205,1
DA:206,1
DA:207,1
DA:208,1
DA:209,1
DA:210,0
DA:211,1
DA:213,1
DA:214,1
DA:220,1
DA:221,1
DA:222,1
DA:223,1
DA:224,1
DA:225,1
DA:226,1
DA:227,1
DA:228,1
DA:233,13
DA:234,13
DA:235,13
DA:236,13
DA:237,13
DA:238,13
DA:239,13
DA:240,13
DA:241,13
DA:242,13
DA:243,13
DA:244,13
DA:245,13
DA:246,13
DA:247,23
DA:248,23
DA:249,23
DA:250,13
DA:252,13
DA:260,13
DA:261,13
DA:262,13
DA:263,13
DA:264,13
DA:265,13
DA:266,13
DA:267,13
DA:268,13
DA:269,13
DA:270,13
DA:271,13
DA:272,13
DA:274,13
DA:276,13
DA:277,1
DA:278,1
DA:279,1
DA:280,1
DA:281,12
DA:283,12
DA:284,0
DA:285,0
DA:287,12
DA:288,12
DA:289,13
DA:290,12
DA:292,12
DA:293,0
DA:294,0
DA:296,12
DA:297,12
DA:298,12
DA:299,12
DA:300,12
DA:302,12
DA:303,0
DA:304,0
DA:306,12
DA:307,12
DA:308,12
DA:309,12
DA:311,12
DA:312,12
DA:313,12
DA:314,12
DA:315,12
DA:317,12
DA:318,12
DA:319,12
DA:320,12
DA:322,12
DA:323,12
DA:324,12
DA:325,12
DA:326,12
DA:327,12
DA:328,12
DA:329,12
DA:330,12
DA:332,12
DA:334,12
DA:335,12
DA:336,12
DA:337,12
DA:338,12
DA:339,12
DA:340,12
DA:341,13
DA:344,1
DA:345,1
DA:346,1
DA:347,1
DA:348,1
DA:349,1
DA:350,1
DA:351,1
DA:378,21
DA:379,21
DA:380,21
DA:381,21
DA:382,21
DA:383,21
DA:384,21
DA:385,21
DA:386,21
DA:387,21
DA:388,21
DA:389,21
DA:390,21
DA:395,1
DA:396,1
DA:397,1
DA:398,1
DA:401,18
DA:402,18
DA:403,18
DA:404,18
DA:405,18
DA:406,18
DA:407,18
DA:410,1
DA:411,1
DA:412,1
DA:413,1
DA:414,1
DA:415,1
DA:416,1
DA:419,1
DA:420,1
DA:421,1
DA:422,1
DA:423,1
DA:424,1
DA:425,1
DA:431,19
DA:432,19
DA:433,19
DA:434,19
DA:440,19
DA:441,19
DA:442,19
DA:443,19
DA:444,19
DA:445,19
DA:446,19
DA:447,19
DA:448,19
DA:449,19
DA:450,19
DA:451,19
DA:452,19
DA:455,8
DA:456,8
DA:457,8
DA:458,8
DA:461,19
DA:462,19
DA:463,19
DA:464,19
DA:465,19
DA:466,19
DA:467,19
DA:468,19
DA:469,19
DA:470,19
DA:471,19
DA:472,19
DA:473,19
DA:476,1
DA:477,1
DA:478,1
DA:479,1
DA:480,1
DA:481,1
DA:482,1
DA:483,1
DA:484,1
DA:485,1
DA:486,1
DA:487,1
DA:488,1
DA:489,1
DA:490,1
DA:491,1
DA:494,3
DA:495,3
DA:496,3
DA:497,3
DA:500,16
DA:501,16
DA:502,16
DA:503,16
DA:504,16
DA:505,16
DA:506,1
DA:507,15
DA:509,15
DA:510,1
DA:513,14
DA:514,1
DA:517,13
DA:518,1
DA:521,12
DA:522,12
DA:523,12
DA:524,12
DA:525,12
DA:526,12
DA:527,0
DA:528,12
DA:529,12
DA:532,12
DA:533,12
DA:534,12
DA:535,12
DA:536,12
DA:537,12
DA:538,12
DA:539,12
DA:540,12
DA:542,12
DA:543,16
DA:546,5
DA:547,5
DA:548,5
DA:549,5
DA:550,5
DA:551,1
DA:552,4
DA:554,4
DA:555,1
DA:558,3
DA:559,1
DA:562,2
DA:563,1
DA:566,1
DA:567,1
DA:568,1
DA:569,1
DA:570,1
DA:571,1
DA:572,0
DA:573,1
DA:574,1
DA:577,1
DA:578,1
DA:579,1
DA:580,1
DA:581,1
DA:582,1
DA:583,1
DA:584,1
DA:585,0
DA:586,5
DA:590,1
DA:591,1
DA:592,1
BRF:0
BRH:0
LF:369
LH:355
end_of_record
SF:C:\Users\s2010\Me\Codes\Rust\wgpu-3dgs-core\src\gaussian.rs
FN:342,_RNCNvMs0_NtCsap2RCL79A4I_14wgpu_3dgs_core8gaussianNtB7_20GaussianToSpzOptions14sh_bucket_size0B9_
FN:71,_RNCNvMs_NtCsap2RCL79A4I_14wgpu_3dgs_core8gaussianNtB6_8Gaussian6to_ply0B8_
FN:208,_RNCNvMs_NtCsap2RCL79A4I_14wgpu_3dgs_core8gaussianNtB6_8Gaussian6to_spz0B8_
FN:226,_RNCNvMs_NtCsap2RCL79A4I_14wgpu_3dgs_core8gaussianNtB6_8Gaussian6to_spzs0_0B8_
FN:234,_RNCNvMs_NtCsap2RCL79A4I_14wgpu_3dgs_core8gaussianNtB6_8Gaussian6to_spzs1_0B8_
FN:266,_RNCNvMs_NtCsap2RCL79A4I_14wgpu_3dgs_core8gaussianNtB6_8Gaussian6to_spzs2_0B8_
FN:274,_RNCNvMs_NtCsap2RCL79A4I_14wgpu_3dgs_core8gaussianNtB6_8Gaussian6to_spzs3_0B8_
FN:305,_RNCNvMs_NtCsap2RCL79A4I_14wgpu_3dgs_core8gaussianNtB6_8Gaussian6to_spzs4_0B8_
FN:212,_RNCNvMs_NtCsap2RCL79A4I_14wgpu_3dgs_core8gaussianNtB6_8Gaussian6to_spzs_0B8_
FN:54,_RNCNvMs_NtCsap2RCL79A4I_14wgpu_3dgs_core8gaussianNtB6_8Gaussian8from_ply0B8_
FN:109,_RNCNvMs_NtCsap2RCL79A4I_14wgpu_3dgs_core8gaussianNtB6_8Gaussian8from_spz0B8_
FN:129,_RNCNvMs_NtCsap2RCL79A4I_14wgpu_3dgs_core8gaussianNtB6_8Gaussian8from_spzs0_0B8_
FN:133,_RNCNvMs_NtCsap2RCL79A4I_14wgpu_3dgs_core8gaussianNtB6_8Gaussian8from_spzs1_0B8_
FN:147,_RNCNvMs_NtCsap2RCL79A4I_14wgpu_3dgs_core8gaussianNtB6_8Gaussian8from_spzs2_0B8_
FN:170,_RNCNvMs_NtCsap2RCL79A4I_14wgpu_3dgs_core8gaussianNtB6_8Gaussian8from_spzs3_0B8_
FN:179,_RNCNvMs_NtCsap2RCL79A4I_14wgpu_3dgs_core8gaussianNtB6_8Gaussian8from_spzs4_0B8_
FN:114,_RNCNvMs_NtCsap2RCL79A4I_14wgpu_3dgs_core8gaussianNtB6_8Gaussian8from_spzs_0B8_
FN:341,_RNvMs0_NtCsap2RCL79A4I_14wgpu_3dgs_core8gaussianNtB5_20GaussianToSpzOptions14sh_bucket_size
FN:333,_RNvMs0_NtCsap2RCL79A4I_14wgpu_3dgs_core8gaussianNtB5_20GaussianToSpzOptions7sh_bits
FN:66,_RNvMs_NtCsap2RCL79A4I_14wgpu_3dgs_core8gaussianNtB4_8Gaussian6to_ply
FN:199,_RNvMs_NtCsap2RCL79A4I_14wgpu_3dgs_core8gaussianNtB4_8Gaussian6to_spz
FN:41,_RNvMs_NtCsap2RCL79A4I_14wgpu_3dgs_core8gaussianNtB4_8Gaussian8from_ply
FN:105,_RNvMs_NtCsap2RCL79A4I_14wgpu_3dgs_core8gaussianNtB4_8Gaussian8from_spz
FN:291,_RNvNvMs_NtCsap2RCL79A4I_14wgpu_3dgs_core8gaussianNtB6_8Gaussian6to_spz11quantize_sh
FN:347,_RNvXs1_NtCsap2RCL79A4I_14wgpu_3dgs_core8gaussianNtB5_20GaussianToSpzOptionsNtNtCsmHtFwzCQ9E_4core7default7Default7default
FN:15,_RNvXNtCsap2RCL79A4I_14wgpu_3dgs_core8gaussianINtNtCsj4FhK7DZU1O_5alloc3vec3VecNtB2_8GaussianENtB2_12IterGaussian13iter_gaussian
FN:342,_RNCNvMs0_NtCs3bDQ3tnbls4_14wgpu_3dgs_core8gaussianNtB7_20GaussianToSpzOptions14sh_bucket_size0B9_
FN:71,_RNCNvMs_NtCs3bDQ3tnbls4_14wgpu_3dgs_core8gaussianNtB6_8Gaussian6to_ply0B8_
FN:208,_RNCNvMs_NtCs3bDQ3tnbls4_14wgpu_3dgs_core8gaussianNtB6_8Gaussian6to_spz0B8_
FN:226,_RNCNvMs_NtCs3bDQ3tnbls4_14wgpu_3dgs_core8gaussianNtB6_8Gaussian6to_spzs0_0B8_
FN:234,_RNCNvMs_NtCs3bDQ3tnbls4_14wgpu_3dgs_core8gaussianNtB6_8Gaussian6to_spzs1_0B8_
FN:266,_RNCNvMs_NtCs3bDQ3tnbls4_14wgpu_3dgs_core8gaussianNtB6_8Gaussian6to_spzs2_0B8_
FN:274,_RNCNvMs_NtCs3bDQ3tnbls4_14wgpu_3dgs_core8gaussianNtB6_8Gaussian6to_spzs3_0B8_
FN:305,_RNCNvMs_NtCs3bDQ3tnbls4_14wgpu_3dgs_core8gaussianNtB6_8Gaussian6to_spzs4_0B8_
FN:212,_RNCNvMs_NtCs3bDQ3tnbls4_14wgpu_3dgs_core8gaussianNtB6_8Gaussian6to_spzs_0B8_
FN:54,_RNCNvMs_NtCs3bDQ3tnbls4_14wgpu_3dgs_core8gaussianNtB6_8Gaussian8from_ply0B8_
FN:109,_RNCNvMs_NtCs3bDQ3tnbls4_14wgpu_3dgs_core8gaussianNtB6_8Gaussian8from_spz0B8_
FN:129,_RNCNvMs_NtCs3bDQ3tnbls4_14wgpu_3dgs_core8gaussianNtB6_8Gaussian8from_spzs0_0B8_
FN:133,_RNCNvMs_NtCs3bDQ3tnbls4_14wgpu_3dgs_core8gaussianNtB6_8Gaussian8from_spzs1_0B8_
FN:147,_RNCNvMs_NtCs3bDQ3tnbls4_14wgpu_3dgs_core8gaussianNtB6_8Gaussian8from_spzs2_0B8_
FN:170,_RNCNvMs_NtCs3bDQ3tnbls4_14wgpu_3dgs_core8gaussianNtB6_8Gaussian8from_spzs3_0B8_
FN:179,_RNCNvMs_NtCs3bDQ3tnbls4_14wgpu_3dgs_core8gaussianNtB6_8Gaussian8from_spzs4_0B8_
FN:114,_RNCNvMs_NtCs3bDQ3tnbls4_14wgpu_3dgs_core8gaussianNtB6_8Gaussian8from_spzs_0B8_
FN:341,_RNvMs0_NtCs3bDQ3tnbls4_14wgpu_3dgs_core8gaussianNtB5_20GaussianToSpzOptions14sh_bucket_size
FN:333,_RNvMs0_NtCs3bDQ3tnbls4_14wgpu_3dgs_core8gaussianNtB5_20GaussianToSpzOptions7sh_bits
FN:66,_RNvMs_NtCs3bDQ3tnbls4_14wgpu_3dgs_core8gaussianNtB4_8Gaussian6to_ply
FN:199,_RNvMs_NtCs3bDQ3tnbls4_14wgpu_3dgs_core8gaussianNtB4_8Gaussian6to_spz
FN:41,_RNvMs_NtCs3bDQ3tnbls4_14wgpu_3dgs_core8gaussianNtB4_8Gaussian8from_ply
FN:105,_RNvMs_NtCs3bDQ3tnbls4_14wgpu_3dgs_core8gaussianNtB4_8Gaussian8from_spz
FN:291,_RNvNvMs_NtCs3bDQ3tnbls4_14wgpu_3dgs_core8gaussianNtB6_8Gaussian6to_spz11quantize_sh
FN:15,_RNvXNtCs3bDQ3tnbls4_14wgpu_3dgs_core8gaussianINtNtCsj4FhK7DZU1O_5alloc3vec3VecNtB2_8GaussianENtB2_12IterGaussian13iter_gaussian
FN:347,_RNvXs1_NtCs3bDQ3tnbls4_14wgpu_3dgs_core8gaussianNtB5_20GaussianToSpzOptionsNtNtCsmHtFwzCQ9E_4core7default7Default7default
FNDA:824,_RNCNvMs0_NtCsap2RCL79A4I_14wgpu_3dgs_core8gaussianNtB7_20GaussianToSpzOptions14sh_bucket_size0B9_
FNDA:66,_RNCNvMs_NtCsap2RCL79A4I_14wgpu_3dgs_core8gaussianNtB6_8Gaussian6to_ply0B8_
FNDA:12,_RNCNvMs_NtCsap2RCL79A4I_14wgpu_3dgs_core8gaussianNtB6_8Gaussian6to_spz0B8_
FNDA:192,_RNCNvMs_NtCsap2RCL79A4I_14wgpu_3dgs_core8gaussianNtB6_8Gaussian6to_spzs0_0B8_
FNDA:168,_RNCNvMs_NtCsap2RCL79A4I_14wgpu_3dgs_core8gaussianNtB6_8Gaussian6to_spzs1_0B8_
FNDA:24,_RNCNvMs_NtCsap2RCL79A4I_14wgpu_3dgs_core8gaussianNtB6_8Gaussian6to_spzs2_0B8_
FNDA:256,_RNCNvMs_NtCsap2RCL79A4I_14wgpu_3dgs_core8gaussianNtB6_8Gaussian6to_spzs3_0B8_
FNDA:2472,_RNCNvMs_NtCsap2RCL79A4I_14wgpu_3dgs_core8gaussianNtB6_8Gaussian6to_spzs4_0B8_
FNDA:180,_RNCNvMs_NtCsap2RCL79A4I_14wgpu_3dgs_core8gaussianNtB6_8Gaussian6to_spzs_0B8_
FNDA:45,_RNCNvMs_NtCsap2RCL79A4I_14wgpu_3dgs_core8gaussianNtB6_8Gaussian8from_ply0B8_
FNDA:6,_RNCNvMs_NtCsap2RCL79A4I_14wgpu_3dgs_core8gaussianNtB6_8Gaussian8from_spz0B8_
FNDA:141,_RNCNvMs_NtCsap2RCL79A4I_14wgpu_3dgs_core8gaussianNtB6_8Gaussian8from_spzs0_0B8_
FNDA:39,_RNCNvMs_NtCsap2RCL79A4I_14wgpu_3dgs_core8gaussianNtB6_8Gaussian8from_spzs1_0B8_
FNDA:136,_RNCNvMs_NtCsap2RCL79A4I_14wgpu_3dgs_core8gaussianNtB6_8Gaussian8from_spzs2_0B8_
FNDA:141,_RNCNvMs_NtCsap2RCL79A4I_14wgpu_3dgs_core8gaussianNtB6_8Gaussian8from_spzs3_0B8_
FNDA:1911,_RNCNvMs_NtCsap2RCL79A4I_14wgpu_3dgs_core8gaussianNtB6_8Gaussian8from_spzs4_0B8_
FNDA:135,_RNCNvMs_NtCsap2RCL79A4I_14wgpu_3dgs_core8gaussianNtB6_8Gaussian8from_spzs_0B8_
FNDA:824,_RNvMs0_NtCsap2RCL79A4I_14wgpu_3dgs_core8gaussianNtB5_20GaussianToSpzOptions14sh_bucket_size
FNDA:824,_RNvMs0_NtCsap2RCL79A4I_14wgpu_3dgs_core8gaussianNtB5_20GaussianToSpzOptions7sh_bits
FNDA:22,_RNvMs_NtCsap2RCL79A4I_14wgpu_3dgs_core8gaussianNtB4_8Gaussian6to_ply
FNDA:64,_RNvMs_NtCsap2RCL79A4I_14wgpu_3dgs_core8gaussianNtB4_8Gaussian6to_spz
FNDA:3,_RNvMs_NtCsap2RCL79A4I_14wgpu_3dgs_core8gaussianNtB4_8Gaussian8from_ply
FNDA:47,_RNvMs_NtCsap2RCL79A4I_14wgpu_3dgs_core8gaussianNtB4_8Gaussian8from_spz
FNDA:2472,_RNvNvMs_NtCsap2RCL79A4I_14wgpu_3dgs_core8gaussianNtB6_8Gaussian6to_spz11quantize_sh
FNDA:41,_RNvXs1_NtCsap2RCL79A4I_14wgpu_3dgs_core8gaussianNtB5_20GaussianToSpzOptionsNtNtCsmHtFwzCQ9E_4core7default7Default7default
FNDA:235,_RNvXNtCsap2RCL79A4I_14wgpu_3dgs_core8gaussianINtNtCsj4FhK7DZU1O_5alloc3vec3VecNtB2_8GaussianENtB2_12IterGaussian13iter_gaussian
FNDA:0,_RNCNvMs0_NtCs3bDQ3tnbls4_14wgpu_3dgs_core8gaussianNtB7_20GaussianToSpzOptions14sh_bucket_size0B9_
FNDA:0,_RNCNvMs_NtCs3bDQ3tnbls4_14wgpu_3dgs_core8gaussianNtB6_8Gaussian6to_ply0B8_
FNDA:0,_RNCNvMs_NtCs3bDQ3tnbls4_14wgpu_3dgs_core8gaussianNtB6_8Gaussian6to_spz0B8_
FNDA:0,_RNCNvMs_NtCs3bDQ3tnbls4_14wgpu_3dgs_core8gaussianNtB6_8Gaussian6to_spzs0_0B8_
FNDA:0,_RNCNvMs_NtCs3bDQ3tnbls4_14wgpu_3dgs_core8gaussianNtB6_8Gaussian6to_spzs1_0B8_
FNDA:0,_RNCNvMs_NtCs3bDQ3tnbls4_14wgpu_3dgs_core8gaussianNtB6_8Gaussian6to_spzs2_0B8_
FNDA:0,_RNCNvMs_NtCs3bDQ3tnbls4_14wgpu_3dgs_core8gaussianNtB6_8Gaussian6to_spzs3_0B8_
FNDA:0,_RNCNvMs_NtCs3bDQ3tnbls4_14wgpu_3dgs_core8gaussianNtB6_8Gaussian6to_spzs4_0B8_
FNDA:0,_RNCNvMs_NtCs3bDQ3tnbls4_14wgpu_3dgs_core8gaussianNtB6_8Gaussian6to_spzs_0B8_
FNDA:0,_RNCNvMs_NtCs3bDQ3tnbls4_14wgpu_3dgs_core8gaussianNtB6_8Gaussian8from_ply0B8_
FNDA:0,_RNCNvMs_NtCs3bDQ3tnbls4_14wgpu_3dgs_core8gaussianNtB6_8Gaussian8from_spz0B8_
FNDA:0,_RNCNvMs_NtCs3bDQ3tnbls4_14wgpu_3dgs_core8gaussianNtB6_8Gaussian8from_spzs0_0B8_
FNDA:0,_RNCNvMs_NtCs3bDQ3tnbls4_14wgpu_3dgs_core8gaussianNtB6_8Gaussian8from_spzs1_0B8_
FNDA:0,_RNCNvMs_NtCs3bDQ3tnbls4_14wgpu_3dgs_core8gaussianNtB6_8Gaussian8from_spzs2_0B8_
FNDA:0,_RNCNvMs_NtCs3bDQ3tnbls4_14wgpu_3dgs_core8gaussianNtB6_8Gaussian8from_spzs3_0B8_
FNDA:0,_RNCNvMs_NtCs3bDQ3tnbls4_14wgpu_3dgs_core8gaussianNtB6_8Gaussian8from_spzs4_0B8_
FNDA:0,_RNCNvMs_NtCs3bDQ3tnbls4_14wgpu_3dgs_core8gaussianNtB6_8Gaussian8from_spzs_0B8_
FNDA:0,_RNvMs0_NtCs3bDQ3tnbls4_14wgpu_3dgs_core8gaussianNtB5_20GaussianToSpzOptions14sh_bucket_size
FNDA:0,_RNvMs0_NtCs3bDQ3tnbls4_14wgpu_3dgs_core8gaussianNtB5_20GaussianToSpzOptions7sh_bits
FNDA:0,_RNvMs_NtCs3bDQ3tnbls4_14wgpu_3dgs_core8gaussianNtB4_8Gaussian6to_ply
FNDA:0,_RNvMs_NtCs3bDQ3tnbls4_14wgpu_3dgs_core8gaussianNtB4_8Gaussian6to_spz
FNDA:0,_RNvMs_NtCs3bDQ3tnbls4_14wgpu_3dgs_core8gaussianNtB4_8Gaussian8from_ply
FNDA:0,_RNvMs_NtCs3bDQ3tnbls4_14wgpu_3dgs_core8gaussianNtB4_8Gaussian8from_spz
FNDA:0,_RNvNvMs_NtCs3bDQ3tnbls4_14wgpu_3dgs_core8gaussianNtB6_8Gaussian6to_spz11quantize_sh
FNDA:0,_RNvXNtCs3bDQ3tnbls4_14wgpu_3dgs_core8gaussianINtNtCsj4FhK7DZU1O_5alloc3vec3VecNtB2_8GaussianENtB2_12IterGaussian13iter_gaussian
FNDA:0,_RNvXs1_NtCs3bDQ3tnbls4_14wgpu_3dgs_core8gaussianNtB5_20GaussianToSpzOptionsNtNtCsmHtFwzCQ9E_4core7default7Default7default
FNF:26
FNH:26
DA:15,235
DA:16,235
DA:17,235
DA:41,3
DA:42,3
DA:44,3
DA:46,3
DA:48,3
DA:49,3
DA:50,3
DA:51,3
DA:52,3
DA:54,45
DA:56,3
DA:57,3
DA:58,3
DA:59,3
DA:60,3
DA:61,3
DA:62,3
DA:63,3
DA:66,22
DA:67,22
DA:69,22
DA:71,66
DA:73,22
DA:74,22
DA:76,22
DA:78,22
DA:79,352
DA:80,330
DA:81,330
DA:82,330
DA:83,330
DA:85,22
DA:87,22
DA:88,22
DA:89,22
DA:90,22
DA:91,22
DA:92,22
DA:93,22
DA:94,22
DA:95,22
DA:96,22
DA:105,47
DA:106,47
DA:107,2
DA:109,6
DA:110,2
DA:112,45
DA:113,45
DA:114,135
DA:115,135
DA:116,135
DA:117,135
DA:118,135
DA:119,0
DA:121,135
DA:123,135
DA:124,135
DA:125,45
DA:129,141
DA:131,47
DA:132,13
DA:133,39
DA:134,13
DA:135,13
DA:137,34
DA:138,34
DA:139,34
DA:140,34
DA:141,34
DA:145,34
DA:146,34
DA:147,136
DA:148,136
DA:149,34
DA:150,102
DA:152,102
DA:153,102
DA:154,102
DA:156,102
DA:157,102
DA:158,102
DA:159,102
DA:161,102
DA:162,136
DA:164,34
DA:166,34
DA:170,141
DA:171,141
DA:172,141
DA:173,141
DA:174,141
DA:175,47
DA:177,47
DA:178,637
DA:179,1911
DA:182,47
DA:183,47
DA:184,47
DA:185,47
DA:186,47
DA:187,47
DA:188,47
DA:189,47
DA:199,64
DA:200,64
DA:201,64
DA:202,64
DA:203,64
DA:204,64
DA:205,4
DA:206,4
DA:207,4
DA:208,12
DA:209,4
DA:211,60
DA:212,180
DA:213,180
DA:214,180
DA:215,180
DA:216,180
DA:217,180
DA:218,180
DA:219,180
DA:220,60
DA:223,64
DA:224,64
DA:225,64
DA:226,192
DA:228,64
DA:229,56
DA:230,56
DA:231,56
DA:232,56
DA:233,56
DA:234,168
DA:235,56
DA:240,56
DA:242,56
DA:243,224
DA:244,224
DA:245,56
DA:246,168
DA:248,168
DA:249,168
DA:250,168
DA:251,168
DA:254,56
DA:255,56
DA:256,56
DA:257,56
DA:258,56
DA:259,56
DA:261,8
DA:262,8
DA:263,8
DA:264,8
DA:265,8
DA:266,24
DA:267,8
DA:270,64
DA:272,64
DA:273,64
DA:274,256
DA:275,256
DA:276,256
DA:277,256
DA:278,64
DA:279,64
DA:281,64
DA:282,4
DA:283,60
DA:284,60
DA:285,4
DA:286,4
DA:287,52
DA:288,0
DA:291,2472
DA:292,2472
DA:293,2472
DA:294,2292
DA:296,180
DA:298,2472
DA:299,2472
DA:301,824
DA:302,824
DA:303,824
DA:304,824
DA:305,2472
DA:308,60
DA:310,0
DA:313,64
DA:314,64
DA:315,64
DA:316,64
DA:317,64
DA:318,64
DA:319,64
DA:320,64
DA:321,64
DA:333,824
DA:334,824
DA:335,824
DA:336,0
DA:338,824
DA:341,824
DA:342,824
DA:343,824
DA:347,41
DA:348,41
DA:349,41
DA:350,41
DA:351,41
BRF:0
BRH:0
LF:233
LH:229
end_of_record
SF:C:\Users\s2010\Me\Codes\Rust\wgpu-3dgs-core\src\gaussian_config.rs
FN:43,_RNvXNtCsap2RCL79A4I_14wgpu_3dgs_core15gaussian_configNtB2_22GaussianShSingleConfigNtB2_16GaussianShConfig5to_sh
FN:39,_RNvXNtCsap2RCL79A4I_14wgpu_3dgs_core15gaussian_configNtB2_22GaussianShSingleConfigNtB2_16GaussianShConfig7from_sh
FN:111,_RNvXs0_NtCsap2RCL79A4I_14wgpu_3dgs_core15gaussian_configNtB5_21GaussianShNorm8ConfigNtB5_16GaussianShConfig5to_sh
FN:90,_RNvXs0_NtCsap2RCL79A4I_14wgpu_3dgs_core15gaussian_configNtB5_21GaussianShNorm8ConfigNtB5_16GaussianShConfig7from_sh
FN:143,_RNvXs1_NtCsap2RCL79A4I_14wgpu_3dgs_core15gaussian_configNtB5_20GaussianShNoneConfigNtB5_16GaussianShConfig5to_sh
FN:141,_RNvXs1_NtCsap2RCL79A4I_14wgpu_3dgs_core15gaussian_configNtB5_20GaussianShNoneConfigNtB5_16GaussianShConfig7from_sh
FN:189,_RNvXs2_NtCsap2RCL79A4I_14wgpu_3dgs_core15gaussian_configNtB5_27GaussianCov3dRotScaleConfigNtB5_19GaussianCov3dConfig12to_rot_scale
FN:185,_RNvXs2_NtCsap2RCL79A4I_14wgpu_3dgs_core15gaussian_configNtB5_27GaussianCov3dRotScaleConfigNtB5_19GaussianCov3dConfig14from_rot_scale
FN:223,_RNvXs3_NtCsap2RCL79A4I_14wgpu_3dgs_core15gaussian_configNtB5_25GaussianCov3dSingleConfigNtB5_19GaussianCov3dConfig12to_rot_scale
FN:207,_RNvXs3_NtCsap2RCL79A4I_14wgpu_3dgs_core15gaussian_configNtB5_25GaussianCov3dSingleConfigNtB5_19GaussianCov3dConfig14from_rot_scale
FN:242,_RNvXs4_NtCsap2RCL79A4I_14wgpu_3dgs_core15gaussian_configNtB5_23GaussianCov3dHalfConfigNtB5_19GaussianCov3dConfig12to_rot_scale
FN:238,_RNvXs4_NtCsap2RCL79A4I_14wgpu_3dgs_core15gaussian_configNtB5_23GaussianCov3dHalfConfigNtB5_19GaussianCov3dConfig14from_rot_scale
FN:66,_RNvXs_NtCsap2RCL79A4I_14wgpu_3dgs_core15gaussian_configNtB4_20GaussianShHalfConfigNtB4_16GaussianShConfig5to_sh
FN:56,_RNvXs_NtCsap2RCL79A4I_14wgpu_3dgs_core15gaussian_configNtB4_20GaussianShHalfConfigNtB4_16GaussianShConfig7from_sh
FN:118,_RNCNvXs0_NtCsap2RCL79A4I_14wgpu_3dgs_core15gaussian_configNtB7_21GaussianShNorm8ConfigNtB7_16GaussianShConfig5to_sh0B9_
FN:93,_RNCNvXs0_NtCsap2RCL79A4I_14wgpu_3dgs_core15gaussian_configNtB7_21GaussianShNorm8ConfigNtB7_16GaussianShConfig7from_sh0B9_
FN:103,_RNCNvXs0_NtCsap2RCL79A4I_14wgpu_3dgs_core15gaussian_configNtB7_21GaussianShNorm8ConfigNtB7_16GaussianShConfig7from_shs0_0B9_
FN:94,_RNCNvXs0_NtCsap2RCL79A4I_14wgpu_3dgs_core15gaussian_configNtB7_21GaussianShNorm8ConfigNtB7_16GaussianShConfig7from_shs_0B9_
FN:69,_RNCNvXs_NtCsap2RCL79A4I_14wgpu_3dgs_core15gaussian_configNtB6_20GaussianShHalfConfigNtB6_16GaussianShConfig5to_sh0B8_
FN:58,_RNCNvXs_NtCsap2RCL79A4I_14wgpu_3dgs_core15gaussian_configNtB6_20GaussianShHalfConfigNtB6_16GaussianShConfig7from_sh0B8_
FN:43,_RNvXNtCs3bDQ3tnbls4_14wgpu_3dgs_core15gaussian_configNtB2_22GaussianShSingleConfigNtB2_16GaussianShConfig5to_sh
FN:39,_RNvXNtCs3bDQ3tnbls4_14wgpu_3dgs_core15gaussian_configNtB2_22GaussianShSingleConfigNtB2_16GaussianShConfig7from_sh
FN:111,_RNvXs0_NtCs3bDQ3tnbls4_14wgpu_3dgs_core15gaussian_configNtB5_21GaussianShNorm8ConfigNtB5_16GaussianShConfig5to_sh
FN:90,_RNvXs0_NtCs3bDQ3tnbls4_14wgpu_3dgs_core15gaussian_configNtB5_21GaussianShNorm8ConfigNtB5_16GaussianShConfig7from_sh
FN:143,_RNvXs1_NtCs3bDQ3tnbls4_14wgpu_3dgs_core15gaussian_configNtB5_20GaussianShNoneConfigNtB5_16GaussianShConfig5to_sh
FN:141,_RNvXs1_NtCs3bDQ3tnbls4_14wgpu_3dgs_core15gaussian_configNtB5_20GaussianShNoneConfigNtB5_16GaussianShConfig7from_sh
FN:189,_RNvXs2_NtCs3bDQ3tnbls4_14wgpu_3dgs_core15gaussian_configNtB5_27GaussianCov3dRotScaleConfigNtB5_19GaussianCov3dConfig12to_rot_scale
FN:185,_RNvXs2_NtCs3bDQ3tnbls4_14wgpu_3dgs_core15gaussian_configNtB5_27GaussianCov3dRotScaleConfigNtB5_19GaussianCov3dConfig14from_rot_scale
FN:223,_RNvXs3_NtCs3bDQ3tnbls4_14wgpu_3dgs_core15gaussian_configNtB5_25GaussianCov3dSingleConfigNtB5_19GaussianCov3dConfig12to_rot_scale
FN:207,_RNvXs3_NtCs3bDQ3tnbls4_14wgpu_3dgs_core15gaussian_configNtB5_25GaussianCov3dSingleConfigNtB5_19GaussianCov3dConfig14from_rot_scale
FN:242,_RNvXs4_NtCs3bDQ3tnbls4_14wgpu_3dgs_core15gaussian_configNtB5_23GaussianCov3dHalfConfigNtB5_19GaussianCov3dConfig12to_rot_scale
FN:238,_RNvXs4_NtCs3bDQ3tnbls4_14wgpu_3dgs_core15gaussian_configNtB5_23GaussianCov3dHalfConfigNtB5_19GaussianCov3dConfig14from_rot_scale
FN:66,_RNvXs_NtCs3bDQ3tnbls4_14wgpu_3dgs_core15gaussian_configNtB4_20GaussianShHalfConfigNtB4_16GaussianShConfig5to_sh
FN:56,_RNvXs_NtCs3bDQ3tnbls4_14wgpu_3dgs_core15gaussian_configNtB4_20GaussianShHalfConfigNtB4_16GaussianShConfig7from_sh
FN:118,_RNCNvXs0_NtCs3bDQ3tnbls4_14wgpu_3dgs_core15gaussian_configNtB7_21GaussianShNorm8ConfigNtB7_16GaussianShConfig5to_sh0B9_
FN:93,_RNCNvXs0_NtCs3bDQ3tnbls4_14wgpu_3dgs_core15gaussian_configNtB7_21GaussianShNorm8ConfigNtB7_16GaussianShConfig7from_sh0B9_
FN:103,_RNCNvXs0_NtCs3bDQ3tnbls4_14wgpu_3dgs_core15gaussian_configNtB7_21GaussianShNorm8ConfigNtB7_16GaussianShConfig7from_shs0_0B9_
FN:94,_RNCNvXs0_NtCs3bDQ3tnbls4_14wgpu_3dgs_core15gaussian_configNtB7_21GaussianShNorm8ConfigNtB7_16GaussianShConfig7from_shs_0B9_
FN:69,_RNCNvXs_NtCs3bDQ3tnbls4_14wgpu_3dgs_core15gaussian_configNtB6_20GaussianShHalfConfigNtB6_16GaussianShConfig5to_sh0B8_
FN:58,_RNCNvXs_NtCs3bDQ3tnbls4_14wgpu_3dgs_core15gaussian_configNtB6_20GaussianShHalfConfigNtB6_16GaussianShConfig7from_sh0B8_
FNDA:8,_RNvXNtCsap2RCL79A4I_14wgpu_3dgs_core15gaussian_configNtB2_22GaussianShSingleConfigNtB2_16GaussianShConfig5to_sh
FNDA:248,_RNvXNtCsap2RCL79A4I_14wgpu_3dgs_core15gaussian_configNtB2_22GaussianShSingleConfigNtB2_16GaussianShConfig7from_sh
FNDA:8,_RNvXs0_NtCsap2RCL79A4I_14wgpu_3dgs_core15gaussian_configNtB5_21GaussianShNorm8ConfigNtB5_16GaussianShConfig5to_sh
FNDA:244,_RNvXs0_NtCsap2RCL79A4I_14wgpu_3dgs_core15gaussian_configNtB5_21GaussianShNorm8ConfigNtB5_16GaussianShConfig7from_sh
FNDA:3,_RNvXs1_NtCsap2RCL79A4I_14wgpu_3dgs_core15gaussian_configNtB5_20GaussianShNoneConfigNtB5_16GaussianShConfig5to_sh
FNDA:243,_RNvXs1_NtCsap2RCL79A4I_14wgpu_3dgs_core15gaussian_configNtB5_20GaussianShNoneConfigNtB5_16GaussianShConfig7from_sh
FNDA:18,_RNvXs2_NtCsap2RCL79A4I_14wgpu_3dgs_core15gaussian_configNtB5_27GaussianCov3dRotScaleConfigNtB5_19GaussianCov3dConfig12to_rot_scale
FNDA:325,_RNvXs2_NtCsap2RCL79A4I_14wgpu_3dgs_core15gaussian_configNtB5_27GaussianCov3dRotScaleConfigNtB5_19GaussianCov3dConfig14from_rot_scale
FNDA:3,_RNvXs3_NtCsap2RCL79A4I_14wgpu_3dgs_core15gaussian_configNtB5_25GaussianCov3dSingleConfigNtB5_19GaussianCov3dConfig12to_rot_scale
FNDA:666,_RNvXs3_NtCsap2RCL79A4I_14wgpu_3dgs_core15gaussian_configNtB5_25GaussianCov3dSingleConfigNtB5_19GaussianCov3dConfig14from_rot_scale
FNDA:3,_RNvXs4_NtCsap2RCL79A4I_14wgpu_3dgs_core15gaussian_configNtB5_23GaussianCov3dHalfConfigNtB5_19GaussianCov3dConfig12to_rot_scale
FNDA:334,_RNvXs4_NtCsap2RCL79A4I_14wgpu_3dgs_core15gaussian_configNtB5_23GaussianCov3dHalfConfigNtB5_19GaussianCov3dConfig14from_rot_scale
FNDA:8,_RNvXs_NtCsap2RCL79A4I_14wgpu_3dgs_core15gaussian_configNtB4_20GaussianShHalfConfigNtB4_16GaussianShConfig5to_sh
FNDA:253,_RNvXs_NtCsap2RCL79A4I_14wgpu_3dgs_core15gaussian_configNtB4_20GaussianShHalfConfigNtB4_16GaussianShConfig7from_sh
FNDA:120,_RNCNvXs0_NtCsap2RCL79A4I_14wgpu_3dgs_core15gaussian_configNtB7_21GaussianShNorm8ConfigNtB7_16GaussianShConfig5to_sh0B9_
FNDA:3660,_RNCNvXs0_NtCsap2RCL79A4I_14wgpu_3dgs_core15gaussian_configNtB7_21GaussianShNorm8ConfigNtB7_16GaussianShConfig7from_sh0B9_
FNDA:10980,_RNCNvXs0_NtCsap2RCL79A4I_14wgpu_3dgs_core15gaussian_configNtB7_21GaussianShNorm8ConfigNtB7_16GaussianShConfig7from_shs0_0B9_
FNDA:10980,_RNCNvXs0_NtCsap2RCL79A4I_14wgpu_3dgs_core15gaussian_configNtB7_21GaussianShNorm8ConfigNtB7_16GaussianShConfig7from_shs_0B9_
FNDA:120,_RNCNvXs_NtCsap2RCL79A4I_14wgpu_3dgs_core15gaussian_configNtB6_20GaussianShHalfConfigNtB6_16GaussianShConfig5to_sh0B8_
FNDA:3795,_RNCNvXs_NtCsap2RCL79A4I_14wgpu_3dgs_core15gaussian_configNtB6_20GaussianShHalfConfigNtB6_16GaussianShConfig7from_sh0B8_
FNDA:3,_RNvXNtCs3bDQ3tnbls4_14wgpu_3dgs_core15gaussian_configNtB2_22GaussianShSingleConfigNtB2_16GaussianShConfig5to_sh
FNDA:10,_RNvXNtCs3bDQ3tnbls4_14wgpu_3dgs_core15gaussian_configNtB2_22GaussianShSingleConfigNtB2_16GaussianShConfig7from_sh
FNDA:3,_RNvXs0_NtCs3bDQ3tnbls4_14wgpu_3dgs_core15gaussian_configNtB5_21GaussianShNorm8ConfigNtB5_16GaussianShConfig5to_sh
FNDA:10,_RNvXs0_NtCs3bDQ3tnbls4_14wgpu_3dgs_core15gaussian_configNtB5_21GaussianShNorm8ConfigNtB5_16GaussianShConfig7from_sh
FNDA:3,_RNvXs1_NtCs3bDQ3tnbls4_14wgpu_3dgs_core15gaussian_configNtB5_20GaussianShNoneConfigNtB5_16GaussianShConfig5to_sh
FNDA:9,_RNvXs1_NtCs3bDQ3tnbls4_14wgpu_3dgs_core15gaussian_configNtB5_20GaussianShNoneConfigNtB5_16GaussianShConfig7from_sh
FNDA:3,_RNvXs2_NtCs3bDQ3tnbls4_14wgpu_3dgs_core15gaussian_configNtB5_27GaussianCov3dRotScaleConfigNtB5_19GaussianCov3dConfig12to_rot_scale
FNDA:15,_RNvXs2_NtCs3bDQ3tnbls4_14wgpu_3dgs_core15gaussian_configNtB5_27GaussianCov3dRotScaleConfigNtB5_19GaussianCov3dConfig14from_rot_scale
FNDA:3,_RNvXs3_NtCs3bDQ3tnbls4_14wgpu_3dgs_core15gaussian_configNtB5_25GaussianCov3dSingleConfigNtB5_19GaussianCov3dConfig12to_rot_scale
FNDA:24,_RNvXs3_NtCs3bDQ3tnbls4_14wgpu_3dgs_core15gaussian_configNtB5_25GaussianCov3dSingleConfigNtB5_19GaussianCov3dConfig14from_rot_scale
FNDA:3,_RNvXs4_NtCs3bDQ3tnbls4_14wgpu_3dgs_core15gaussian_configNtB5_23GaussianCov3dHalfConfigNtB5_19GaussianCov3dConfig12to_rot_scale
FNDA:12,_RNvXs4_NtCs3bDQ3tnbls4_14wgpu_3dgs_core15gaussian_configNtB5_23GaussianCov3dHalfConfigNtB5_19GaussianCov3dConfig14from_rot_scale
FNDA:3,_RNvXs_NtCs3bDQ3tnbls4_14wgpu_3dgs_core15gaussian_configNtB4_20GaussianShHalfConfigNtB4_16GaussianShConfig5to_sh
FNDA:10,_RNvXs_NtCs3bDQ3tnbls4_14wgpu_3dgs_core15gaussian_configNtB4_20GaussianShHalfConfigNtB4_16GaussianShConfig7from_sh
FNDA:45,_RNCNvXs0_NtCs3bDQ3tnbls4_14wgpu_3dgs_core15gaussian_configNtB7_21GaussianShNorm8ConfigNtB7_16GaussianShConfig5to_sh0B9_
FNDA:150,_RNCNvXs0_NtCs3bDQ3tnbls4_14wgpu_3dgs_core15gaussian_configNtB7_21GaussianShNorm8ConfigNtB7_16GaussianShConfig7from_sh0B9_
FNDA:450,_RNCNvXs0_NtCs3bDQ3tnbls4_14wgpu_3dgs_core15gaussian_configNtB7_21GaussianShNorm8ConfigNtB7_16GaussianShConfig7from_shs0_0B9_
FNDA:450,_RNCNvXs0_NtCs3bDQ3tnbls4_14wgpu_3dgs_core15gaussian_configNtB7_21GaussianShNorm8ConfigNtB7_16GaussianShConfig7from_shs_0B9_
FNDA:45,_RNCNvXs_NtCs3bDQ3tnbls4_14wgpu_3dgs_core15gaussian_configNtB6_20GaussianShHalfConfigNtB6_16GaussianShConfig5to_sh0B8_
FNDA:150,_RNCNvXs_NtCs3bDQ3tnbls4_14wgpu_3dgs_core15gaussian_configNtB6_20GaussianShHalfConfigNtB6_16GaussianShConfig7from_sh0B8_
FNF:20
FNH:20
DA:39,258
DA:40,258
DA:41,258
DA:43,11
DA:44,11
DA:45,11
DA:56,263
DA:57,263
DA:58,3945
DA:59,263
DA:60,263
DA:61,263
DA:62,263
DA:63,263
DA:64,263
DA:66,11
DA:67,11
DA:68,11
DA:69,165
DA:70,165
DA:71,165
DA:72,165
DA:73,165
DA:75,165
DA:76,11
DA:77,11
DA:78,11
DA:79,11
DA:90,254
DA:91,254
DA:93,3810
DA:94,11430
DA:95,11430
DA:96,11430
DA:97,254
DA:99,254
DA:100,254
DA:101,254
DA:102,254
DA:103,11430
DA:104,254
DA:105,254
DA:108,254
DA:109,254
DA:111,11
DA:112,11
DA:113,11
DA:114,11
DA:116,11
DA:117,11
DA:118,165
DA:119,165
DA:120,165
DA:121,165
DA:122,165
DA:124,165
DA:125,11
DA:126,11
DA:127,11
DA:128,11
DA:141,252
DA:143,6
DA:144,6
DA:185,340
DA:186,340
DA:187,340
DA:189,21
DA:190,21
DA:191,21
DA:192,21
DA:193,21
DA:194,21
DA:207,690
DA:208,690
DA:209,690
DA:210,690
DA:211,690
DA:213,690
DA:214,690
DA:215,690
DA:216,690
DA:217,690
DA:218,690
DA:219,690
DA:220,690
DA:221,690
DA:223,6
DA:224,6
DA:238,346
DA:239,346
DA:240,346
DA:242,6
DA:243,6
BRF:0
BRH:0
LF:99
LH:99
end_of_record
SF:C:\Users\s2010\Me\Codes\Rust\wgpu-3dgs-core\src\source_format\ply.rs
FN:285,_RINvMs4_NtNtCsap2RCL79A4I_14wgpu_3dgs_core13source_format3plyNtB6_12PlyGaussians13read_ply_fileRNtNtNtCslQCpptksoiT_3mod6common5given8TempFileEB1C_
FN:410,_RINvMs4_NtNtCsap2RCL79A4I_14wgpu_3dgs_core13source_format3plyNtB6_12PlyGaussians14write_ply_fileRNtNtNtCslQCpptksoiT_3mod6common5given8TempFileEB1D_
FN:315,_RINvMs4_NtNtCsap2RCL79A4I_14wgpu_3dgs_core13source_format3plyNtB6_12PlyGaussians15read_ply_headerINtNtNtNtCs9iOHoBythrW_3std2io8buffered9bufreader9BufReaderNtNtB1G_2fs4FileEECslQCpptksoiT_3mod
FN:315,_RINvMs4_NtNtCsap2RCL79A4I_14wgpu_3dgs_core13source_format3plyNtB6_12PlyGaussians15read_ply_headerRShECslQCpptksoiT_3mod
FN:349,_RINvMs4_NtNtCsap2RCL79A4I_14wgpu_3dgs_core13source_format3plyNtB6_12PlyGaussians18read_ply_gaussiansINtNtNtNtCs9iOHoBythrW_3std2io8buffered9bufreader9BufReaderNtNtB1J_2fs4FileEECslQCpptksoiT_3mod
FN:349,_RINvMs4_NtNtCsap2RCL79A4I_14wgpu_3dgs_core13source_format3plyNtB6_12PlyGaussians18read_ply_gaussiansRShECslQCpptksoiT_3mod
FN:297,_RINvMs4_NtNtCsap2RCL79A4I_14wgpu_3dgs_core13source_format3plyNtB6_12PlyGaussians8read_plyINtNtNtNtCs9iOHoBythrW_3std2io8buffered9bufreader9BufReaderNtNtB1y_2fs4FileEECslQCpptksoiT_3mod
FN:297,_RINvMs4_NtNtCsap2RCL79A4I_14wgpu_3dgs_core13source_format3plyNtB6_12PlyGaussians8read_plyRShECslQCpptksoiT_3mod
FN:422,_RINvMs4_NtNtCsap2RCL79A4I_14wgpu_3dgs_core13source_format3plyNtB6_12PlyGaussians9write_plyINtNtCsj4FhK7DZU1O_5alloc3vec3VechEECslQCpptksoiT_3mod
FN:422,_RINvMs4_NtNtCsap2RCL79A4I_14wgpu_3dgs_core13source_format3plyNtB6_12PlyGaussians9write_plyINtNtNtNtCs9iOHoBythrW_3std2io8buffered9bufwriter9BufWriterNtNtB1z_2fs4FileEECslQCpptksoiT_3mod
FN:457,_RINvXs7_NtNtCsap2RCL79A4I_14wgpu_3dgs_core13source_format3plyNtB6_12PlyGaussiansINtNtNtNtCsmHtFwzCQ9E_4core4iter6traits7collect12FromIteratorNtB6_14PlyGaussianPodE9from_iterINtNtNtCsj4FhK7DZU1O_5alloc3vec9into_iter8IntoIterB2f_EECslQCpptksoiT_3mod
FN:332,_RNCINvMs4_NtNtCsap2RCL79A4I_14wgpu_3dgs_core13source_format3plyNtB8_12PlyGaussians15read_ply_headerINtNtNtNtCs9iOHoBythrW_3std2io8buffered9bufreader9BufReaderNtNtB1I_2fs4FileEE0CslQCpptksoiT_3mod
FN:332,_RNCINvMs4_NtNtCsap2RCL79A4I_14wgpu_3dgs_core13source_format3plyNtB8_12PlyGaussians15read_ply_headerRShE0CslQCpptksoiT_3mod
FN:357,_RNCINvMs4_NtNtCsap2RCL79A4I_14wgpu_3dgs_core13source_format3plyNtB8_12PlyGaussians18read_ply_gaussiansINtNtNtNtCs9iOHoBythrW_3std2io8buffered9bufreader9BufReaderNtNtB1L_2fs4FileEE0CslQCpptksoiT_3mod
FN:365,_RNCINvMs4_NtNtCsap2RCL79A4I_14wgpu_3dgs_core13source_format3plyNtB8_12PlyGaussians18read_ply_gaussiansINtNtNtNtCs9iOHoBythrW_3std2io8buffered9bufreader9BufReaderNtNtB1L_2fs4FileEEs_0CslQCpptksoiT_3mod
FN:357,_RNCINvMs4_NtNtCsap2RCL79A4I_14wgpu_3dgs_core13source_format3plyNtB8_12PlyGaussians18read_ply_gaussiansRShE0CslQCpptksoiT_3mod
FN:365,_RNCINvMs4_NtNtCsap2RCL79A4I_14wgpu_3dgs_core13source_format3plyNtB8_12PlyGaussians18read_ply_gaussiansRShEs_0CslQCpptksoiT_3mod
FN:438,_RNCINvMs4_NtNtCsap2RCL79A4I_14wgpu_3dgs_core13source_format3plyNtB8_12PlyGaussians9write_plyINtNtCsj4FhK7DZU1O_5alloc3vec3VechEE0CslQCpptksoiT_3mod
FN:438,_RNCINvMs4_NtNtCsap2RCL79A4I_14wgpu_3dgs_core13source_format3plyNtB8_12PlyGaussians9write_plyINtNtNtNtCs9iOHoBythrW_3std2io8buffered9bufwriter9BufWriterNtNtB1B_2fs4FileEE0CslQCpptksoiT_3mod
FN:381,_RNCNCINvMs4_NtNtCsap2RCL79A4I_14wgpu_3dgs_core13source_format3plyNtBa_12PlyGaussians18read_ply_gaussiansINtNtNtNtCs9iOHoBythrW_3std2io8buffered9bufreader9BufReaderNtNtB1N_2fs4FileEEs_00CslQCpptksoiT_3mod
FN:384,_RNCNCINvMs4_NtNtCsap2RCL79A4I_14wgpu_3dgs_core13source_format3plyNtBa_12PlyGaussians18read_ply_gaussiansINtNtNtNtCs9iOHoBythrW_3std2io8buffered9bufreader9BufReaderNtNtB1N_2fs4FileEEs_0s_0CslQCpptksoiT_3mod
FN:381,_RNCNCINvMs4_NtNtCsap2RCL79A4I_14wgpu_3dgs_core13source_format3plyNtBa_12PlyGaussians18read_ply_gaussiansRShEs_00CslQCpptksoiT_3mod
FN:384,_RNCNCINvMs4_NtNtCsap2RCL79A4I_14wgpu_3dgs_core13source_format3plyNtBa_12PlyGaussians18read_ply_gaussiansRShEs_0s_0CslQCpptksoiT_3mod
FN:178,_RNvXs3_NtNtCsap2RCL79A4I_14wgpu_3dgs_core13source_format3plyINtB5_15PlyGaussianIterINtNtNtNtCsmHtFwzCQ9E_4core4iter8adapters3map3MapINtNtNtB1s_3ops5range5RangejENCINvMs4_B5_NtB5_12PlyGaussians18read_ply_gaussiansINtNtNtNtCs9iOHoBythrW_3std2io8buffered9bufreader9BufReaderNtNtB3x_2fs4FileEE0EIB1k_B26_NCB2B_s_0EENtNtNtB1q_6traits8iterator8Iterator4nextCslQCpptksoiT_3mod
FN:178,_RNvXs3_NtNtCsap2RCL79A4I_14wgpu_3dgs_core13source_format3plyINtB5_15PlyGaussianIterINtNtNtNtCsmHtFwzCQ9E_4core4iter8adapters3map3MapINtNtNtB1s_3ops5range5RangejENCINvMs4_B5_NtB5_12PlyGaussians18read_ply_gaussiansRShE0EIB1k_B26_NCB2B_s_0EENtNtNtB1q_6traits8iterator8Iterator4nextCslQCpptksoiT_3mod
FN:25,_RNvMNtNtCsap2RCL79A4I_14wgpu_3dgs_core13source_format3plyNtB2_14PlyGaussianPod9set_value
FN:149,_RNvMs2_NtNtCsap2RCL79A4I_14wgpu_3dgs_core13source_format3plyNtB5_9PlyHeader5count
FN:265,_RNvMs4_NtNtCsap2RCL79A4I_14wgpu_3dgs_core13source_format3plyNtB5_12PlyGaussians3len
FN:275,_RNvMs4_NtNtCsap2RCL79A4I_14wgpu_3dgs_core13source_format3plyNtB5_12PlyGaussians4iter
FN:270,_RNvMs4_NtNtCsap2RCL79A4I_14wgpu_3dgs_core13source_format3plyNtB5_12PlyGaussians8is_empty
FN:280,_RNvMs4_NtNtCsap2RCL79A4I_14wgpu_3dgs_core13source_format3plyNtB5_12PlyGaussians8iter_mut
FN:186,_RNvNtNtCsap2RCL79A4I_14wgpu_3dgs_core13source_format3ply30vertex_element_not_found_error
FN:118,_RNvXs0_NtNtCsap2RCL79A4I_14wgpu_3dgs_core13source_format3plyNtB5_14PlyGaussianPodINtNtCsmHtFwzCQ9E_4core7convert4FromNtNtB9_8gaussian8GaussianE4from
FN:124,_RNvXs1_NtNtCsap2RCL79A4I_14wgpu_3dgs_core13source_format3plyNtB5_14PlyGaussianPodINtNtCsmHtFwzCQ9E_4core7convert4FromRNtNtB9_8gaussian8GaussianE4from
FN:445,_RNvXs5_NtNtCsap2RCL79A4I_14wgpu_3dgs_core13source_format3plyNtB5_12PlyGaussiansNtNtB9_8gaussian12IterGaussian13iter_gaussian
FN:451,_RNvXs6_NtNtCsap2RCL79A4I_14wgpu_3dgs_core13source_format3plyNtB5_12PlyGaussiansINtNtCsmHtFwzCQ9E_4core7convert4FromINtNtCsj4FhK7DZU1O_5alloc3vec3VecNtB5_14PlyGaussianPodEE4from
FN:107,_RNvXs_NtNtCsap2RCL79A4I_14wgpu_3dgs_core13source_format3plyNtB4_14PlyGaussianPodNtNtNtCs9AUWEBnCqWx_6ply_rs3ply8property14PropertyAccess12set_property
FN:103,_RNvXs_NtNtCsap2RCL79A4I_14wgpu_3dgs_core13source_format3plyNtB4_14PlyGaussianPodNtNtNtCs9AUWEBnCqWx_6ply_rs3ply8property14PropertyAccess3new
FN:285,_RINvMs4_NtNtCs3bDQ3tnbls4_14wgpu_3dgs_core13source_format3plyNtB6_12PlyGaussians13read_ply_filepEBa_
FN:410,_RINvMs4_NtNtCs3bDQ3tnbls4_14wgpu_3dgs_core13source_format3plyNtB6_12PlyGaussians14write_ply_filepEBa_
FN:315,_RINvMs4_NtNtCs3bDQ3tnbls4_14wgpu_3dgs_core13source_format3plyNtB6_12PlyGaussians15read_ply_headerpEBa_
FN:349,_RINvMs4_NtNtCs3bDQ3tnbls4_14wgpu_3dgs_core13source_format3plyNtB6_12PlyGaussians18read_ply_gaussianspEBa_
FN:297,_RINvMs4_NtNtCs3bDQ3tnbls4_14wgpu_3dgs_core13source_format3plyNtB6_12PlyGaussians8read_plypEBa_
FN:422,_RINvMs4_NtNtCs3bDQ3tnbls4_14wgpu_3dgs_core13source_format3plyNtB6_12PlyGaussians9write_plypEBa_
FN:457,_RINvXs7_NtNtCs3bDQ3tnbls4_14wgpu_3dgs_core13source_format3plyNtB6_12PlyGaussiansINtNtNtNtCsmHtFwzCQ9E_4core4iter6traits7collect12FromIteratorNtB6_14PlyGaussianPodE9from_iterpEBa_
FN:332,_RNCINvMs4_NtNtCs3bDQ3tnbls4_14wgpu_3dgs_core13source_format3plyNtB8_12PlyGaussians15read_ply_headerpE0Bc_
FN:357,_RNCINvMs4_NtNtCs3bDQ3tnbls4_14wgpu_3dgs_core13source_format3plyNtB8_12PlyGaussians18read_ply_gaussianspE0Bc_
FN:365,_RNCINvMs4_NtNtCs3bDQ3tnbls4_14wgpu_3dgs_core13source_format3plyNtB8_12PlyGaussians18read_ply_gaussianspEs_0Bc_
FN:438,_RNCINvMs4_NtNtCs3bDQ3tnbls4_14wgpu_3dgs_core13source_format3plyNtB8_12PlyGaussians9write_plypE0Bc_
FN:381,_RNCNCINvMs4_NtNtCs3bDQ3tnbls4_14wgpu_3dgs_core13source_format3plyNtBa_12PlyGaussians18read_ply_gaussianspEs_00Be_
FN:384,_RNCNCINvMs4_NtNtCs3bDQ3tnbls4_14wgpu_3dgs_core13source_format3plyNtBa_12PlyGaussians18read_ply_gaussianspEs_0s_0Be_
FN:25,_RNvMNtNtCs3bDQ3tnbls4_14wgpu_3dgs_core13source_format3plyNtB2_14PlyGaussianPod9set_value
FN:149,_RNvMs2_NtNtCs3bDQ3tnbls4_14wgpu_3dgs_core13source_format3plyNtB5_9PlyHeader5count
FN:265,_RNvMs4_NtNtCs3bDQ3tnbls4_14wgpu_3dgs_core13source_format3plyNtB5_12PlyGaussians3len
FN:275,_RNvMs4_NtNtCs3bDQ3tnbls4_14wgpu_3dgs_core13source_format3plyNtB5_12PlyGaussians4iter
FN:270,_RNvMs4_NtNtCs3bDQ3tnbls4_14wgpu_3dgs_core13source_format3plyNtB5_12PlyGaussians8is_empty
FN:280,_RNvMs4_NtNtCs3bDQ3tnbls4_14wgpu_3dgs_core13source_format3plyNtB5_12PlyGaussians8iter_mut
FN:186,_RNvNtNtCs3bDQ3tnbls4_14wgpu_3dgs_core13source_format3ply30vertex_element_not_found_error
FN:178,_RNvXININtNtCs3bDQ3tnbls4_14wgpu_3dgs_core13source_format3plys3_0ppEINtB5_15PlyGaussianIterppENtNtNtNtCsmHtFwzCQ9E_4core4iter6traits8iterator8Iterator4nextB9_
FN:118,_RNvXs0_NtNtCs3bDQ3tnbls4_14wgpu_3dgs_core13source_format3plyNtB5_14PlyGaussianPodINtNtCsmHtFwzCQ9E_4core7convert4FromNtNtB9_8gaussian8GaussianE4from
FN:124,_RNvXs1_NtNtCs3bDQ3tnbls4_14wgpu_3dgs_core13source_format3plyNtB5_14PlyGaussianPodINtNtCsmHtFwzCQ9E_4core7convert4FromRNtNtB9_8gaussian8GaussianE4from
FN:445,_RNvXs5_NtNtCs3bDQ3tnbls4_14wgpu_3dgs_core13source_format3plyNtB5_12PlyGaussiansNtNtB9_8gaussian12IterGaussian13iter_gaussian
FN:451,_RNvXs6_NtNtCs3bDQ3tnbls4_14wgpu_3dgs_core13source_format3plyNtB5_12PlyGaussiansINtNtCsmHtFwzCQ9E_4core7convert4FromINtNtCsj4FhK7DZU1O_5alloc3vec3VecNtB5_14PlyGaussianPodEE4from
FN:107,_RNvXs_NtNtCs3bDQ3tnbls4_14wgpu_3dgs_core13source_format3plyNtB4_14PlyGaussianPodNtNtNtCs9AUWEBnCqWx_6ply_rs3ply8property14PropertyAccess12set_property
FN:103,_RNvXs_NtNtCs3bDQ3tnbls4_14wgpu_3dgs_core13source_format3plyNtB4_14PlyGaussianPodNtNtNtCs9AUWEBnCqWx_6ply_rs3ply8property14PropertyAccess3new
FN:285,_RINvMs4_NtNtCsap2RCL79A4I_14wgpu_3dgs_core13source_format3plyNtB6_12PlyGaussians13read_ply_fileRNtNtCsj4FhK7DZU1O_5alloc6string6StringECskiFSrz17jIX_8read_ply
FN:315,_RINvMs4_NtNtCsap2RCL79A4I_14wgpu_3dgs_core13source_format3plyNtB6_12PlyGaussians15read_ply_headerINtNtNtNtCs9iOHoBythrW_3std2io8buffered9bufreader9BufReaderNtNtB1G_2fs4FileEECskiFSrz17jIX_8read_ply
FN:349,_RINvMs4_NtNtCsap2RCL79A4I_14wgpu_3dgs_core13source_format3plyNtB6_12PlyGaussians18read_ply_gaussiansINtNtNtNtCs9iOHoBythrW_3std2io8buffered9bufreader9BufReaderNtNtB1J_2fs4FileEECskiFSrz17jIX_8read_ply
FN:297,_RINvMs4_NtNtCsap2RCL79A4I_14wgpu_3dgs_core13source_format3plyNtB6_12PlyGaussians8read_plyINtNtNtNtCs9iOHoBythrW_3std2io8buffered9bufreader9BufReaderNtNtB1y_2fs4FileEECskiFSrz17jIX_8read_ply
FN:332,_RNCINvMs4_NtNtCsap2RCL79A4I_14wgpu_3dgs_core13source_format3plyNtB8_12PlyGaussians15read_ply_headerINtNtNtNtCs9iOHoBythrW_3std2io8buffered9bufreader9BufReaderNtNtB1I_2fs4FileEE0CskiFSrz17jIX_8read_ply
FN:357,_RNCINvMs4_NtNtCsap2RCL79A4I_14wgpu_3dgs_core13source_format3plyNtB8_12PlyGaussians18read_ply_gaussiansINtNtNtNtCs9iOHoBythrW_3std2io8buffered9bufreader9BufReaderNtNtB1L_2fs4FileEE0CskiFSrz17jIX_8read_ply
FN:365,_RNCINvMs4_NtNtCsap2RCL79A4I_14wgpu_3dgs_core13source_format3plyNtB8_12PlyGaussians18read_ply_gaussiansINtNtNtNtCs9iOHoBythrW_3std2io8buffered9bufreader9BufReaderNtNtB1L_2fs4FileEEs_0CskiFSrz17jIX_8read_ply
FN:381,_RNCNCINvMs4_NtNtCsap2RCL79A4I_14wgpu_3dgs_core13source_format3plyNtBa_12PlyGaussians18read_ply_gaussiansINtNtNtNtCs9iOHoBythrW_3std2io8buffered9bufreader9BufReaderNtNtB1N_2fs4FileEEs_00CskiFSrz17jIX_8read_ply
FN:384,_RNCNCINvMs4_NtNtCsap2RCL79A4I_14wgpu_3dgs_core13source_format3plyNtBa_12PlyGaussians18read_ply_gaussiansINtNtNtNtCs9iOHoBythrW_3std2io8buffered9bufreader9BufReaderNtNtB1N_2fs4FileEEs_0s_0CskiFSrz17jIX_8read_ply
FN:178,_RNvXs3_NtNtCsap2RCL79A4I_14wgpu_3dgs_core13source_format3plyINtB5_15PlyGaussianIterINtNtNtNtCsmHtFwzCQ9E_4core4iter8adapters3map3MapINtNtNtB1s_3ops5range5RangejENCINvMs4_B5_NtB5_12PlyGaussians18read_ply_gaussiansINtNtNtNtCs9iOHoBythrW_3std2io8buffered9bufreader9BufReaderNtNtB3x_2fs4FileEE0EIB1k_B26_NCB2B_s_0EENtNtNtB1q_6traits8iterator8Iterator4nextCskiFSrz17jIX_8read_ply
FN:410,_RINvMs4_NtNtCsap2RCL79A4I_14wgpu_3dgs_core13source_format3plyNtB6_12PlyGaussians14write_ply_fileRNtNtCsj4FhK7DZU1O_5alloc6string6StringECs4TRziVmNUab_9write_ply
FN:422,_RINvMs4_NtNtCsap2RCL79A4I_14wgpu_3dgs_core13source_format3plyNtB6_12PlyGaussians9write_plyINtNtNtNtCs9iOHoBythrW_3std2io8buffered9bufwriter9BufWriterNtNtB1z_2fs4FileEECs4TRziVmNUab_9write_ply
FN:438,_RNCINvMs4_NtNtCsap2RCL79A4I_14wgpu_3dgs_core13source_format3plyNtB8_12PlyGaussians9write_plyINtNtNtNtCs9iOHoBythrW_3std2io8buffered9bufwriter9BufWriterNtNtB1B_2fs4FileEE0Cs4TRziVmNUab_9write_ply
FNDA:1,_RINvMs4_NtNtCsap2RCL79A4I_14wgpu_3dgs_core13source_format3plyNtB6_12PlyGaussians13read_ply_fileRNtNtNtCslQCpptksoiT_3mod6common5given8TempFileEB1C_
FNDA:1,_RINvMs4_NtNtCsap2RCL79A4I_14wgpu_3dgs_core13source_format3plyNtB6_12PlyGaussians14write_ply_fileRNtNtNtCslQCpptksoiT_3mod6common5given8TempFileEB1D_
FNDA:1,_RINvMs4_NtNtCsap2RCL79A4I_14wgpu_3dgs_core13source_format3plyNtB6_12PlyGaussians15read_ply_headerINtNtNtNtCs9iOHoBythrW_3std2io8buffered9bufreader9BufReaderNtNtB1G_2fs4FileEECslQCpptksoiT_3mod
FNDA:6,_RINvMs4_NtNtCsap2RCL79A4I_14wgpu_3dgs_core13source_format3plyNtB6_12PlyGaussians15read_ply_headerRShECslQCpptksoiT_3mod
FNDA:1,_RINvMs4_NtNtCsap2RCL79A4I_14wgpu_3dgs_core13source_format3plyNtB6_12PlyGaussians18read_ply_gaussiansINtNtNtNtCs9iOHoBythrW_3std2io8buffered9bufreader9BufReaderNtNtB1J_2fs4FileEECslQCpptksoiT_3mod
FNDA:5,_RINvMs4_NtNtCsap2RCL79A4I_14wgpu_3dgs_core13source_format3plyNtB6_12PlyGaussians18read_ply_gaussiansRShECslQCpptksoiT_3mod
FNDA:1,_RINvMs4_NtNtCsap2RCL79A4I_14wgpu_3dgs_core13source_format3plyNtB6_12PlyGaussians8read_plyINtNtNtNtCs9iOHoBythrW_3std2io8buffered9bufreader9BufReaderNtNtB1y_2fs4FileEECslQCpptksoiT_3mod
FNDA:6,_RINvMs4_NtNtCsap2RCL79A4I_14wgpu_3dgs_core13source_format3plyNtB6_12PlyGaussians8read_plyRShECslQCpptksoiT_3mod
FNDA:1,_RINvMs4_NtNtCsap2RCL79A4I_14wgpu_3dgs_core13source_format3plyNtB6_12PlyGaussians9write_plyINtNtCsj4FhK7DZU1O_5alloc3vec3VechEECslQCpptksoiT_3mod
FNDA:1,_RINvMs4_NtNtCsap2RCL79A4I_14wgpu_3dgs_core13source_format3plyNtB6_12PlyGaussians9write_plyINtNtNtNtCs9iOHoBythrW_3std2io8buffered9bufwriter9BufWriterNtNtB1z_2fs4FileEECslQCpptksoiT_3mod
FNDA:1,_RINvXs7_NtNtCsap2RCL79A4I_14wgpu_3dgs_core13source_format3plyNtB6_12PlyGaussiansINtNtNtNtCsmHtFwzCQ9E_4core4iter6traits7collect12FromIteratorNtB6_14PlyGaussianPodE9from_iterINtNtNtCsj4FhK7DZU1O_5alloc3vec9into_iter8IntoIterB2f_EECslQCpptksoiT_3mod
FNDA:62,_RNCINvMs4_NtNtCsap2RCL79A4I_14wgpu_3dgs_core13source_format3plyNtB8_12PlyGaussians15read_ply_headerINtNtNtNtCs9iOHoBythrW_3std2io8buffered9bufreader9BufReaderNtNtB1I_2fs4FileEE0CslQCpptksoiT_3mod
FNDA:130,_RNCINvMs4_NtNtCsap2RCL79A4I_14wgpu_3dgs_core13source_format3plyNtB8_12PlyGaussians15read_ply_headerRShE0CslQCpptksoiT_3mod
FNDA:2,_RNCINvMs4_NtNtCsap2RCL79A4I_14wgpu_3dgs_core13source_format3plyNtB8_12PlyGaussians18read_ply_gaussiansINtNtNtNtCs9iOHoBythrW_3std2io8buffered9bufreader9BufReaderNtNtB1L_2fs4FileEE0CslQCpptksoiT_3mod
FNDA:0,_RNCINvMs4_NtNtCsap2RCL79A4I_14wgpu_3dgs_core13source_format3plyNtB8_12PlyGaussians18read_ply_gaussiansINtNtNtNtCs9iOHoBythrW_3std2io8buffered9bufreader9BufReaderNtNtB1L_2fs4FileEEs_0CslQCpptksoiT_3mod
FNDA:2,_RNCINvMs4_NtNtCsap2RCL79A4I_14wgpu_3dgs_core13source_format3plyNtB8_12PlyGaussians18read_ply_gaussiansRShE0CslQCpptksoiT_3mod
FNDA:7,_RNCINvMs4_NtNtCsap2RCL79A4I_14wgpu_3dgs_core13source_format3plyNtB8_12PlyGaussians18read_ply_gaussiansRShEs_0CslQCpptksoiT_3mod
FNDA:2,_RNCINvMs4_NtNtCsap2RCL79A4I_14wgpu_3dgs_core13source_format3plyNtB8_12PlyGaussians9write_plyINtNtCsj4FhK7DZU1O_5alloc3vec3VechEE0CslQCpptksoiT_3mod
FNDA:2,_RNCINvMs4_NtNtCsap2RCL79A4I_14wgpu_3dgs_core13source_format3plyNtB8_12PlyGaussians9write_plyINtNtNtNtCs9iOHoBythrW_3std2io8buffered9bufwriter9BufWriterNtNtB1B_2fs4FileEE0CslQCpptksoiT_3mod
FNDA:0,_RNCNCINvMs4_NtNtCsap2RCL79A4I_14wgpu_3dgs_core13source_format3plyNtBa_12PlyGaussians18read_ply_gaussiansINtNtNtNtCs9iOHoBythrW_3std2io8buffered9bufreader9BufReaderNtNtB1N_2fs4FileEEs_00CslQCpptksoiT_3mod
FNDA:0,_RNCNCINvMs4_NtNtCsap2RCL79A4I_14wgpu_3dgs_core13source_format3plyNtBa_12PlyGaussians18read_ply_gaussiansINtNtNtNtCs9iOHoBythrW_3std2io8buffered9bufreader9BufReaderNtNtB1N_2fs4FileEEs_0s_0CslQCpptksoiT_3mod
FNDA:185,_RNCNCINvMs4_NtNtCsap2RCL79A4I_14wgpu_3dgs_core13source_format3plyNtBa_12PlyGaussians18read_ply_gaussiansRShEs_00CslQCpptksoiT_3mod
FNDA:185,_RNCNCINvMs4_NtNtCsap2RCL79A4I_14wgpu_3dgs_core13source_format3plyNtBa_12PlyGaussians18read_ply_gaussiansRShEs_0s_0CslQCpptksoiT_3mod
FNDA:3,_RNvXs3_NtNtCsap2RCL79A4I_14wgpu_3dgs_core13source_format3plyINtB5_15PlyGaussianIterINtNtNtNtCsmHtFwzCQ9E_4core4iter8adapters3map3MapINtNtNtB1s_3ops5range5RangejENCINvMs4_B5_NtB5_12PlyGaussians18read_ply_gaussiansINtNtNtNtCs9iOHoBythrW_3std2io8buffered9bufreader9BufReaderNtNtB3x_2fs4FileEE0EIB1k_B26_NCB2B_s_0EENtNtNtB1q_6traits8iterator8Iterator4nextCslQCpptksoiT_3mod
FNDA:13,_RNvXs3_NtNtCsap2RCL79A4I_14wgpu_3dgs_core13source_format3plyINtB5_15PlyGaussianIterINtNtNtNtCsmHtFwzCQ9E_4core4iter8adapters3map3MapINtNtNtB1s_3ops5range5RangejENCINvMs4_B5_NtB5_12PlyGaussians18read_ply_gaussiansRShE0EIB1k_B26_NCB2B_s_0EENtNtNtB1q_6traits8iterator8Iterator4nextCslQCpptksoiT_3mod
FNDA:433,_RNvMNtNtCsap2RCL79A4I_14wgpu_3dgs_core13source_format3plyNtB2_14PlyGaussianPod9set_value
FNDA:12,_RNvMs2_NtNtCsap2RCL79A4I_14wgpu_3dgs_core13source_format3plyNtB5_9PlyHeader5count
FNDA:8,_RNvMs4_NtNtCsap2RCL79A4I_14wgpu_3dgs_core13source_format3plyNtB5_12PlyGaussians3len
FNDA:7,_RNvMs4_NtNtCsap2RCL79A4I_14wgpu_3dgs_core13source_format3plyNtB5_12PlyGaussians4iter
FNDA:1,_RNvMs4_NtNtCsap2RCL79A4I_14wgpu_3dgs_core13source_format3plyNtB5_12PlyGaussians8is_empty
FNDA:1,_RNvMs4_NtNtCsap2RCL79A4I_14wgpu_3dgs_core13source_format3plyNtB5_12PlyGaussians8iter_mut
FNDA:1,_RNvNtNtCsap2RCL79A4I_14wgpu_3dgs_core13source_format3ply30vertex_element_not_found_error
FNDA:1,_RNvXs0_NtNtCsap2RCL79A4I_14wgpu_3dgs_core13source_format3plyNtB5_14PlyGaussianPodINtNtCsmHtFwzCQ9E_4core7convert4FromNtNtB9_8gaussian8GaussianE4from
FNDA:1,_RNvXs1_NtNtCsap2RCL79A4I_14wgpu_3dgs_core13source_format3plyNtB5_14PlyGaussianPodINtNtCsmHtFwzCQ9E_4core7convert4FromRNtNtB9_8gaussian8GaussianE4from
FNDA:1,_RNvXs5_NtNtCsap2RCL79A4I_14wgpu_3dgs_core13source_format3plyNtB5_12PlyGaussiansNtNtB9_8gaussian12IterGaussian13iter_gaussian
FNDA:1,_RNvXs6_NtNtCsap2RCL79A4I_14wgpu_3dgs_core13source_format3plyNtB5_12PlyGaussiansINtNtCsmHtFwzCQ9E_4core7convert4FromINtNtCsj4FhK7DZU1O_5alloc3vec3VecNtB5_14PlyGaussianPodEE4from
FNDA:248,_RNvXs_NtNtCsap2RCL79A4I_14wgpu_3dgs_core13source_format3plyNtB4_14PlyGaussianPodNtNtNtCs9AUWEBnCqWx_6ply_rs3ply8property14PropertyAccess12set_property
FNDA:4,_RNvXs_NtNtCsap2RCL79A4I_14wgpu_3dgs_core13source_format3plyNtB4_14PlyGaussianPodNtNtNtCs9AUWEBnCqWx_6ply_rs3ply8property14PropertyAccess3new
FNDA:0,_RINvMs4_NtNtCs3bDQ3tnbls4_14wgpu_3dgs_core13source_format3plyNtB6_12PlyGaussians13read_ply_filepEBa_
FNDA:0,_RINvMs4_NtNtCs3bDQ3tnbls4_14wgpu_3dgs_core13source_format3plyNtB6_12PlyGaussians14write_ply_filepEBa_
FNDA:0,_RINvMs4_NtNtCs3bDQ3tnbls4_14wgpu_3dgs_core13source_format3plyNtB6_12PlyGaussians15read_ply_headerpEBa_
FNDA:0,_RINvMs4_NtNtCs3bDQ3tnbls4_14wgpu_3dgs_core13source_format3plyNtB6_12PlyGaussians18read_ply_gaussianspEBa_
FNDA:0,_RINvMs4_NtNtCs3bDQ3tnbls4_14wgpu_3dgs_core13source_format3plyNtB6_12PlyGaussians8read_plypEBa_
FNDA:0,_RINvMs4_NtNtCs3bDQ3tnbls4_14wgpu_3dgs_core13source_format3plyNtB6_12PlyGaussians9write_plypEBa_
FNDA:0,_RINvXs7_NtNtCs3bDQ3tnbls4_14wgpu_3dgs_core13source_format3plyNtB6_12PlyGaussiansINtNtNtNtCsmHtFwzCQ9E_4core4iter6traits7collect12FromIteratorNtB6_14PlyGaussianPodE9from_iterpEBa_
FNDA:0,_RNCINvMs4_NtNtCs3bDQ3tnbls4_14wgpu_3dgs_core13source_format3plyNtB8_12PlyGaussians15read_ply_headerpE0Bc_
FNDA:0,_RNCINvMs4_NtNtCs3bDQ3tnbls4_14wgpu_3dgs_core13source_format3plyNtB8_12PlyGaussians18read_ply_gaussianspE0Bc_
FNDA:0,_RNCINvMs4_NtNtCs3bDQ3tnbls4_14wgpu_3dgs_core13source_format3plyNtB8_12PlyGaussians18read_ply_gaussianspEs_0Bc_
FNDA:0,_RNCINvMs4_NtNtCs3bDQ3tnbls4_14wgpu_3dgs_core13source_format3plyNtB8_12PlyGaussians9write_plypE0Bc_
FNDA:0,_RNCNCINvMs4_NtNtCs3bDQ3tnbls4_14wgpu_3dgs_core13source_format3plyNtBa_12PlyGaussians18read_ply_gaussianspEs_00Be_
FNDA:0,_RNCNCINvMs4_NtNtCs3bDQ3tnbls4_14wgpu_3dgs_core13source_format3plyNtBa_12PlyGaussians18read_ply_gaussianspEs_0s_0Be_
FNDA:0,_RNvMNtNtCs3bDQ3tnbls4_14wgpu_3dgs_core13source_format3plyNtB2_14PlyGaussianPod9set_value
FNDA:0,_RNvMs2_NtNtCs3bDQ3tnbls4_14wgpu_3dgs_core13source_format3plyNtB5_9PlyHeader5count
FNDA:0,_RNvMs4_NtNtCs3bDQ3tnbls4_14wgpu_3dgs_core13source_format3plyNtB5_12PlyGaussians3len
FNDA:0,_RNvMs4_NtNtCs3bDQ3tnbls4_14wgpu_3dgs_core13source_format3plyNtB5_12PlyGaussians4iter
FNDA:0,_RNvMs4_NtNtCs3bDQ3tnbls4_14wgpu_3dgs_core13source_format3plyNtB5_12PlyGaussians8is_empty
FNDA:0,_RNvMs4_NtNtCs3bDQ3tnbls4_14wgpu_3dgs_core13source_format3plyNtB5_12PlyGaussians8iter_mut
FNDA:0,_RNvNtNtCs3bDQ3tnbls4_14wgpu_3dgs_core13source_format3ply30vertex_element_not_found_error
FNDA:0,_RNvXININtNtCs3bDQ3tnbls4_14wgpu_3dgs_core13source_format3plys3_0ppEINtB5_15PlyGaussianIterppENtNtNtNtCsmHtFwzCQ9E_4core4iter6traits8iterator8Iterator4nextB9_
FNDA:0,_RNvXs0_NtNtCs3bDQ3tnbls4_14wgpu_3dgs_core13source_format3plyNtB5_14PlyGaussianPodINtNtCsmHtFwzCQ9E_4core7convert4FromNtNtB9_8gaussian8GaussianE4from
FNDA:0,_RNvXs1_NtNtCs3bDQ3tnbls4_14wgpu_3dgs_core13source_format3plyNtB5_14PlyGaussianPodINtNtCsmHtFwzCQ9E_4core7convert4FromRNtNtB9_8gaussian8GaussianE4from
FNDA:0,_RNvXs5_NtNtCs3bDQ3tnbls4_14wgpu_3dgs_core13source_format3plyNtB5_12PlyGaussiansNtNtB9_8gaussian12IterGaussian13iter_gaussian
FNDA:0,_RNvXs6_NtNtCs3bDQ3tnbls4_14wgpu_3dgs_core13source_format3plyNtB5_12PlyGaussiansINtNtCsmHtFwzCQ9E_4core7convert4FromINtNtCsj4FhK7DZU1O_5alloc3vec3VecNtB5_14PlyGaussianPodEE4from
FNDA:0,_RNvXs_NtNtCs3bDQ3tnbls4_14wgpu_3dgs_core13source_format3plyNtB4_14PlyGaussianPodNtNtNtCs9AUWEBnCqWx_6ply_rs3ply8property14PropertyAccess12set_property
FNDA:0,_RNvXs_NtNtCs3bDQ3tnbls4_14wgpu_3dgs_core13source_format3plyNtB4_14PlyGaussianPodNtNtNtCs9AUWEBnCqWx_6ply_rs3ply8property14PropertyAccess3new
FNDA:0,_RINvMs4_NtNtCsap2RCL79A4I_14wgpu_3dgs_core13source_format3plyNtB6_12PlyGaussians13read_ply_fileRNtNtCsj4FhK7DZU1O_5alloc6string6StringECskiFSrz17jIX_8read_ply
FNDA:0,_RINvMs4_NtNtCsap2RCL79A4I_14wgpu_3dgs_core13source_format3plyNtB6_12PlyGaussians15read_ply_headerINtNtNtNtCs9iOHoBythrW_3std2io8buffered9bufreader9BufReaderNtNtB1G_2fs4FileEECskiFSrz17jIX_8read_ply
FNDA:0,_RINvMs4_NtNtCsap2RCL79A4I_14wgpu_3dgs_core13source_format3plyNtB6_12PlyGaussians18read_ply_gaussiansINtNtNtNtCs9iOHoBythrW_3std2io8buffered9bufreader9BufReaderNtNtB1J_2fs4FileEECskiFSrz17jIX_8read_ply
FNDA:0,_RINvMs4_NtNtCsap2RCL79A4I_14wgpu_3dgs_core13source_format3plyNtB6_12PlyGaussians8read_plyINtNtNtNtCs9iOHoBythrW_3std2io8buffered9bufreader9BufReaderNtNtB1y_2fs4FileEECskiFSrz17jIX_8read_ply
FNDA:0,_RNCINvMs4_NtNtCsap2RCL79A4I_14wgpu_3dgs_core13source_format3plyNtB8_12PlyGaussians15read_ply_headerINtNtNtNtCs9iOHoBythrW_3std2io8buffered9bufreader9BufReaderNtNtB1I_2fs4FileEE0CskiFSrz17jIX_8read_ply
FNDA:0,_RNCINvMs4_NtNtCsap2RCL79A4I_14wgpu_3dgs_core13source_format3plyNtB8_12PlyGaussians18read_ply_gaussiansINtNtNtNtCs9iOHoBythrW_3std2io8buffered9bufreader9BufReaderNtNtB1L_2fs4FileEE0CskiFSrz17jIX_8read_ply
FNDA:0,_RNCINvMs4_NtNtCsap2RCL79A4I_14wgpu_3dgs_core13source_format3plyNtB8_12PlyGaussians18read_ply_gaussiansINtNtNtNtCs9iOHoBythrW_3std2io8buffered9bufreader9BufReaderNtNtB1L_2fs4FileEEs_0CskiFSrz17jIX_8read_ply
FNDA:0,_RNCNCINvMs4_NtNtCsap2RCL79A4I_14wgpu_3dgs_core13source_format3plyNtBa_12PlyGaussians18read_ply_gaussiansINtNtNtNtCs9iOHoBythrW_3std2io8buffered9bufreader9BufReaderNtNtB1N_2fs4FileEEs_00CskiFSrz17jIX_8read_ply
FNDA:0,_RNCNCINvMs4_NtNtCsap2RCL79A4I_14wgpu_3dgs_core13source_format3plyNtBa_12PlyGaussians18read_ply_gaussiansINtNtNtNtCs9iOHoBythrW_3std2io8buffered9bufreader9BufReaderNtNtB1N_2fs4FileEEs_0s_0CskiFSrz17jIX_8read_ply
FNDA:0,_RNvXs3_NtNtCsap2RCL79A4I_14wgpu_3dgs_core13source_format3plyINtB5_15PlyGaussianIterINtNtNtNtCsmHtFwzCQ9E_4core4iter8adapters3map3MapINtNtNtB1s_3ops5range5RangejENCINvMs4_B5_NtB5_12PlyGaussians18read_ply_gaussiansINtNtNtNtCs9iOHoBythrW_3std2io8buffered9bufreader9BufReaderNtNtB3x_2fs4FileEE0EIB1k_B26_NCB2B_s_0EENtNtNtB1q_6traits8iterator8Iterator4nextCskiFSrz17jIX_8read_ply
FNDA:0,_RINvMs4_NtNtCsap2RCL79A4I_14wgpu_3dgs_core13source_format3plyNtB6_12PlyGaussians14write_ply_fileRNtNtCsj4FhK7DZU1O_5alloc6string6StringECs4TRziVmNUab_9write_ply
FNDA:0,_RINvMs4_NtNtCsap2RCL79A4I_14wgpu_3dgs_core13source_format3plyNtB6_12PlyGaussians9write_plyINtNtNtNtCs9iOHoBythrW_3std2io8buffered9bufwriter9BufWriterNtNtB1z_2fs4FileEECs4TRziVmNUab_9write_ply
FNDA:0,_RNCINvMs4_NtNtCsap2RCL79A4I_14wgpu_3dgs_core13source_format3plyNtB8_12PlyGaussians9write_plyINtNtNtNtCs9iOHoBythrW_3std2io8buffered9bufwriter9BufWriterNtNtB1B_2fs4FileEE0Cs4TRziVmNUab_9write_ply
FNF:27
FNH:27
DA:25,433
DA:32,433
DA:33,433
DA:34,426
DA:35,419
DA:36,412
DA:37,405
DA:38,398
DA:39,391
DA:40,384
DA:41,377
DA:42,370
DA:43,363
DA:44,356
DA:45,349
DA:46,342
DA:47,335
DA:48,328
DA:49,321
DA:50,314
DA:51,307
DA:52,300
DA:53,293
DA:54,286
DA:55,279
DA:56,272
DA:57,265
DA:58,258
DA:59,251
DA:60,244
DA:61,237
DA:62,230
DA:63,223
DA:64,216
DA:65,209
DA:66,202
DA:67,195
DA:68,188
DA:69,181
DA:70,174
DA:71,167
DA:72,160
DA:73,153
DA:74,146
DA:75,139
DA:76,132
DA:77,125
DA:78,118
DA:79,111
DA:80,104
DA:81,97
DA:82,90
DA:83,83
DA:84,76
DA:85,69
DA:86,62
DA:87,55
DA:88,48
DA:89,41
DA:90,34
DA:91,27
DA:92,20
DA:93,13
DA:94,6
DA:96,0
DA:99,433
DA:103,4
DA:104,4
DA:105,4
DA:107,248
DA:108,248
DA:109,0
DA:110,0
DA:113,248
DA:114,248
DA:118,1
DA:119,1
DA:120,1
DA:124,1
DA:125,1
DA:126,1
DA:149,12
DA:150,12
DA:151,4
DA:152,8
DA:154,12
DA:178,16
DA:179,16
DA:180,6
DA:181,10
DA:183,16
DA:186,1
DA:187,1
DA:188,1
DA:191,1
DA:265,8
DA:266,8
DA:267,8
DA:270,1
DA:271,1
DA:272,1
DA:275,7
DA:276,7
DA:277,7
DA:280,1
DA:281,1
DA:282,1
DA:285,1
DA:286,1
DA:287,1
DA:288,1
DA:289,1
DA:297,7
DA:298,7
DA:300,6
DA:301,6
DA:302,6
DA:303,6
DA:305,11
DA:306,11
DA:309,5
DA:310,7
DA:315,7
DA:316,7
DA:317,7
DA:318,7
DA:319,7
DA:320,7
DA:321,7
DA:328,6
DA:329,6
DA:330,6
DA:331,6
DA:332,192
DA:333,192
DA:334,189
DA:335,189
DA:336,192
DA:337,3
DA:339,2
DA:340,4
DA:343,6
DA:344,7
DA:349,6
DA:350,6
DA:351,6
DA:352,6
DA:353,6
DA:354,6
DA:356,6
DA:357,4
DA:358,4
DA:359,4
DA:360,4
DA:361,4
DA:362,4
DA:363,4
DA:365,7
DA:366,7
DA:367,7
DA:369,0
DA:370,7
DA:372,3
DA:373,3
DA:375,3
DA:376,3
DA:377,3
DA:378,3
DA:379,3
DA:380,3
DA:381,185
DA:382,3
DA:384,185
DA:385,185
DA:386,185
DA:387,185
DA:389,1
DA:390,1
DA:391,1
DA:392,1
DA:393,186
DA:395,2
DA:398,2
DA:401,2
DA:404,7
DA:407,6
DA:410,1
DA:411,1
DA:412,1
DA:413,1
DA:414,1
DA:422,2
DA:428,2
DA:429,2
DA:430,2
DA:431,126
DA:432,124
DA:434,2
DA:436,2
DA:437,2
DA:438,4
DA:440,2
DA:441,2
DA:445,1
DA:446,1
DA:447,1
DA:451,1
DA:452,1
DA:453,1
DA:457,1
DA:458,1
DA:459,1
BRF:0
BRH:0
LF:219
LH:215
end_of_record
SF:C:\Users\s2010\Me\Codes\Rust\wgpu-3dgs-core\src\source_format\spz.rs
FN:484,_RINvMs2_NtNtCsap2RCL79A4I_14wgpu_3dgs_core13source_format3spzNtB6_21SpzGaussiansPositions8write_toINtNtNtCs260Gs8NS7W8_6flate22gz5write9GzEncoderQINtNtCsj4FhK7DZU1O_5alloc3vec3VechEEECslQCpptksoiT_3mod
FN:484,_RINvMs2_NtNtCsap2RCL79A4I_14wgpu_3dgs_core13source_format3spzNtB6_21SpzGaussiansPositions8write_toINtNtNtCs260Gs8NS7W8_6flate22gz5write9GzEncoderQINtNtNtNtCs9iOHoBythrW_3std2io8buffered9bufwriter9BufWriterNtNtB2t_2fs4FileEEECslQCpptksoiT_3mod
FN:467,_RINvMs2_NtNtCsap2RCL79A4I_14wgpu_3dgs_core13source_format3spzNtB6_21SpzGaussiansPositions9read_fromINtNtNtCs260Gs8NS7W8_6flate22gz4read9GzDecoderQINtNtNtNtCs9iOHoBythrW_3std2io8buffered9bufreader9BufReaderNtNtB2t_2fs4FileEEECslQCpptksoiT_3mod
FN:467,_RINvMs2_NtNtCsap2RCL79A4I_14wgpu_3dgs_core13source_format3spzNtB6_21SpzGaussiansPositions9read_fromINtNtNtCs260Gs8NS7W8_6flate22gz4read9GzDecoderQRShEECslQCpptksoiT_3mod
FN:515,_RINvMs3_NtNtCsap2RCL79A4I_14wgpu_3dgs_core13source_format3spzNtB6_21SpzGaussiansRotations8write_toINtNtNtCs260Gs8NS7W8_6flate22gz5write9GzEncoderQINtNtCsj4FhK7DZU1O_5alloc3vec3VechEEECslQCpptksoiT_3mod
FN:515,_RINvMs3_NtNtCsap2RCL79A4I_14wgpu_3dgs_core13source_format3spzNtB6_21SpzGaussiansRotations8write_toINtNtNtCs260Gs8NS7W8_6flate22gz5write9GzEncoderQINtNtNtNtCs9iOHoBythrW_3std2io8buffered9bufwriter9BufWriterNtNtB2t_2fs4FileEEECslQCpptksoiT_3mod
FN:498,_RINvMs3_NtNtCsap2RCL79A4I_14wgpu_3dgs_core13source_format3spzNtB6_21SpzGaussiansRotations9read_fromINtNtNtCs260Gs8NS7W8_6flate22gz4read9GzDecoderQINtNtNtNtCs9iOHoBythrW_3std2io8buffered9bufreader9BufReaderNtNtB2t_2fs4FileEEECslQCpptksoiT_3mod
FN:498,_RINvMs3_NtNtCsap2RCL79A4I_14wgpu_3dgs_core13source_format3spzNtB6_21SpzGaussiansRotations9read_fromINtNtNtCs260Gs8NS7W8_6flate22gz4read9GzDecoderQRShEECslQCpptksoiT_3mod
FN:559,_RINvMs4_NtNtCsap2RCL79A4I_14wgpu_3dgs_core13source_format3spzNtB6_15SpzGaussiansShs8write_toINtNtNtCs260Gs8NS7W8_6flate22gz5write9GzEncoderQINtNtCsj4FhK7DZU1O_5alloc3vec3VechEEECslQCpptksoiT_3mod
FN:559,_RINvMs4_NtNtCsap2RCL79A4I_14wgpu_3dgs_core13source_format3spzNtB6_15SpzGaussiansShs8write_toINtNtNtCs260Gs8NS7W8_6flate22gz5write9GzEncoderQINtNtNtNtCs9iOHoBythrW_3std2io8buffered9bufwriter9BufWriterNtNtB2n_2fs4FileEEECslQCpptksoiT_3mod
FN:529,_RINvMs4_NtNtCsap2RCL79A4I_14wgpu_3dgs_core13source_format3spzNtB6_15SpzGaussiansShs9read_fromINtNtNtCs260Gs8NS7W8_6flate22gz4read9GzDecoderQINtNtNtNtCs9iOHoBythrW_3std2io8buffered9bufreader9BufReaderNtNtB2n_2fs4FileEEECslQCpptksoiT_3mod
FN:529,_RINvMs4_NtNtCsap2RCL79A4I_14wgpu_3dgs_core13source_format3spzNtB6_15SpzGaussiansShs9read_fromINtNtNtCs260Gs8NS7W8_6flate22gz4read9GzDecoderQRShEECslQCpptksoiT_3mod
FN:602,_RINvMs5_NtNtCsap2RCL79A4I_14wgpu_3dgs_core13source_format3spzNtB6_12SpzGaussians13read_spz_fileRNtNtNtCslQCpptksoiT_3mod6common5given8TempFileEB1C_
FN:714,_RINvMs5_NtNtCsap2RCL79A4I_14wgpu_3dgs_core13source_format3spzNtB6_12SpzGaussians14from_gaussiansRANtNtBa_8gaussian8Gaussianj2_ECslQCpptksoiT_3mod
FN:714,_RINvMs5_NtNtCsap2RCL79A4I_14wgpu_3dgs_core13source_format3spzNtB6_12SpzGaussians14from_gaussiansRSNtNtBa_8gaussian8GaussianECslQCpptksoiT_3mod
FN:674,_RINvMs5_NtNtCsap2RCL79A4I_14wgpu_3dgs_core13source_format3spzNtB6_12SpzGaussians14write_spz_fileRNtNtNtCslQCpptksoiT_3mod6common5given8TempFileEB1D_
FN:627,_RINvMs5_NtNtCsap2RCL79A4I_14wgpu_3dgs_core13source_format3spzNtB6_12SpzGaussians15read_spz_headerINtNtNtCs260Gs8NS7W8_6flate22gz4read9GzDecoderQINtNtNtNtCs9iOHoBythrW_3std2io8buffered9bufreader9BufReaderNtNtB2r_2fs4FileEEECslQCpptksoiT_3mod
FN:627,_RINvMs5_NtNtCsap2RCL79A4I_14wgpu_3dgs_core13source_format3spzNtB6_12SpzGaussians15read_spz_headerINtNtNtCs260Gs8NS7W8_6flate22gz4read9GzDecoderQRShEECslQCpptksoiT_3mod
FN:639,_RINvMs5_NtNtCsap2RCL79A4I_14wgpu_3dgs_core13source_format3spzNtB6_12SpzGaussians18read_spz_guassiansINtNtNtCs260Gs8NS7W8_6flate22gz4read9GzDecoderQINtNtNtNtCs9iOHoBythrW_3std2io8buffered9bufreader9BufReaderNtNtB2u_2fs4FileEEECslQCpptksoiT_3mod
FN:639,_RINvMs5_NtNtCsap2RCL79A4I_14wgpu_3dgs_core13source_format3spzNtB6_12SpzGaussians18read_spz_guassiansINtNtNtCs260Gs8NS7W8_6flate22gz4read9GzDecoderQRShEECslQCpptksoiT_3mod
FN:619,_RINvMs5_NtNtCsap2RCL79A4I_14wgpu_3dgs_core13source_format3spzNtB6_12SpzGaussians21read_spz_decompressedINtNtNtCs260Gs8NS7W8_6flate22gz4read9GzDecoderQINtNtNtNtCs9iOHoBythrW_3std2io8buffered9bufreader9BufReaderNtNtB2x_2fs4FileEEECslQCpptksoiT_3mod
FN:619,_RINvMs5_NtNtCsap2RCL79A4I_14wgpu_3dgs_core13source_format3spzNtB6_12SpzGaussians21read_spz_decompressedINtNtNtCs260Gs8NS7W8_6flate22gz4read9GzDecoderQRShEECslQCpptksoiT_3mod
FN:693,_RINvMs5_NtNtCsap2RCL79A4I_14wgpu_3dgs_core13source_format3spzNtB6_12SpzGaussians22write_spz_decompressedINtNtNtCs260Gs8NS7W8_6flate22gz5write9GzEncoderQINtNtCsj4FhK7DZU1O_5alloc3vec3VechEEECslQCpptksoiT_3mod
FN:693,_RINvMs5_NtNtCsap2RCL79A4I_14wgpu_3dgs_core13source_format3spzNtB6_12SpzGaussians22write_spz_decompressedINtNtNtCs260Gs8NS7W8_6flate22gz5write9GzEncoderQINtNtNtNtCs9iOHoBythrW_3std2io8buffered9bufwriter9BufWriterNtNtB2z_2fs4FileEEECslQCpptksoiT_3mod
FN:723,_RINvMs5_NtNtCsap2RCL79A4I_14wgpu_3dgs_core13source_format3spzNtB6_12SpzGaussians27from_gaussians_with_optionsINtNtNtCsmHtFwzCQ9E_4core5slice4iter4IterNtNtBa_8gaussian8GaussianEECslQCpptksoiT_3mod
FN:723,_RINvMs5_NtNtCsap2RCL79A4I_14wgpu_3dgs_core13source_format3spzNtB6_12SpzGaussians27from_gaussians_with_optionsRANtNtBa_8gaussian8Gaussianj2_ECslQCpptksoiT_3mod
FN:723,_RINvMs5_NtNtCsap2RCL79A4I_14wgpu_3dgs_core13source_format3spzNtB6_12SpzGaussians27from_gaussians_with_optionsRSNtNtBa_8gaussian8GaussianECslQCpptksoiT_3mod
FN:611,_RINvMs5_NtNtCsap2RCL79A4I_14wgpu_3dgs_core13source_format3spzNtB6_12SpzGaussians8read_spzINtNtNtNtCs9iOHoBythrW_3std2io8buffered9bufreader9BufReaderNtNtB1y_2fs4FileEECslQCpptksoiT_3mod
FN:611,_RINvMs5_NtNtCsap2RCL79A4I_14wgpu_3dgs_core13source_format3spzNtB6_12SpzGaussians8read_spzRShECslQCpptksoiT_3mod
FN:754,_RINvMs5_NtNtCsap2RCL79A4I_14wgpu_3dgs_core13source_format3spzNtB6_12SpzGaussians9from_iterINtNtCsj4FhK7DZU1O_5alloc3vec3VecNtB6_11SpzGaussianEECslQCpptksoiT_3mod
FN:683,_RINvMs5_NtNtCsap2RCL79A4I_14wgpu_3dgs_core13source_format3spzNtB6_12SpzGaussians9write_spzINtNtCsj4FhK7DZU1O_5alloc3vec3VechEECslQCpptksoiT_3mod
FN:683,_RINvMs5_NtNtCsap2RCL79A4I_14wgpu_3dgs_core13source_format3spzNtB6_12SpzGaussians9write_spzINtNtNtNtCs9iOHoBythrW_3std2io8buffered9bufwriter9BufWriterNtNtB1z_2fs4FileEECslQCpptksoiT_3mod
FN:737,_RNCINvMs5_NtNtCsap2RCL79A4I_14wgpu_3dgs_core13source_format3spzNtB8_12SpzGaussians27from_gaussians_with_optionsINtNtNtCsmHtFwzCQ9E_4core5slice4iter4IterNtNtBc_8gaussian8GaussianEE0CslQCpptksoiT_3mod
FN:737,_RNCINvMs5_NtNtCsap2RCL79A4I_14wgpu_3dgs_core13source_format3spzNtB8_12SpzGaussians27from_gaussians_with_optionsRANtNtBc_8gaussian8Gaussianj2_E0CslQCpptksoiT_3mod
FN:737,_RNCINvMs5_NtNtCsap2RCL79A4I_14wgpu_3dgs_core13source_format3spzNtB8_12SpzGaussians27from_gaussians_with_optionsRSNtNtBc_8gaussian8GaussianE0CslQCpptksoiT_3mod
FN:760,_RNCINvMs5_NtNtCsap2RCL79A4I_14wgpu_3dgs_core13source_format3spzNtB8_12SpzGaussians9from_iterINtNtCsj4FhK7DZU1O_5alloc3vec3VecNtB8_11SpzGaussianEE0CslQCpptksoiT_3mod
FN:161,_RNCINvXsH_NtNtCsap2RCL79A4I_14wgpu_3dgs_core13source_format3spzINtNtCsmHtFwzCQ9E_4core6result6ResultNtB8_15SpzGaussiansShsINtNtBc_5error24SpzGaussiansCollectErrorNtB8_13SpzGaussianShEEINtNtNtNtB14_4iter6traits7collect12FromIteratorB2A_E9from_iterINtNtNtCsj4FhK7DZU1O_5alloc3vec9into_iter8IntoIterB2A_EE0CslQCpptksoiT_3mod
FN:161,_RNCINvXsH_NtNtCsap2RCL79A4I_14wgpu_3dgs_core13source_format3spzINtNtCsmHtFwzCQ9E_4core6result6ResultNtB8_15SpzGaussiansShsINtNtBc_5error24SpzGaussiansCollectErrorNtB8_13SpzGaussianShEEINtNtNtNtB14_4iter6traits7collect12FromIteratorB2A_E9from_iterINtNtNtCsj4FhK7DZU1O_5alloc3vec9into_iter8IntoIterB2A_EEs0_0CslQCpptksoiT_3mod
FN:161,_RNCINvXsH_NtNtCsap2RCL79A4I_14wgpu_3dgs_core13source_format3spzINtNtCsmHtFwzCQ9E_4core6result6ResultNtB8_15SpzGaussiansShsINtNtBc_5error24SpzGaussiansCollectErrorNtB8_13SpzGaussianShEEINtNtNtNtB14_4iter6traits7collect12FromIteratorB2A_E9from_iterINtNtNtCsj4FhK7DZU1O_5alloc3vec9into_iter8IntoIterB2A_EEs1_0CslQCpptksoiT_3mod
FN:161,_RNCINvXsH_NtNtCsap2RCL79A4I_14wgpu_3dgs_core13source_format3spzINtNtCsmHtFwzCQ9E_4core6result6ResultNtB8_15SpzGaussiansShsINtNtBc_5error24SpzGaussiansCollectErrorNtB8_13SpzGaussianShEEINtNtNtNtB14_4iter6traits7collect12FromIteratorB2A_E9from_iterINtNtNtCsj4FhK7DZU1O_5alloc3vec9into_iter8IntoIterB2A_EEs_0CslQCpptksoiT_3mod
FN:161,_RNCINvXsb_NtNtCsap2RCL79A4I_14wgpu_3dgs_core13source_format3spzINtNtCsmHtFwzCQ9E_4core6result6ResultNtB8_21SpzGaussiansPositionsINtNtBc_5error24SpzGaussiansCollectErrorNtB8_19SpzGaussianPositionEEINtNtNtNtB14_4iter6traits7collect12FromIteratorB2G_E9from_iterINtNtNtCsj4FhK7DZU1O_5alloc3vec9into_iter8IntoIterB2G_EE0CslQCpptksoiT_3mod
FN:161,_RNCINvXsb_NtNtCsap2RCL79A4I_14wgpu_3dgs_core13source_format3spzINtNtCsmHtFwzCQ9E_4core6result6ResultNtB8_21SpzGaussiansPositionsINtNtBc_5error24SpzGaussiansCollectErrorNtB8_19SpzGaussianPositionEEINtNtNtNtB14_4iter6traits7collect12FromIteratorB2G_E9from_iterINtNtNtCsj4FhK7DZU1O_5alloc3vec9into_iter8IntoIterB2G_EEs_0CslQCpptksoiT_3mod
FN:161,_RNCINvXsr_NtNtCsap2RCL79A4I_14wgpu_3dgs_core13source_format3spzINtNtCsmHtFwzCQ9E_4core6result6ResultNtB8_21SpzGaussiansRotationsINtNtBc_5error24SpzGaussiansCollectErrorNtB8_19SpzGaussianRotationEEINtNtNtNtB14_4iter6traits7collect12FromIteratorB2G_E9from_iterINtNtNtCsj4FhK7DZU1O_5alloc3vec9into_iter8IntoIterB2G_EE0CslQCpptksoiT_3mod
FN:161,_RNCINvXsr_NtNtCsap2RCL79A4I_14wgpu_3dgs_core13source_format3spzINtNtCsmHtFwzCQ9E_4core6result6ResultNtB8_21SpzGaussiansRotationsINtNtBc_5error24SpzGaussiansCollectErrorNtB8_19SpzGaussianRotationEEINtNtNtNtB14_4iter6traits7collect12FromIteratorB2G_E9from_iterINtNtNtCsj4FhK7DZU1O_5alloc3vec9into_iter8IntoIterB2G_EEs_0CslQCpptksoiT_3mod
FN:856,_RNCNvMs5_NtNtCsap2RCL79A4I_14wgpu_3dgs_core13source_format3spzNtB7_12SpzGaussians4iter0CslQCpptksoiT_3mod
FN:869,_RNCNvXs6_NtNtCsap2RCL79A4I_14wgpu_3dgs_core13source_format3spzNtB7_12SpzGaussiansNtNtBb_8gaussian12IterGaussian13iter_gaussian0CslQCpptksoiT_3mod
FN:874,_RNvXs7_NtNtCsap2RCL79A4I_14wgpu_3dgs_core13source_format3spzNtB5_12SpzGaussiansINtNtCsmHtFwzCQ9E_4core7convert4FromRANtNtB9_8gaussian8Gaussianj2_E4fromCslQCpptksoiT_3mod
FN:874,_RNvXs7_NtNtCsap2RCL79A4I_14wgpu_3dgs_core13source_format3spzNtB5_12SpzGaussiansINtNtCsmHtFwzCQ9E_4core7convert4FromRSNtNtB9_8gaussian8GaussianE4fromCslQCpptksoiT_3mod
FN:144,_RINvXsH_NtNtCsap2RCL79A4I_14wgpu_3dgs_core13source_format3spzINtNtCsmHtFwzCQ9E_4core6result6ResultNtB6_15SpzGaussiansShsINtNtBa_5error24SpzGaussiansCollectErrorNtB6_13SpzGaussianShEEINtNtNtNtB12_4iter6traits7collect12FromIteratorB2y_E9from_iterINtNtNtCsj4FhK7DZU1O_5alloc3vec9into_iter8IntoIterB2y_EECslQCpptksoiT_3mod
FN:144,_RINvXsb_NtNtCsap2RCL79A4I_14wgpu_3dgs_core13source_format3spzINtNtCsmHtFwzCQ9E_4core6result6ResultNtB6_21SpzGaussiansPositionsINtNtBa_5error24SpzGaussiansCollectErrorNtB6_19SpzGaussianPositionEEINtNtNtNtB12_4iter6traits7collect12FromIteratorB2E_E9from_iterINtNtNtCsj4FhK7DZU1O_5alloc3vec9into_iter8IntoIterB2E_EECslQCpptksoiT_3mod
FN:144,_RINvXsr_NtNtCsap2RCL79A4I_14wgpu_3dgs_core13source_format3spzINtNtCsmHtFwzCQ9E_4core6result6ResultNtB6_21SpzGaussiansRotationsINtNtBa_5error24SpzGaussiansCollectErrorNtB6_19SpzGaussianRotationEEINtNtNtNtB12_4iter6traits7collect12FromIteratorB2E_E9from_iterINtNtNtCsj4FhK7DZU1O_5alloc3vec9into_iter8IntoIterB2E_EECslQCpptksoiT_3mod
FN:220,_RNvMNtNtCsap2RCL79A4I_14wgpu_3dgs_core13source_format3spzNtB2_13SpzGaussianSh4iter
FN:230,_RNvMNtNtCsap2RCL79A4I_14wgpu_3dgs_core13source_format3spzNtB2_13SpzGaussianSh8iter_mut
FN:293,_RNvMs0_NtNtCsap2RCL79A4I_14wgpu_3dgs_core13source_format3spzNtB5_16SpzGaussianShRef4iter
FN:424,_RNvMs1_NtNtCsap2RCL79A4I_14wgpu_3dgs_core13source_format3spzNtB5_18SpzGaussiansHeader10num_points
FN:356,_RNvMs1_NtNtCsap2RCL79A4I_14wgpu_3dgs_core13source_format3spzNtB5_18SpzGaussiansHeader12try_from_pod
FN:455,_RNvMs1_NtNtCsap2RCL79A4I_14wgpu_3dgs_core13source_format3spzNtB5_18SpzGaussiansHeader12uses_float16
FN:450,_RNvMs1_NtNtCsap2RCL79A4I_14wgpu_3dgs_core13source_format3spzNtB5_18SpzGaussiansHeader14is_antialiased
FN:419,_RNvMs1_NtNtCsap2RCL79A4I_14wgpu_3dgs_core13source_format3spzNtB5_18SpzGaussiansHeader14set_num_points
FN:445,_RNvMs1_NtNtCsap2RCL79A4I_14wgpu_3dgs_core13source_format3spzNtB5_18SpzGaussiansHeader15fractional_bits
FN:434,_RNvMs1_NtNtCsap2RCL79A4I_14wgpu_3dgs_core13source_format3spzNtB5_18SpzGaussiansHeader19sh_num_coefficients
FN:460,_RNvMs1_NtNtCsap2RCL79A4I_14wgpu_3dgs_core13source_format3spzNtB5_18SpzGaussiansHeader24uses_quat_smallest_three
FN:337,_RNvMs1_NtNtCsap2RCL79A4I_14wgpu_3dgs_core13source_format3spzNtB5_18SpzGaussiansHeader3new
FN:407,_RNvMs1_NtNtCsap2RCL79A4I_14wgpu_3dgs_core13source_format3spzNtB5_18SpzGaussiansHeader6as_pod
FN:394,_RNvMs1_NtNtCsap2RCL79A4I_14wgpu_3dgs_core13source_format3spzNtB5_18SpzGaussiansHeader7default
FN:412,_RNvMs1_NtNtCsap2RCL79A4I_14wgpu_3dgs_core13source_format3spzNtB5_18SpzGaussiansHeader7version
FN:429,_RNvMs1_NtNtCsap2RCL79A4I_14wgpu_3dgs_core13source_format3spzNtB5_18SpzGaussiansHeader9sh_degree
FN:592,_RNvMs5_NtNtCsap2RCL79A4I_14wgpu_3dgs_core13source_format3spzNtB5_12SpzGaussians3len
FN:845,_RNvMs5_NtNtCsap2RCL79A4I_14wgpu_3dgs_core13source_format3spzNtB5_12SpzGaussians4iter
FN:597,_RNvMs5_NtNtCsap2RCL79A4I_14wgpu_3dgs_core13source_format3spzNtB5_12SpzGaussians8is_empty
FN:96,_RNvMsG_NtNtCsap2RCL79A4I_14wgpu_3dgs_core13source_format3spzNtB5_15SpzGaussiansShs3len
FN:119,_RNvMsG_NtNtCsap2RCL79A4I_14wgpu_3dgs_core13source_format3spzNtB5_15SpzGaussiansShs4iter
FN:114,_RNvMsG_NtNtCsap2RCL79A4I_14wgpu_3dgs_core13source_format3spzNtB5_15SpzGaussiansShs8is_empty
FN:255,_RNvMs_NtNtCsap2RCL79A4I_14wgpu_3dgs_core13source_format3spzNtB4_11SpzGaussian6as_ref
FN:96,_RNvMsa_NtNtCsap2RCL79A4I_14wgpu_3dgs_core13source_format3spzNtB5_21SpzGaussiansPositions3len
FN:119,_RNvMsa_NtNtCsap2RCL79A4I_14wgpu_3dgs_core13source_format3spzNtB5_21SpzGaussiansPositions4iter
FN:114,_RNvMsa_NtNtCsap2RCL79A4I_14wgpu_3dgs_core13source_format3spzNtB5_21SpzGaussiansPositions8is_empty
FN:96,_RNvMsq_NtNtCsap2RCL79A4I_14wgpu_3dgs_core13source_format3spzNtB5_21SpzGaussiansRotations3len
FN:119,_RNvMsq_NtNtCsap2RCL79A4I_14wgpu_3dgs_core13source_format3spzNtB5_21SpzGaussiansRotations4iter
FN:114,_RNvMsq_NtNtCsap2RCL79A4I_14wgpu_3dgs_core13source_format3spzNtB5_21SpzGaussiansRotations8is_empty
FN:868,_RNvXs6_NtNtCsap2RCL79A4I_14wgpu_3dgs_core13source_format3spzNtB5_12SpzGaussiansNtNtB9_8gaussian12IterGaussian13iter_gaussian
FN:901,_RNvXs8_NtNtCsap2RCL79A4I_14wgpu_3dgs_core13source_format3spzNtB5_36SpzGaussiansFromGaussianSliceOptionsNtNtCsmHtFwzCQ9E_4core7default7Default7default
FN:62,_RNvXs9_NtNtCsap2RCL79A4I_14wgpu_3dgs_core13source_format3spzNtB5_23SpzGaussianPositionIterNtNtNtNtCsmHtFwzCQ9E_4core4iter6traits8iterator8Iterator4next
FN:62,_RNvXsF_NtNtCsap2RCL79A4I_14wgpu_3dgs_core13source_format3spzNtB5_17SpzGaussianShIterNtNtNtNtCsmHtFwzCQ9E_4core4iter6traits8iterator8Iterator4next
FN:62,_RNvXsp_NtNtCsap2RCL79A4I_14wgpu_3dgs_core13source_format3spzNtB5_23SpzGaussianRotationIterNtNtNtNtCsmHtFwzCQ9E_4core4iter6traits8iterator8Iterator4next
FN:65,_RNCNvXs9_NtNtCsap2RCL79A4I_14wgpu_3dgs_core13source_format3spzNtB7_23SpzGaussianPositionIterNtNtNtNtCsmHtFwzCQ9E_4core4iter6traits8iterator8Iterator4next0Bb_
FN:65,_RNCNvXs9_NtNtCsap2RCL79A4I_14wgpu_3dgs_core13source_format3spzNtB7_23SpzGaussianPositionIterNtNtNtNtCsmHtFwzCQ9E_4core4iter6traits8iterator8Iterator4nexts_0Bb_
FN:65,_RNCNvXsF_NtNtCsap2RCL79A4I_14wgpu_3dgs_core13source_format3spzNtB7_17SpzGaussianShIterNtNtNtNtCsmHtFwzCQ9E_4core4iter6traits8iterator8Iterator4next0Bb_
FN:65,_RNCNvXsF_NtNtCsap2RCL79A4I_14wgpu_3dgs_core13source_format3spzNtB7_17SpzGaussianShIterNtNtNtNtCsmHtFwzCQ9E_4core4iter6traits8iterator8Iterator4nexts0_0Bb_
FN:65,_RNCNvXsF_NtNtCsap2RCL79A4I_14wgpu_3dgs_core13source_format3spzNtB7_17SpzGaussianShIterNtNtNtNtCsmHtFwzCQ9E_4core4iter6traits8iterator8Iterator4nexts_0Bb_
FN:65,_RNCNvXsp_NtNtCsap2RCL79A4I_14wgpu_3dgs_core13source_format3spzNtB7_23SpzGaussianRotationIterNtNtNtNtCsmHtFwzCQ9E_4core4iter6traits8iterator8Iterator4next0Bb_
FN:65,_RNCNvXsp_NtNtCsap2RCL79A4I_14wgpu_3dgs_core13source_format3spzNtB7_23SpzGaussianRotationIterNtNtNtNtCsmHtFwzCQ9E_4core4iter6traits8iterator8Iterator4nexts_0Bb_
FN:484,_RINvMs2_NtNtCs3bDQ3tnbls4_14wgpu_3dgs_core13source_format3spzNtB6_21SpzGaussiansPositions8write_topEBa_
FN:467,_RINvMs2_NtNtCs3bDQ3tnbls4_14wgpu_3dgs_core13source_format3spzNtB6_21SpzGaussiansPositions9read_frompEBa_
FN:515,_RINvMs3_NtNtCs3bDQ3tnbls4_14wgpu_3dgs_core13source_format3spzNtB6_21SpzGaussiansRotations8write_topEBa_
FN:498,_RINvMs3_NtNtCs3bDQ3tnbls4_14wgpu_3dgs_core13source_format3spzNtB6_21SpzGaussiansRotations9read_frompEBa_
FN:559,_RINvMs4_NtNtCs3bDQ3tnbls4_14wgpu_3dgs_core13source_format3spzNtB6_15SpzGaussiansShs8write_topEBa_
FN:529,_RINvMs4_NtNtCs3bDQ3tnbls4_14wgpu_3dgs_core13source_format3spzNtB6_15SpzGaussiansShs9read_frompEBa_
FN:602,_RINvMs5_NtNtCs3bDQ3tnbls4_14wgpu_3dgs_core13source_format3spzNtB6_12SpzGaussians13read_spz_filepEBa_
FN:714,_RINvMs5_NtNtCs3bDQ3tnbls4_14wgpu_3dgs_core13source_format3spzNtB6_12SpzGaussians14from_gaussianspEBa_
FN:674,_RINvMs5_NtNtCs3bDQ3tnbls4_14wgpu_3dgs_core13source_format3spzNtB6_12SpzGaussians14write_spz_filepEBa_
FN:627,_RINvMs5_NtNtCs3bDQ3tnbls4_14wgpu_3dgs_core13source_format3spzNtB6_12SpzGaussians15read_spz_headerpEBa_
FN:639,_RINvMs5_NtNtCs3bDQ3tnbls4_14wgpu_3dgs_core13source_format3spzNtB6_12SpzGaussians18read_spz_guassianspEBa_
FN:619,_RINvMs5_NtNtCs3bDQ3tnbls4_14wgpu_3dgs_core13source_format3spzNtB6_12SpzGaussians21read_spz_decompressedpEBa_
FN:693,_RINvMs5_NtNtCs3bDQ3tnbls4_14wgpu_3dgs_core13source_format3spzNtB6_12SpzGaussians22write_spz_decompressedpEBa_
FN:723,_RINvMs5_NtNtCs3bDQ3tnbls4_14wgpu_3dgs_core13source_format3spzNtB6_12SpzGaussians27from_gaussians_with_optionspEBa_
FN:611,_RINvMs5_NtNtCs3bDQ3tnbls4_14wgpu_3dgs_core13source_format3spzNtB6_12SpzGaussians8read_spzpEBa_
FN:754,_RINvMs5_NtNtCs3bDQ3tnbls4_14wgpu_3dgs_core13source_format3spzNtB6_12SpzGaussians9from_iterpEBa_
FN:683,_RINvMs5_NtNtCs3bDQ3tnbls4_14wgpu_3dgs_core13source_format3spzNtB6_12SpzGaussians9write_spzpEBa_
FN:144,_RINvXsH_NtNtCs3bDQ3tnbls4_14wgpu_3dgs_core13source_format3spzINtNtCsmHtFwzCQ9E_4core6result6ResultNtB6_15SpzGaussiansShsINtNtBa_5error24SpzGaussiansCollectErrorNtB6_13SpzGaussianShEEINtNtNtNtB12_4iter6traits7collect12FromIteratorB2y_E9from_iterpEBa_
FN:144,_RINvXsb_NtNtCs3bDQ3tnbls4_14wgpu_3dgs_core13source_format3spzINtNtCsmHtFwzCQ9E_4core6result6ResultNtB6_21SpzGaussiansPositionsINtNtBa_5error24SpzGaussiansCollectErrorNtB6_19SpzGaussianPositionEEINtNtNtNtB12_4iter6traits7collect12FromIteratorB2E_E9from_iterpEBa_
FN:144,_RINvXsr_NtNtCs3bDQ3tnbls4_14wgpu_3dgs_core13source_format3spzINtNtCsmHtFwzCQ9E_4core6result6ResultNtB6_21SpzGaussiansRotationsINtNtBa_5error24SpzGaussiansCollectErrorNtB6_19SpzGaussianRotationEEINtNtNtNtB12_4iter6traits7collect12FromIteratorB2E_E9from_iterpEBa_
FN:737,_RNCINvMs5_NtNtCs3bDQ3tnbls4_14wgpu_3dgs_core13source_format3spzNtB8_12SpzGaussians27from_gaussians_with_optionspE0Bc_
FN:760,_RNCINvMs5_NtNtCs3bDQ3tnbls4_14wgpu_3dgs_core13source_format3spzNtB8_12SpzGaussians9from_iterpE0Bc_
FN:161,_RNCINvXsH_NtNtCs3bDQ3tnbls4_14wgpu_3dgs_core13source_format3spzINtNtCsmHtFwzCQ9E_4core6result6ResultNtB8_15SpzGaussiansShsINtNtBc_5error24SpzGaussiansCollectErrorNtB8_13SpzGaussianShEEINtNtNtNtB14_4iter6traits7collect12FromIteratorB2A_E9from_iterpE0Bc_
FN:161,_RNCINvXsH_NtNtCs3bDQ3tnbls4_14wgpu_3dgs_core13source_format3spzINtNtCsmHtFwzCQ9E_4core6result6ResultNtB8_15SpzGaussiansShsINtNtBc_5error24SpzGaussiansCollectErrorNtB8_13SpzGaussianShEEINtNtNtNtB14_4iter6traits7collect12FromIteratorB2A_E9from_iterpEs0_0Bc_
FN:161,_RNCINvXsH_NtNtCs3bDQ3tnbls4_14wgpu_3dgs_core13source_format3spzINtNtCsmHtFwzCQ9E_4core6result6ResultNtB8_15SpzGaussiansShsINtNtBc_5error24SpzGaussiansCollectErrorNtB8_13SpzGaussianShEEINtNtNtNtB14_4iter6traits7collect12FromIteratorB2A_E9from_iterpEs1_0Bc_
FN:161,_RNCINvXsH_NtNtCs3bDQ3tnbls4_14wgpu_3dgs_core13source_format3spzINtNtCsmHtFwzCQ9E_4core6result6ResultNtB8_15SpzGaussiansShsINtNtBc_5error24SpzGaussiansCollectErrorNtB8_13SpzGaussianShEEINtNtNtNtB14_4iter6traits7collect12FromIteratorB2A_E9from_iterpEs_0Bc_
FN:161,_RNCINvXsb_NtNtCs3bDQ3tnbls4_14wgpu_3dgs_core13source_format3spzINtNtCsmHtFwzCQ9E_4core6result6ResultNtB8_21SpzGaussiansPositionsINtNtBc_5error24SpzGaussiansCollectErrorNtB8_19SpzGaussianPositionEEINtNtNtNtB14_4iter6traits7collect12FromIteratorB2G_E9from_iterpE0Bc_
FN:161,_RNCINvXsb_NtNtCs3bDQ3tnbls4_14wgpu_3dgs_core13source_format3spzINtNtCsmHtFwzCQ9E_4core6result6ResultNtB8_21SpzGaussiansPositionsINtNtBc_5error24SpzGaussiansCollectErrorNtB8_19SpzGaussianPositionEEINtNtNtNtB14_4iter6traits7collect12FromIteratorB2G_E9from_iterpEs_0Bc_
FN:161,_RNCINvXsr_NtNtCs3bDQ3tnbls4_14wgpu_3dgs_core13source_format3spzINtNtCsmHtFwzCQ9E_4core6result6ResultNtB8_21SpzGaussiansRotationsINtNtBc_5error24SpzGaussiansCollectErrorNtB8_19SpzGaussianRotationEEINtNtNtNtB14_4iter6traits7collect12FromIteratorB2G_E9from_iterpE0Bc_
FN:161,_RNCINvXsr_NtNtCs3bDQ3tnbls4_14wgpu_3dgs_core13source_format3spzINtNtCsmHtFwzCQ9E_4core6result6ResultNtB8_21SpzGaussiansRotationsINtNtBc_5error24SpzGaussiansCollectErrorNtB8_19SpzGaussianRotationEEINtNtNtNtB14_4iter6traits7collect12FromIteratorB2G_E9from_iterpEs_0Bc_
FN:856,_RNCNvMs5_NtNtCs3bDQ3tnbls4_14wgpu_3dgs_core13source_format3spzNtB7_12SpzGaussians4iter0Bb_
FN:869,_RNCNvXs6_NtNtCs3bDQ3tnbls4_14wgpu_3dgs_core13source_format3spzNtB7_12SpzGaussiansNtNtBb_8gaussian12IterGaussian13iter_gaussian0Bb_
FN:65,_RNCNvXs9_NtNtCs3bDQ3tnbls4_14wgpu_3dgs_core13source_format3spzNtB7_23SpzGaussianPositionIterNtNtNtNtCsmHtFwzCQ9E_4core4iter6traits8iterator8Iterator4next0Bb_
FN:65,_RNCNvXs9_NtNtCs3bDQ3tnbls4_14wgpu_3dgs_core13source_format3spzNtB7_23SpzGaussianPositionIterNtNtNtNtCsmHtFwzCQ9E_4core4iter6traits8iterator8Iterator4nexts_0Bb_
FN:65,_RNCNvXsF_NtNtCs3bDQ3tnbls4_14wgpu_3dgs_core13source_format3spzNtB7_17SpzGaussianShIterNtNtNtNtCsmHtFwzCQ9E_4core4iter6traits8iterator8Iterator4next0Bb_
FN:65,_RNCNvXsF_NtNtCs3bDQ3tnbls4_14wgpu_3dgs_core13source_format3spzNtB7_17SpzGaussianShIterNtNtNtNtCsmHtFwzCQ9E_4core4iter6traits8iterator8Iterator4nexts0_0Bb_
FN:65,_RNCNvXsF_NtNtCs3bDQ3tnbls4_14wgpu_3dgs_core13source_format3spzNtB7_17SpzGaussianShIterNtNtNtNtCsmHtFwzCQ9E_4core4iter6traits8iterator8Iterator4nexts_0Bb_
FN:65,_RNCNvXsp_NtNtCs3bDQ3tnbls4_14wgpu_3dgs_core13source_format3spzNtB7_23SpzGaussianRotationIterNtNtNtNtCsmHtFwzCQ9E_4core4iter6traits8iterator8Iterator4next0Bb_
FN:65,_RNCNvXsp_NtNtCs3bDQ3tnbls4_14wgpu_3dgs_core13source_format3spzNtB7_23SpzGaussianRotationIterNtNtNtNtCsmHtFwzCQ9E_4core4iter6traits8iterator8Iterator4nexts_0Bb_
FN:220,_RNvMNtNtCs3bDQ3tnbls4_14wgpu_3dgs_core13source_format3spzNtB2_13SpzGaussianSh4iter
FN:230,_RNvMNtNtCs3bDQ3tnbls4_14wgpu_3dgs_core13source_format3spzNtB2_13SpzGaussianSh8iter_mut
FN:293,_RNvMs0_NtNtCs3bDQ3tnbls4_14wgpu_3dgs_core13source_format3spzNtB5_16SpzGaussianShRef4iter
FN:424,_RNvMs1_NtNtCs3bDQ3tnbls4_14wgpu_3dgs_core13source_format3spzNtB5_18SpzGaussiansHeader10num_points
FN:356,_RNvMs1_NtNtCs3bDQ3tnbls4_14wgpu_3dgs_core13source_format3spzNtB5_18SpzGaussiansHeader12try_from_pod
FN:455,_RNvMs1_NtNtCs3bDQ3tnbls4_14wgpu_3dgs_core13source_format3spzNtB5_18SpzGaussiansHeader12uses_float16
FN:450,_RNvMs1_NtNtCs3bDQ3tnbls4_14wgpu_3dgs_core13source_format3spzNtB5_18SpzGaussiansHeader14is_antialiased
FN:419,_RNvMs1_NtNtCs3bDQ3tnbls4_14wgpu_3dgs_core13source_format3spzNtB5_18SpzGaussiansHeader14set_num_points
FN:445,_RNvMs1_NtNtCs3bDQ3tnbls4_14wgpu_3dgs_core13source_format3spzNtB5_18SpzGaussiansHeader15fractional_bits
FN:434,_RNvMs1_NtNtCs3bDQ3tnbls4_14wgpu_3dgs_core13source_format3spzNtB5_18SpzGaussiansHeader19sh_num_coefficients
FN:460,_RNvMs1_NtNtCs3bDQ3tnbls4_14wgpu_3dgs_core13source_format3spzNtB5_18SpzGaussiansHeader24uses_quat_smallest_three
FN:337,_RNvMs1_NtNtCs3bDQ3tnbls4_14wgpu_3dgs_core13source_format3spzNtB5_18SpzGaussiansHeader3new
FN:407,_RNvMs1_NtNtCs3bDQ3tnbls4_14wgpu_3dgs_core13source_format3spzNtB5_18SpzGaussiansHeader6as_pod
FN:394,_RNvMs1_NtNtCs3bDQ3tnbls4_14wgpu_3dgs_core13source_format3spzNtB5_18SpzGaussiansHeader7default
FN:412,_RNvMs1_NtNtCs3bDQ3tnbls4_14wgpu_3dgs_core13source_format3spzNtB5_18SpzGaussiansHeader7version
FN:429,_RNvMs1_NtNtCs3bDQ3tnbls4_14wgpu_3dgs_core13source_format3spzNtB5_18SpzGaussiansHeader9sh_degree
FN:592,_RNvMs5_NtNtCs3bDQ3tnbls4_14wgpu_3dgs_core13source_format3spzNtB5_12SpzGaussians3len
FN:845,_RNvMs5_NtNtCs3bDQ3tnbls4_14wgpu_3dgs_core13source_format3spzNtB5_12SpzGaussians4iter
FN:597,_RNvMs5_NtNtCs3bDQ3tnbls4_14wgpu_3dgs_core13source_format3spzNtB5_12SpzGaussians8is_empty
FN:96,_RNvMsG_NtNtCs3bDQ3tnbls4_14wgpu_3dgs_core13source_format3spzNtB5_15SpzGaussiansShs3len
FN:119,_RNvMsG_NtNtCs3bDQ3tnbls4_14wgpu_3dgs_core13source_format3spzNtB5_15SpzGaussiansShs4iter
FN:114,_RNvMsG_NtNtCs3bDQ3tnbls4_14wgpu_3dgs_core13source_format3spzNtB5_15SpzGaussiansShs8is_empty
FN:255,_RNvMs_NtNtCs3bDQ3tnbls4_14wgpu_3dgs_core13source_format3spzNtB4_11SpzGaussian6as_ref
FN:96,_RNvMsa_NtNtCs3bDQ3tnbls4_14wgpu_3dgs_core13source_format3spzNtB5_21SpzGaussiansPositions3len
FN:119,_RNvMsa_NtNtCs3bDQ3tnbls4_14wgpu_3dgs_core13source_format3spzNtB5_21SpzGaussiansPositions4iter
FN:114,_RNvMsa_NtNtCs3bDQ3tnbls4_14wgpu_3dgs_core13source_format3spzNtB5_21SpzGaussiansPositions8is_empty
FN:96,_RNvMsq_NtNtCs3bDQ3tnbls4_14wgpu_3dgs_core13source_format3spzNtB5_21SpzGaussiansRotations3len
FN:119,_RNvMsq_NtNtCs3bDQ3tnbls4_14wgpu_3dgs_core13source_format3spzNtB5_21SpzGaussiansRotations4iter
FN:114,_RNvMsq_NtNtCs3bDQ3tnbls4_14wgpu_3dgs_core13source_format3spzNtB5_21SpzGaussiansRotations8is_empty
FN:874,_RNvXININtNtCs3bDQ3tnbls4_14wgpu_3dgs_core13source_format3spzs7_0pENtB5_12SpzGaussiansINtNtCsmHtFwzCQ9E_4core7convert4FrompE4fromB9_
FN:868,_RNvXs6_NtNtCs3bDQ3tnbls4_14wgpu_3dgs_core13source_format3spzNtB5_12SpzGaussiansNtNtB9_8gaussian12IterGaussian13iter_gaussian
FN:901,_RNvXs8_NtNtCs3bDQ3tnbls4_14wgpu_3dgs_core13source_format3spzNtB5_36SpzGaussiansFromGaussianSliceOptionsNtNtCsmHtFwzCQ9E_4core7default7Default7default
FN:62,_RNvXs9_NtNtCs3bDQ3tnbls4_14wgpu_3dgs_core13source_format3spzNtB5_23SpzGaussianPositionIterNtNtNtNtCsmHtFwzCQ9E_4core4iter6traits8iterator8Iterator4next
FN:62,_RNvXsF_NtNtCs3bDQ3tnbls4_14wgpu_3dgs_core13source_format3spzNtB5_17SpzGaussianShIterNtNtNtNtCsmHtFwzCQ9E_4core4iter6traits8iterator8Iterator4next
FN:62,_RNvXsp_NtNtCs3bDQ3tnbls4_14wgpu_3dgs_core13source_format3spzNtB5_23SpzGaussianRotationIterNtNtNtNtCsmHtFwzCQ9E_4core4iter6traits8iterator8Iterator4next
FN:467,_RINvMs2_NtNtCsap2RCL79A4I_14wgpu_3dgs_core13source_format3spzNtB6_21SpzGaussiansPositions9read_fromINtNtNtCs260Gs8NS7W8_6flate22gz4read9GzDecoderQINtNtNtNtCs9iOHoBythrW_3std2io8buffered9bufreader9BufReaderNtNtB2t_2fs4FileEEECs3RzkXnBrBnu_8read_spz
FN:498,_RINvMs3_NtNtCsap2RCL79A4I_14wgpu_3dgs_core13source_format3spzNtB6_21SpzGaussiansRotations9read_fromINtNtNtCs260Gs8NS7W8_6flate22gz4read9GzDecoderQINtNtNtNtCs9iOHoBythrW_3std2io8buffered9bufreader9BufReaderNtNtB2t_2fs4FileEEECs3RzkXnBrBnu_8read_spz
FN:529,_RINvMs4_NtNtCsap2RCL79A4I_14wgpu_3dgs_core13source_format3spzNtB6_15SpzGaussiansShs9read_fromINtNtNtCs260Gs8NS7W8_6flate22gz4read9GzDecoderQINtNtNtNtCs9iOHoBythrW_3std2io8buffered9bufreader9BufReaderNtNtB2n_2fs4FileEEECs3RzkXnBrBnu_8read_spz
FN:602,_RINvMs5_NtNtCsap2RCL79A4I_14wgpu_3dgs_core13source_format3spzNtB6_12SpzGaussians13read_spz_fileRNtNtCsj4FhK7DZU1O_5alloc6string6StringECs3RzkXnBrBnu_8read_spz
FN:627,_RINvMs5_NtNtCsap2RCL79A4I_14wgpu_3dgs_core13source_format3spzNtB6_12SpzGaussians15read_spz_headerINtNtNtCs260Gs8NS7W8_6flate22gz4read9GzDecoderQINtNtNtNtCs9iOHoBythrW_3std2io8buffered9bufreader9BufReaderNtNtB2r_2fs4FileEEECs3RzkXnBrBnu_8read_spz
FN:639,_RINvMs5_NtNtCsap2RCL79A4I_14wgpu_3dgs_core13source_format3spzNtB6_12SpzGaussians18read_spz_guassiansINtNtNtCs260Gs8NS7W8_6flate22gz4read9GzDecoderQINtNtNtNtCs9iOHoBythrW_3std2io8buffered9bufreader9BufReaderNtNtB2u_2fs4FileEEECs3RzkXnBrBnu_8read_spz
FN:619,_RINvMs5_NtNtCsap2RCL79A4I_14wgpu_3dgs_core13source_format3spzNtB6_12SpzGaussians21read_spz_decompressedINtNtNtCs260Gs8NS7W8_6flate22gz4read9GzDecoderQINtNtNtNtCs9iOHoBythrW_3std2io8buffered9bufreader9BufReaderNtNtB2x_2fs4FileEEECs3RzkXnBrBnu_8read_spz
FN:611,_RINvMs5_NtNtCsap2RCL79A4I_14wgpu_3dgs_core13source_format3spzNtB6_12SpzGaussians8read_spzINtNtNtNtCs9iOHoBythrW_3std2io8buffered9bufreader9BufReaderNtNtB1y_2fs4FileEECs3RzkXnBrBnu_8read_spz
FN:856,_RNCNvMs5_NtNtCsap2RCL79A4I_14wgpu_3dgs_core13source_format3spzNtB7_12SpzGaussians4iter0Cs3RzkXnBrBnu_8read_spz
FN:869,_RNCNvXs6_NtNtCsap2RCL79A4I_14wgpu_3dgs_core13source_format3spzNtB7_12SpzGaussiansNtNtBb_8gaussian12IterGaussian13iter_gaussian0Cs3RzkXnBrBnu_8read_spz
FN:144,_RINvXsH_NtNtCsap2RCL79A4I_14wgpu_3dgs_core13source_format3spzINtNtCsmHtFwzCQ9E_4core6result6ResultNtB6_15SpzGaussiansShsINtNtBa_5error24SpzGaussiansCollectErrorNtB6_13SpzGaussianShEEINtNtNtNtB12_4iter6traits7collect12FromIteratorB2y_E9from_iterINtNtNtCsj4FhK7DZU1O_5alloc3vec9into_iter8IntoIterB2y_EECs3pwSHCqnYTp_9write_spz
FN:144,_RINvXsb_NtNtCsap2RCL79A4I_14wgpu_3dgs_core13source_format3spzINtNtCsmHtFwzCQ9E_4core6result6ResultNtB6_21SpzGaussiansPositionsINtNtBa_5error24SpzGaussiansCollectErrorNtB6_19SpzGaussianPositionEEINtNtNtNtB12_4iter6traits7collect12FromIteratorB2E_E9from_iterINtNtNtCsj4FhK7DZU1O_5alloc3vec9into_iter8IntoIterB2E_EECs3pwSHCqnYTp_9write_spz
FN:144,_RINvXsr_NtNtCsap2RCL79A4I_14wgpu_3dgs_core13source_format3spzINtNtCsmHtFwzCQ9E_4core6result6ResultNtB6_21SpzGaussiansRotationsINtNtBa_5error24SpzGaussiansCollectErrorNtB6_19SpzGaussianRotationEEINtNtNtNtB12_4iter6traits7collect12FromIteratorB2E_E9from_iterINtNtNtCsj4FhK7DZU1O_5alloc3vec9into_iter8IntoIterB2E_EECs3pwSHCqnYTp_9write_spz
FN:484,_RINvMs2_NtNtCsap2RCL79A4I_14wgpu_3dgs_core13source_format3spzNtB6_21SpzGaussiansPositions8write_toINtNtNtCs260Gs8NS7W8_6flate22gz5write9GzEncoderQINtNtNtNtCs9iOHoBythrW_3std2io8buffered9bufwriter9BufWriterNtNtB2t_2fs4FileEEECs3pwSHCqnYTp_9write_spz
FN:515,_RINvMs3_NtNtCsap2RCL79A4I_14wgpu_3dgs_core13source_format3spzNtB6_21SpzGaussiansRotations8write_toINtNtNtCs260Gs8NS7W8_6flate22gz5write9GzEncoderQINtNtNtNtCs9iOHoBythrW_3std2io8buffered9bufwriter9BufWriterNtNtB2t_2fs4FileEEECs3pwSHCqnYTp_9write_spz
FN:559,_RINvMs4_NtNtCsap2RCL79A4I_14wgpu_3dgs_core13source_format3spzNtB6_15SpzGaussiansShs8write_toINtNtNtCs260Gs8NS7W8_6flate22gz5write9GzEncoderQINtNtNtNtCs9iOHoBythrW_3std2io8buffered9bufwriter9BufWriterNtNtB2n_2fs4FileEEECs3pwSHCqnYTp_9write_spz
FN:674,_RINvMs5_NtNtCsap2RCL79A4I_14wgpu_3dgs_core13source_format3spzNtB6_12SpzGaussians14write_spz_fileRNtNtCsj4FhK7DZU1O_5alloc6string6StringECs3pwSHCqnYTp_9write_spz
FN:693,_RINvMs5_NtNtCsap2RCL79A4I_14wgpu_3dgs_core13source_format3spzNtB6_12SpzGaussians22write_spz_decompressedINtNtNtCs260Gs8NS7W8_6flate22gz5write9GzEncoderQINtNtNtNtCs9iOHoBythrW_3std2io8buffered9bufwriter9BufWriterNtNtB2z_2fs4FileEEECs3pwSHCqnYTp_9write_spz
FN:723,_RINvMs5_NtNtCsap2RCL79A4I_14wgpu_3dgs_core13source_format3spzNtB6_12SpzGaussians27from_gaussians_with_optionsRSNtNtBa_8gaussian8GaussianECs3pwSHCqnYTp_9write_spz
FN:754,_RINvMs5_NtNtCsap2RCL79A4I_14wgpu_3dgs_core13source_format3spzNtB6_12SpzGaussians9from_iterINtNtCsj4FhK7DZU1O_5alloc3vec3VecNtB6_11SpzGaussianEECs3pwSHCqnYTp_9write_spz
FN:683,_RINvMs5_NtNtCsap2RCL79A4I_14wgpu_3dgs_core13source_format3spzNtB6_12SpzGaussians9write_spzINtNtNtNtCs9iOHoBythrW_3std2io8buffered9bufwriter9BufWriterNtNtB1z_2fs4FileEECs3pwSHCqnYTp_9write_spz
FN:737,_RNCINvMs5_NtNtCsap2RCL79A4I_14wgpu_3dgs_core13source_format3spzNtB8_12SpzGaussians27from_gaussians_with_optionsRSNtNtBc_8gaussian8GaussianE0Cs3pwSHCqnYTp_9write_spz
FN:760,_RNCINvMs5_NtNtCsap2RCL79A4I_14wgpu_3dgs_core13source_format3spzNtB8_12SpzGaussians9from_iterINtNtCsj4FhK7DZU1O_5alloc3vec3VecNtB8_11SpzGaussianEE0Cs3pwSHCqnYTp_9write_spz
FN:161,_RNCINvXsH_NtNtCsap2RCL79A4I_14wgpu_3dgs_core13source_format3spzINtNtCsmHtFwzCQ9E_4core6result6ResultNtB8_15SpzGaussiansShsINtNtBc_5error24SpzGaussiansCollectErrorNtB8_13SpzGaussianShEEINtNtNtNtB14_4iter6traits7collect12FromIteratorB2A_E9from_iterINtNtNtCsj4FhK7DZU1O_5alloc3vec9into_iter8IntoIterB2A_EE0Cs3pwSHCqnYTp_9write_spz
FN:161,_RNCINvXsH_NtNtCsap2RCL79A4I_14wgpu_3dgs_core13source_format3spzINtNtCsmHtFwzCQ9E_4core6result6ResultNtB8_15SpzGaussiansShsINtNtBc_5error24SpzGaussiansCollectErrorNtB8_13SpzGaussianShEEINtNtNtNtB14_4iter6traits7collect12FromIteratorB2A_E9from_iterINtNtNtCsj4FhK7DZU1O_5alloc3vec9into_iter8IntoIterB2A_EEs0_0Cs3pwSHCqnYTp_9write_spz
FN:161,_RNCINvXsH_NtNtCsap2RCL79A4I_14wgpu_3dgs_core13source_format3spzINtNtCsmHtFwzCQ9E_4core6result6ResultNtB8_15SpzGaussiansShsINtNtBc_5error24SpzGaussiansCollectErrorNtB8_13SpzGaussianShEEINtNtNtNtB14_4iter6traits7collect12FromIteratorB2A_E9from_iterINtNtNtCsj4FhK7DZU1O_5alloc3vec9into_iter8IntoIterB2A_EEs1_0Cs3pwSHCqnYTp_9write_spz
FN:161,_RNCINvXsH_NtNtCsap2RCL79A4I_14wgpu_3dgs_core13source_format3spzINtNtCsmHtFwzCQ9E_4core6result6ResultNtB8_15SpzGaussiansShsINtNtBc_5error24SpzGaussiansCollectErrorNtB8_13SpzGaussianShEEINtNtNtNtB14_4iter6traits7collect12FromIteratorB2A_E9from_iterINtNtNtCsj4FhK7DZU1O_5alloc3vec9into_iter8IntoIterB2A_EEs_0Cs3pwSHCqnYTp_9write_spz
FN:161,_RNCINvXsb_NtNtCsap2RCL79A4I_14wgpu_3dgs_core13source_format3spzINtNtCsmHtFwzCQ9E_4core6result6ResultNtB8_21SpzGaussiansPositionsINtNtBc_5error24SpzGaussiansCollectErrorNtB8_19SpzGaussianPositionEEINtNtNtNtB14_4iter6traits7collect12FromIteratorB2G_E9from_iterINtNtNtCsj4FhK7DZU1O_5alloc3vec9into_iter8IntoIterB2G_EE0Cs3pwSHCqnYTp_9write_spz
FN:161,_RNCINvXsb_NtNtCsap2RCL79A4I_14wgpu_3dgs_core13source_format3spzINtNtCsmHtFwzCQ9E_4core6result6ResultNtB8_21SpzGaussiansPositionsINtNtBc_5error24SpzGaussiansCollectErrorNtB8_19SpzGaussianPositionEEINtNtNtNtB14_4iter6traits7collect12FromIteratorB2G_E9from_iterINtNtNtCsj4FhK7DZU1O_5alloc3vec9into_iter8IntoIterB2G_EEs_0Cs3pwSHCqnYTp_9write_spz
FN:161,_RNCINvXsr_NtNtCsap2RCL79A4I_14wgpu_3dgs_core13source_format3spzINtNtCsmHtFwzCQ9E_4core6result6ResultNtB8_21SpzGaussiansRotationsINtNtBc_5error24SpzGaussiansCollectErrorNtB8_19SpzGaussianRotationEEINtNtNtNtB14_4iter6traits7collect12FromIteratorB2G_E9from_iterINtNtNtCsj4FhK7DZU1O_5alloc3vec9into_iter8IntoIterB2G_EE0Cs3pwSHCqnYTp_9write_spz
FN:161,_RNCINvXsr_NtNtCsap2RCL79A4I_14wgpu_3dgs_core13source_format3spzINtNtCsmHtFwzCQ9E_4core6result6ResultNtB8_21SpzGaussiansRotationsINtNtBc_5error24SpzGaussiansCollectErrorNtB8_19SpzGaussianRotationEEINtNtNtNtB14_4iter6traits7collect12FromIteratorB2G_E9from_iterINtNtNtCsj4FhK7DZU1O_5alloc3vec9into_iter8IntoIterB2G_EEs_0Cs3pwSHCqnYTp_9write_spz
FNDA:11,_RINvMs2_NtNtCsap2RCL79A4I_14wgpu_3dgs_core13source_format3spzNtB6_21SpzGaussiansPositions8write_toINtNtNtCs260Gs8NS7W8_6flate22gz5write9GzEncoderQINtNtCsj4FhK7DZU1O_5alloc3vec3VechEEECslQCpptksoiT_3mod
FNDA:1,_RINvMs2_NtNtCsap2RCL79A4I_14wgpu_3dgs_core13source_format3spzNtB6_21SpzGaussiansPositions8write_toINtNtNtCs260Gs8NS7W8_6flate22gz5write9GzEncoderQINtNtNtNtCs9iOHoBythrW_3std2io8buffered9bufwriter9BufWriterNtNtB2t_2fs4FileEEECslQCpptksoiT_3mod
FNDA:1,_RINvMs2_NtNtCsap2RCL79A4I_14wgpu_3dgs_core13source_format3spzNtB6_21SpzGaussiansPositions9read_fromINtNtNtCs260Gs8NS7W8_6flate22gz4read9GzDecoderQINtNtNtNtCs9iOHoBythrW_3std2io8buffered9bufreader9BufReaderNtNtB2t_2fs4FileEEECslQCpptksoiT_3mod
FNDA:11,_RINvMs2_NtNtCsap2RCL79A4I_14wgpu_3dgs_core13source_format3spzNtB6_21SpzGaussiansPositions9read_fromINtNtNtCs260Gs8NS7W8_6flate22gz4read9GzDecoderQRShEECslQCpptksoiT_3mod
FNDA:11,_RINvMs3_NtNtCsap2RCL79A4I_14wgpu_3dgs_core13source_format3spzNtB6_21SpzGaussiansRotations8write_toINtNtNtCs260Gs8NS7W8_6flate22gz5write9GzEncoderQINtNtCsj4FhK7DZU1O_5alloc3vec3VechEEECslQCpptksoiT_3mod
FNDA:1,_RINvMs3_NtNtCsap2RCL79A4I_14wgpu_3dgs_core13source_format3spzNtB6_21SpzGaussiansRotations8write_toINtNtNtCs260Gs8NS7W8_6flate22gz5write9GzEncoderQINtNtNtNtCs9iOHoBythrW_3std2io8buffered9bufwriter9BufWriterNtNtB2t_2fs4FileEEECslQCpptksoiT_3mod
FNDA:1,_RINvMs3_NtNtCsap2RCL79A4I_14wgpu_3dgs_core13source_format3spzNtB6_21SpzGaussiansRotations9read_fromINtNtNtCs260Gs8NS7W8_6flate22gz4read9GzDecoderQINtNtNtNtCs9iOHoBythrW_3std2io8buffered9bufreader9BufReaderNtNtB2t_2fs4FileEEECslQCpptksoiT_3mod
FNDA:11,_RINvMs3_NtNtCsap2RCL79A4I_14wgpu_3dgs_core13source_format3spzNtB6_21SpzGaussiansRotations9read_fromINtNtNtCs260Gs8NS7W8_6flate22gz4read9GzDecoderQRShEECslQCpptksoiT_3mod
FNDA:11,_RINvMs4_NtNtCsap2RCL79A4I_14wgpu_3dgs_core13source_format3spzNtB6_15SpzGaussiansShs8write_toINtNtNtCs260Gs8NS7W8_6flate22gz5write9GzEncoderQINtNtCsj4FhK7DZU1O_5alloc3vec3VechEEECslQCpptksoiT_3mod
FNDA:1,_RINvMs4_NtNtCsap2RCL79A4I_14wgpu_3dgs_core13source_format3spzNtB6_15SpzGaussiansShs8write_toINtNtNtCs260Gs8NS7W8_6flate22gz5write9GzEncoderQINtNtNtNtCs9iOHoBythrW_3std2io8buffered9bufwriter9BufWriterNtNtB2n_2fs4FileEEECslQCpptksoiT_3mod
FNDA:1,_RINvMs4_NtNtCsap2RCL79A4I_14wgpu_3dgs_core13source_format3spzNtB6_15SpzGaussiansShs9read_fromINtNtNtCs260Gs8NS7W8_6flate22gz4read9GzDecoderQINtNtNtNtCs9iOHoBythrW_3std2io8buffered9bufreader9BufReaderNtNtB2n_2fs4FileEEECslQCpptksoiT_3mod
FNDA:11,_RINvMs4_NtNtCsap2RCL79A4I_14wgpu_3dgs_core13source_format3spzNtB6_15SpzGaussiansShs9read_fromINtNtNtCs260Gs8NS7W8_6flate22gz4read9GzDecoderQRShEECslQCpptksoiT_3mod
FNDA:1,_RINvMs5_NtNtCsap2RCL79A4I_14wgpu_3dgs_core13source_format3spzNtB6_12SpzGaussians13read_spz_fileRNtNtNtCslQCpptksoiT_3mod6common5given8TempFileEB1C_
FNDA:4,_RINvMs5_NtNtCsap2RCL79A4I_14wgpu_3dgs_core13source_format3spzNtB6_12SpzGaussians14from_gaussiansRANtNtBa_8gaussian8Gaussianj2_ECslQCpptksoiT_3mod
FNDA:1,_RINvMs5_NtNtCsap2RCL79A4I_14wgpu_3dgs_core13source_format3spzNtB6_12SpzGaussians14from_gaussiansRSNtNtBa_8gaussian8GaussianECslQCpptksoiT_3mod
FNDA:1,_RINvMs5_NtNtCsap2RCL79A4I_14wgpu_3dgs_core13source_format3spzNtB6_12SpzGaussians14write_spz_fileRNtNtNtCslQCpptksoiT_3mod6common5given8TempFileEB1D_
FNDA:1,_RINvMs5_NtNtCsap2RCL79A4I_14wgpu_3dgs_core13source_format3spzNtB6_12SpzGaussians15read_spz_headerINtNtNtCs260Gs8NS7W8_6flate22gz4read9GzDecoderQINtNtNtNtCs9iOHoBythrW_3std2io8buffered9bufreader9BufReaderNtNtB2r_2fs4FileEEECslQCpptksoiT_3mod
FNDA:11,_RINvMs5_NtNtCsap2RCL79A4I_14wgpu_3dgs_core13source_format3spzNtB6_12SpzGaussians15read_spz_headerINtNtNtCs260Gs8NS7W8_6flate22gz4read9GzDecoderQRShEECslQCpptksoiT_3mod
FNDA:1,_RINvMs5_NtNtCsap2RCL79A4I_14wgpu_3dgs_core13source_format3spzNtB6_12SpzGaussians18read_spz_guassiansINtNtNtCs260Gs8NS7W8_6flate22gz4read9GzDecoderQINtNtNtNtCs9iOHoBythrW_3std2io8buffered9bufreader9BufReaderNtNtB2u_2fs4FileEEECslQCpptksoiT_3mod
FNDA:11,_RINvMs5_NtNtCsap2RCL79A4I_14wgpu_3dgs_core13source_format3spzNtB6_12SpzGaussians18read_spz_guassiansINtNtNtCs260Gs8NS7W8_6flate22gz4read9GzDecoderQRShEECslQCpptksoiT_3mod
FNDA:1,_RINvMs5_NtNtCsap2RCL79A4I_14wgpu_3dgs_core13source_format3spzNtB6_12SpzGaussians21read_spz_decompressedINtNtNtCs260Gs8NS7W8_6flate22gz4read9GzDecoderQINtNtNtNtCs9iOHoBythrW_3std2io8buffered9bufreader9BufReaderNtNtB2x_2fs4FileEEECslQCpptksoiT_3mod
FNDA:11,_RINvMs5_NtNtCsap2RCL79A4I_14wgpu_3dgs_core13source_format3spzNtB6_12SpzGaussians21read_spz_decompressedINtNtNtCs260Gs8NS7W8_6flate22gz4read9GzDecoderQRShEECslQCpptksoiT_3mod
FNDA:11,_RINvMs5_NtNtCsap2RCL79A4I_14wgpu_3dgs_core13source_format3spzNtB6_12SpzGaussians22write_spz_decompressedINtNtNtCs260Gs8NS7W8_6flate22gz5write9GzEncoderQINtNtCsj4FhK7DZU1O_5alloc3vec3VechEEECslQCpptksoiT_3mod
FNDA:1,_RINvMs5_NtNtCsap2RCL79A4I_14wgpu_3dgs_core13source_format3spzNtB6_12SpzGaussians22write_spz_decompressedINtNtNtCs260Gs8NS7W8_6flate22gz5write9GzEncoderQINtNtNtNtCs9iOHoBythrW_3std2io8buffered9bufwriter9BufWriterNtNtB2z_2fs4FileEEECslQCpptksoiT_3mod
FNDA:2,_RINvMs5_NtNtCsap2RCL79A4I_14wgpu_3dgs_core13source_format3spzNtB6_12SpzGaussians27from_gaussians_with_optionsINtNtNtCsmHtFwzCQ9E_4core5slice4iter4IterNtNtBa_8gaussian8GaussianEECslQCpptksoiT_3mod
FNDA:4,_RINvMs5_NtNtCsap2RCL79A4I_14wgpu_3dgs_core13source_format3spzNtB6_12SpzGaussians27from_gaussians_with_optionsRANtNtBa_8gaussian8Gaussianj2_ECslQCpptksoiT_3mod
FNDA:28,_RINvMs5_NtNtCsap2RCL79A4I_14wgpu_3dgs_core13source_format3spzNtB6_12SpzGaussians27from_gaussians_with_optionsRSNtNtBa_8gaussian8GaussianECslQCpptksoiT_3mod
FNDA:1,_RINvMs5_NtNtCsap2RCL79A4I_14wgpu_3dgs_core13source_format3spzNtB6_12SpzGaussians8read_spzINtNtNtNtCs9iOHoBythrW_3std2io8buffered9bufreader9BufReaderNtNtB1y_2fs4FileEECslQCpptksoiT_3mod
FNDA:11,_RINvMs5_NtNtCsap2RCL79A4I_14wgpu_3dgs_core13source_format3spzNtB6_12SpzGaussians8read_spzRShECslQCpptksoiT_3mod
FNDA:39,_RINvMs5_NtNtCsap2RCL79A4I_14wgpu_3dgs_core13source_format3spzNtB6_12SpzGaussians9from_iterINtNtCsj4FhK7DZU1O_5alloc3vec3VecNtB6_11SpzGaussianEECslQCpptksoiT_3mod
FNDA:11,_RINvMs5_NtNtCsap2RCL79A4I_14wgpu_3dgs_core13source_format3spzNtB6_12SpzGaussians9write_spzINtNtCsj4FhK7DZU1O_5alloc3vec3VechEECslQCpptksoiT_3mod
FNDA:1,_RINvMs5_NtNtCsap2RCL79A4I_14wgpu_3dgs_core13source_format3spzNtB6_12SpzGaussians9write_spzINtNtNtNtCs9iOHoBythrW_3std2io8buffered9bufwriter9BufWriterNtNtB1z_2fs4FileEECslQCpptksoiT_3mod
FNDA:0,_RNCINvMs5_NtNtCsap2RCL79A4I_14wgpu_3dgs_core13source_format3spzNtB8_12SpzGaussians27from_gaussians_with_optionsINtNtNtCsmHtFwzCQ9E_4core5slice4iter4IterNtNtBc_8gaussian8GaussianEE0CslQCpptksoiT_3mod
FNDA:8,_RNCINvMs5_NtNtCsap2RCL79A4I_14wgpu_3dgs_core13source_format3spzNtB8_12SpzGaussians27from_gaussians_with_optionsRANtNtBc_8gaussian8Gaussianj2_E0CslQCpptksoiT_3mod
FNDA:56,_RNCINvMs5_NtNtCsap2RCL79A4I_14wgpu_3dgs_core13source_format3spzNtB8_12SpzGaussians27from_gaussians_with_optionsRSNtNtBc_8gaussian8GaussianE0CslQCpptksoiT_3mod
FNDA:74,_RNCINvMs5_NtNtCsap2RCL79A4I_14wgpu_3dgs_core13source_format3spzNtB8_12SpzGaussians9from_iterINtNtCsj4FhK7DZU1O_5alloc3vec3VecNtB8_11SpzGaussianEE0CslQCpptksoiT_3mod
FNDA:3,_RNCINvXsH_NtNtCsap2RCL79A4I_14wgpu_3dgs_core13source_format3spzINtNtCsmHtFwzCQ9E_4core6result6ResultNtB8_15SpzGaussiansShsINtNtBc_5error24SpzGaussiansCollectErrorNtB8_13SpzGaussianShEEINtNtNtNtB14_4iter6traits7collect12FromIteratorB2A_E9from_iterINtNtNtCsj4FhK7DZU1O_5alloc3vec9into_iter8IntoIterB2A_EE0CslQCpptksoiT_3mod
FNDA:2,_RNCINvXsH_NtNtCsap2RCL79A4I_14wgpu_3dgs_core13source_format3spzINtNtCsmHtFwzCQ9E_4core6result6ResultNtB8_15SpzGaussiansShsINtNtBc_5error24SpzGaussiansCollectErrorNtB8_13SpzGaussianShEEINtNtNtNtB14_4iter6traits7collect12FromIteratorB2A_E9from_iterINtNtNtCsj4FhK7DZU1O_5alloc3vec9into_iter8IntoIterB2A_EEs0_0CslQCpptksoiT_3mod
FNDA:26,_RNCINvXsH_NtNtCsap2RCL79A4I_14wgpu_3dgs_core13source_format3spzINtNtCsmHtFwzCQ9E_4core6result6ResultNtB8_15SpzGaussiansShsINtNtBc_5error24SpzGaussiansCollectErrorNtB8_13SpzGaussianShEEINtNtNtNtB14_4iter6traits7collect12FromIteratorB2A_E9from_iterINtNtNtCsj4FhK7DZU1O_5alloc3vec9into_iter8IntoIterB2A_EEs1_0CslQCpptksoiT_3mod
FNDA:2,_RNCINvXsH_NtNtCsap2RCL79A4I_14wgpu_3dgs_core13source_format3spzINtNtCsmHtFwzCQ9E_4core6result6ResultNtB8_15SpzGaussiansShsINtNtBc_5error24SpzGaussiansCollectErrorNtB8_13SpzGaussianShEEINtNtNtNtB14_4iter6traits7collect12FromIteratorB2A_E9from_iterINtNtNtCsj4FhK7DZU1O_5alloc3vec9into_iter8IntoIterB2A_EEs_0CslQCpptksoiT_3mod
FNDA:3,_RNCINvXsb_NtNtCsap2RCL79A4I_14wgpu_3dgs_core13source_format3spzINtNtCsmHtFwzCQ9E_4core6result6ResultNtB8_21SpzGaussiansPositionsINtNtBc_5error24SpzGaussiansCollectErrorNtB8_19SpzGaussianPositionEEINtNtNtNtB14_4iter6traits7collect12FromIteratorB2G_E9from_iterINtNtNtCsj4FhK7DZU1O_5alloc3vec9into_iter8IntoIterB2G_EE0CslQCpptksoiT_3mod
FNDA:32,_RNCINvXsb_NtNtCsap2RCL79A4I_14wgpu_3dgs_core13source_format3spzINtNtCsmHtFwzCQ9E_4core6result6ResultNtB8_21SpzGaussiansPositionsINtNtBc_5error24SpzGaussiansCollectErrorNtB8_19SpzGaussianPositionEEINtNtNtNtB14_4iter6traits7collect12FromIteratorB2G_E9from_iterINtNtNtCsj4FhK7DZU1O_5alloc3vec9into_iter8IntoIterB2G_EEs_0CslQCpptksoiT_3mod
FNDA:5,_RNCINvXsr_NtNtCsap2RCL79A4I_14wgpu_3dgs_core13source_format3spzINtNtCsmHtFwzCQ9E_4core6result6ResultNtB8_21SpzGaussiansRotationsINtNtBc_5error24SpzGaussiansCollectErrorNtB8_19SpzGaussianRotationEEINtNtNtNtB14_4iter6traits7collect12FromIteratorB2G_E9from_iterINtNtNtCsj4FhK7DZU1O_5alloc3vec9into_iter8IntoIterB2G_EE0CslQCpptksoiT_3mod
FNDA:29,_RNCINvXsr_NtNtCsap2RCL79A4I_14wgpu_3dgs_core13source_format3spzINtNtCsmHtFwzCQ9E_4core6result6ResultNtB8_21SpzGaussiansRotationsINtNtBc_5error24SpzGaussiansCollectErrorNtB8_19SpzGaussianRotationEEINtNtNtNtB14_4iter6traits7collect12FromIteratorB2G_E9from_iterINtNtNtCsj4FhK7DZU1O_5alloc3vec9into_iter8IntoIterB2G_EEs_0CslQCpptksoiT_3mod
FNDA:48,_RNCNvMs5_NtNtCsap2RCL79A4I_14wgpu_3dgs_core13source_format3spzNtB7_12SpzGaussians4iter0CslQCpptksoiT_3mod
FNDA:2,_RNCNvXs6_NtNtCsap2RCL79A4I_14wgpu_3dgs_core13source_format3spzNtB7_12SpzGaussiansNtNtBb_8gaussian12IterGaussian13iter_gaussian0CslQCpptksoiT_3mod
FNDA:4,_RNvXs7_NtNtCsap2RCL79A4I_14wgpu_3dgs_core13source_format3spzNtB5_12SpzGaussiansINtNtCsmHtFwzCQ9E_4core7convert4FromRANtNtB9_8gaussian8Gaussianj2_E4fromCslQCpptksoiT_3mod
FNDA:1,_RNvXs7_NtNtCsap2RCL79A4I_14wgpu_3dgs_core13source_format3spzNtB5_12SpzGaussiansINtNtCsmHtFwzCQ9E_4core7convert4FromRSNtNtB9_8gaussian8GaussianE4fromCslQCpptksoiT_3mod
FNDA:37,_RINvXsH_NtNtCsap2RCL79A4I_14wgpu_3dgs_core13source_format3spzINtNtCsmHtFwzCQ9E_4core6result6ResultNtB6_15SpzGaussiansShsINtNtBa_5error24SpzGaussiansCollectErrorNtB6_13SpzGaussianShEEINtNtNtNtB12_4iter6traits7collect12FromIteratorB2y_E9from_iterINtNtNtCsj4FhK7DZU1O_5alloc3vec9into_iter8IntoIterB2y_EECslQCpptksoiT_3mod
FNDA:39,_RINvXsb_NtNtCsap2RCL79A4I_14wgpu_3dgs_core13source_format3spzINtNtCsmHtFwzCQ9E_4core6result6ResultNtB6_21SpzGaussiansPositionsINtNtBa_5error24SpzGaussiansCollectErrorNtB6_19SpzGaussianPositionEEINtNtNtNtB12_4iter6traits7collect12FromIteratorB2E_E9from_iterINtNtNtCsj4FhK7DZU1O_5alloc3vec9into_iter8IntoIterB2E_EECslQCpptksoiT_3mod
FNDA:38,_RINvXsr_NtNtCsap2RCL79A4I_14wgpu_3dgs_core13source_format3spzINtNtCsmHtFwzCQ9E_4core6result6ResultNtB6_21SpzGaussiansRotationsINtNtBa_5error24SpzGaussiansCollectErrorNtB6_19SpzGaussianRotationEEINtNtNtNtB12_4iter6traits7collect12FromIteratorB2E_E9from_iterINtNtNtCsj4FhK7DZU1O_5alloc3vec9into_iter8IntoIterB2E_EECslQCpptksoiT_3mod
FNDA:0,_RNvMNtNtCsap2RCL79A4I_14wgpu_3dgs_core13source_format3spzNtB2_13SpzGaussianSh4iter
FNDA:60,_RNvMNtNtCsap2RCL79A4I_14wgpu_3dgs_core13source_format3spzNtB2_13SpzGaussianSh8iter_mut
FNDA:47,_RNvMs0_NtNtCsap2RCL79A4I_14wgpu_3dgs_core13source_format3spzNtB5_16SpzGaussianShRef4iter
FNDA:76,_RNvMs1_NtNtCsap2RCL79A4I_14wgpu_3dgs_core13source_format3spzNtB5_18SpzGaussiansHeader10num_points
FNDA:95,_RNvMs1_NtNtCsap2RCL79A4I_14wgpu_3dgs_core13source_format3spzNtB5_18SpzGaussiansHeader12try_from_pod
FNDA:113,_RNvMs1_NtNtCsap2RCL79A4I_14wgpu_3dgs_core13source_format3spzNtB5_18SpzGaussiansHeader12uses_float16
FNDA:41,_RNvMs1_NtNtCsap2RCL79A4I_14wgpu_3dgs_core13source_format3spzNtB5_18SpzGaussiansHeader14is_antialiased
FNDA:32,_RNvMs1_NtNtCsap2RCL79A4I_14wgpu_3dgs_core13source_format3spzNtB5_18SpzGaussiansHeader14set_num_points
FNDA:146,_RNvMs1_NtNtCsap2RCL79A4I_14wgpu_3dgs_core13source_format3spzNtB5_18SpzGaussiansHeader15fractional_bits
FNDA:8,_RNvMs1_NtNtCsap2RCL79A4I_14wgpu_3dgs_core13source_format3spzNtB5_18SpzGaussiansHeader19sh_num_coefficients
FNDA:112,_RNvMs1_NtNtCsap2RCL79A4I_14wgpu_3dgs_core13source_format3spzNtB5_18SpzGaussiansHeader24uses_quat_smallest_three
FNDA:82,_RNvMs1_NtNtCsap2RCL79A4I_14wgpu_3dgs_core13source_format3spzNtB5_18SpzGaussiansHeader3new
FNDA:12,_RNvMs1_NtNtCsap2RCL79A4I_14wgpu_3dgs_core13source_format3spzNtB5_18SpzGaussiansHeader6as_pod
FNDA:41,_RNvMs1_NtNtCsap2RCL79A4I_14wgpu_3dgs_core13source_format3spzNtB5_18SpzGaussiansHeader7default
FNDA:266,_RNvMs1_NtNtCsap2RCL79A4I_14wgpu_3dgs_core13source_format3spzNtB5_18SpzGaussiansHeader7version
FNDA:152,_RNvMs1_NtNtCsap2RCL79A4I_14wgpu_3dgs_core13source_format3spzNtB5_18SpzGaussiansHeader9sh_degree
FNDA:26,_RNvMs5_NtNtCsap2RCL79A4I_14wgpu_3dgs_core13source_format3spzNtB5_12SpzGaussians3len
FNDA:25,_RNvMs5_NtNtCsap2RCL79A4I_14wgpu_3dgs_core13source_format3spzNtB5_12SpzGaussians4iter
FNDA:1,_RNvMs5_NtNtCsap2RCL79A4I_14wgpu_3dgs_core13source_format3spzNtB5_12SpzGaussians8is_empty
FNDA:0,_RNvMsG_NtNtCsap2RCL79A4I_14wgpu_3dgs_core13source_format3spzNtB5_15SpzGaussiansShs3len
FNDA:25,_RNvMsG_NtNtCsap2RCL79A4I_14wgpu_3dgs_core13source_format3spzNtB5_15SpzGaussiansShs4iter
FNDA:0,_RNvMsG_NtNtCsap2RCL79A4I_14wgpu_3dgs_core13source_format3spzNtB5_15SpzGaussiansShs8is_empty
FNDA:0,_RNvMs_NtNtCsap2RCL79A4I_14wgpu_3dgs_core13source_format3spzNtB4_11SpzGaussian6as_ref
FNDA:37,_RNvMsa_NtNtCsap2RCL79A4I_14wgpu_3dgs_core13source_format3spzNtB5_21SpzGaussiansPositions3len
FNDA:25,_RNvMsa_NtNtCsap2RCL79A4I_14wgpu_3dgs_core13source_format3spzNtB5_21SpzGaussiansPositions4iter
FNDA:0,_RNvMsa_NtNtCsap2RCL79A4I_14wgpu_3dgs_core13source_format3spzNtB5_21SpzGaussiansPositions8is_empty
FNDA:0,_RNvMsq_NtNtCsap2RCL79A4I_14wgpu_3dgs_core13source_format3spzNtB5_21SpzGaussiansRotations3len
FNDA:25,_RNvMsq_NtNtCsap2RCL79A4I_14wgpu_3dgs_core13source_format3spzNtB5_21SpzGaussiansRotations4iter
FNDA:0,_RNvMsq_NtNtCsap2RCL79A4I_14wgpu_3dgs_core13source_format3spzNtB5_21SpzGaussiansRotations8is_empty
FNDA:2,_RNvXs6_NtNtCsap2RCL79A4I_14wgpu_3dgs_core13source_format3spzNtB5_12SpzGaussiansNtNtB9_8gaussian12IterGaussian13iter_gaussian
FNDA:41,_RNvXs8_NtNtCsap2RCL79A4I_14wgpu_3dgs_core13source_format3spzNtB5_36SpzGaussiansFromGaussianSliceOptionsNtNtCsmHtFwzCQ9E_4core7default7Default7default
FNDA:78,_RNvXs9_NtNtCsap2RCL79A4I_14wgpu_3dgs_core13source_format3spzNtB5_23SpzGaussianPositionIterNtNtNtNtCsmHtFwzCQ9E_4core4iter6traits8iterator8Iterator4next
FNDA:57,_RNvXsF_NtNtCsap2RCL79A4I_14wgpu_3dgs_core13source_format3spzNtB5_17SpzGaussianShIterNtNtNtNtCsmHtFwzCQ9E_4core4iter6traits8iterator8Iterator4next
FNDA:57,_RNvXsp_NtNtCsap2RCL79A4I_14wgpu_3dgs_core13source_format3spzNtB5_23SpzGaussianRotationIterNtNtNtNtCsmHtFwzCQ9E_4core4iter6traits8iterator8Iterator4next
FNDA:2,_RNCNvXs9_NtNtCsap2RCL79A4I_14wgpu_3dgs_core13source_format3spzNtB7_23SpzGaussianPositionIterNtNtNtNtCsmHtFwzCQ9E_4core4iter6traits8iterator8Iterator4next0Bb_
FNDA:55,_RNCNvXs9_NtNtCsap2RCL79A4I_14wgpu_3dgs_core13source_format3spzNtB7_23SpzGaussianPositionIterNtNtNtNtCsmHtFwzCQ9E_4core4iter6traits8iterator8Iterator4nexts_0Bb_
FNDA:2,_RNCNvXsF_NtNtCsap2RCL79A4I_14wgpu_3dgs_core13source_format3spzNtB7_17SpzGaussianShIterNtNtNtNtCsmHtFwzCQ9E_4core4iter6traits8iterator8Iterator4next0Bb_
FNDA:51,_RNCNvXsF_NtNtCsap2RCL79A4I_14wgpu_3dgs_core13source_format3spzNtB7_17SpzGaussianShIterNtNtNtNtCsmHtFwzCQ9E_4core4iter6traits8iterator8Iterator4nexts0_0Bb_
FNDA:2,_RNCNvXsF_NtNtCsap2RCL79A4I_14wgpu_3dgs_core13source_format3spzNtB7_17SpzGaussianShIterNtNtNtNtCsmHtFwzCQ9E_4core4iter6traits8iterator8Iterator4nexts_0Bb_
FNDA:13,_RNCNvXsp_NtNtCsap2RCL79A4I_14wgpu_3dgs_core13source_format3spzNtB7_23SpzGaussianRotationIterNtNtNtNtCsmHtFwzCQ9E_4core4iter6traits8iterator8Iterator4next0Bb_
FNDA:44,_RNCNvXsp_NtNtCsap2RCL79A4I_14wgpu_3dgs_core13source_format3spzNtB7_23SpzGaussianRotationIterNtNtNtNtCsmHtFwzCQ9E_4core4iter6traits8iterator8Iterator4nexts_0Bb_
FNDA:0,_RINvMs2_NtNtCs3bDQ3tnbls4_14wgpu_3dgs_core13source_format3spzNtB6_21SpzGaussiansPositions8write_topEBa_
FNDA:0,_RINvMs2_NtNtCs3bDQ3tnbls4_14wgpu_3dgs_core13source_format3spzNtB6_21SpzGaussiansPositions9read_frompEBa_
FNDA:0,_RINvMs3_NtNtCs3bDQ3tnbls4_14wgpu_3dgs_core13source_format3spzNtB6_21SpzGaussiansRotations8write_topEBa_
FNDA:0,_RINvMs3_NtNtCs3bDQ3tnbls4_14wgpu_3dgs_core13source_format3spzNtB6_21SpzGaussiansRotations9read_frompEBa_
FNDA:0,_RINvMs4_NtNtCs3bDQ3tnbls4_14wgpu_3dgs_core13source_format3spzNtB6_15SpzGaussiansShs8write_topEBa_
FNDA:0,_RINvMs4_NtNtCs3bDQ3tnbls4_14wgpu_3dgs_core13source_format3spzNtB6_15SpzGaussiansShs9read_frompEBa_
FNDA:0,_RINvMs5_NtNtCs3bDQ3tnbls4_14wgpu_3dgs_core13source_format3spzNtB6_12SpzGaussians13read_spz_filepEBa_
FNDA:0,_RINvMs5_NtNtCs3bDQ3tnbls4_14wgpu_3dgs_core13source_format3spzNtB6_12SpzGaussians14from_gaussianspEBa_
FNDA:0,_RINvMs5_NtNtCs3bDQ3tnbls4_14wgpu_3dgs_core13source_format3spzNtB6_12SpzGaussians14write_spz_filepEBa_
FNDA:0,_RINvMs5_NtNtCs3bDQ3tnbls4_14wgpu_3dgs_core13source_format3spzNtB6_12SpzGaussians15read_spz_headerpEBa_
FNDA:0,_RINvMs5_NtNtCs3bDQ3tnbls4_14wgpu_3dgs_core13source_format3spzNtB6_12SpzGaussians18read_spz_guassianspEBa_
FNDA:0,_RINvMs5_NtNtCs3bDQ3tnbls4_14wgpu_3dgs_core13source_format3spzNtB6_12SpzGaussians21read_spz_decompressedpEBa_
FNDA:0,_RINvMs5_NtNtCs3bDQ3tnbls4_14wgpu_3dgs_core13source_format3spzNtB6_12SpzGaussians22write_spz_decompressedpEBa_
FNDA:0,_RINvMs5_NtNtCs3bDQ3tnbls4_14wgpu_3dgs_core13source_format3spzNtB6_12SpzGaussians27from_gaussians_with_optionspEBa_
FNDA:0,_RINvMs5_NtNtCs3bDQ3tnbls4_14wgpu_3dgs_core13source_format3spzNtB6_12SpzGaussians8read_spzpEBa_
FNDA:0,_RINvMs5_NtNtCs3bDQ3tnbls4_14wgpu_3dgs_core13source_format3spzNtB6_12SpzGaussians9from_iterpEBa_
FNDA:0,_RINvMs5_NtNtCs3bDQ3tnbls4_14wgpu_3dgs_core13source_format3spzNtB6_12SpzGaussians9write_spzpEBa_
FNDA:0,_RINvXsH_NtNtCs3bDQ3tnbls4_14wgpu_3dgs_core13source_format3spzINtNtCsmHtFwzCQ9E_4core6result6ResultNtB6_15SpzGaussiansShsINtNtBa_5error24SpzGaussiansCollectErrorNtB6_13SpzGaussianShEEINtNtNtNtB12_4iter6traits7collect12FromIteratorB2y_E9from_iterpEBa_
FNDA:0,_RINvXsb_NtNtCs3bDQ3tnbls4_14wgpu_3dgs_core13source_format3spzINtNtCsmHtFwzCQ9E_4core6result6ResultNtB6_21SpzGaussiansPositionsINtNtBa_5error24SpzGaussiansCollectErrorNtB6_19SpzGaussianPositionEEINtNtNtNtB12_4iter6traits7collect12FromIteratorB2E_E9from_iterpEBa_
FNDA:0,_RINvXsr_NtNtCs3bDQ3tnbls4_14wgpu_3dgs_core13source_format3spzINtNtCsmHtFwzCQ9E_4core6result6ResultNtB6_21SpzGaussiansRotationsINtNtBa_5error24SpzGaussiansCollectErrorNtB6_19SpzGaussianRotationEEINtNtNtNtB12_4iter6traits7collect12FromIteratorB2E_E9from_iterpEBa_
FNDA:0,_RNCINvMs5_NtNtCs3bDQ3tnbls4_14wgpu_3dgs_core13source_format3spzNtB8_12SpzGaussians27from_gaussians_with_optionspE0Bc_
FNDA:0,_RNCINvMs5_NtNtCs3bDQ3tnbls4_14wgpu_3dgs_core13source_format3spzNtB8_12SpzGaussians9from_iterpE0Bc_
FNDA:0,_RNCINvXsH_NtNtCs3bDQ3tnbls4_14wgpu_3dgs_core13source_format3spzINtNtCsmHtFwzCQ9E_4core6result6ResultNtB8_15SpzGaussiansShsINtNtBc_5error24SpzGaussiansCollectErrorNtB8_13SpzGaussianShEEINtNtNtNtB14_4iter6traits7collect12FromIteratorB2A_E9from_iterpE0Bc_
FNDA:0,_RNCINvXsH_NtNtCs3bDQ3tnbls4_14wgpu_3dgs_core13source_format3spzINtNtCsmHtFwzCQ9E_4core6result6ResultNtB8_15SpzGaussiansShsINtNtBc_5error24SpzGaussiansCollectErrorNtB8_13SpzGaussianShEEINtNtNtNtB14_4iter6traits7collect12FromIteratorB2A_E9from_iterpEs0_0Bc_
FNDA:0,_RNCINvXsH_NtNtCs3bDQ3tnbls4_14wgpu_3dgs_core13source_format3spzINtNtCsmHtFwzCQ9E_4core6result6ResultNtB8_15SpzGaussiansShsINtNtBc_5error24SpzGaussiansCollectErrorNtB8_13SpzGaussianShEEINtNtNtNtB14_4iter6traits7collect12FromIteratorB2A_E9from_iterpEs1_0Bc_
FNDA:0,_RNCINvXsH_NtNtCs3bDQ3tnbls4_14wgpu_3dgs_core13source_format3spzINtNtCsmHtFwzCQ9E_4core6result6ResultNtB8_15SpzGaussiansShsINtNtBc_5error24SpzGaussiansCollectErrorNtB8_13SpzGaussianShEEINtNtNtNtB14_4iter6traits7collect12FromIteratorB2A_E9from_iterpEs_0Bc_
FNDA:0,_RNCINvXsb_NtNtCs3bDQ3tnbls4_14wgpu_3dgs_core13source_format3spzINtNtCsmHtFwzCQ9E_4core6result6ResultNtB8_21SpzGaussiansPositionsINtNtBc_5error24SpzGaussiansCollectErrorNtB8_19SpzGaussianPositionEEINtNtNtNtB14_4iter6traits7collect12FromIteratorB2G_E9from_iterpE0Bc_
FNDA:0,_RNCINvXsb_NtNtCs3bDQ3tnbls4_14wgpu_3dgs_core13source_format3spzINtNtCsmHtFwzCQ9E_4core6result6ResultNtB8_21SpzGaussiansPositionsINtNtBc_5error24SpzGaussiansCollectErrorNtB8_19SpzGaussianPositionEEINtNtNtNtB14_4iter6traits7collect12FromIteratorB2G_E9from_iterpEs_0Bc_
FNDA:0,_RNCINvXsr_NtNtCs3bDQ3tnbls4_14wgpu_3dgs_core13source_format3spzINtNtCsmHtFwzCQ9E_4core6result6ResultNtB8_21SpzGaussiansRotationsINtNtBc_5error24SpzGaussiansCollectErrorNtB8_19SpzGaussianRotationEEINtNtNtNtB14_4iter6traits7collect12FromIteratorB2G_E9from_iterpE0Bc_
FNDA:0,_RNCINvXsr_NtNtCs3bDQ3tnbls4_14wgpu_3dgs_core13source_format3spzINtNtCsmHtFwzCQ9E_4core6result6ResultNtB8_21SpzGaussiansRotationsINtNtBc_5error24SpzGaussiansCollectErrorNtB8_19SpzGaussianRotationEEINtNtNtNtB14_4iter6traits7collect12FromIteratorB2G_E9from_iterpEs_0Bc_
FNDA:0,_RNCNvMs5_NtNtCs3bDQ3tnbls4_14wgpu_3dgs_core13source_format3spzNtB7_12SpzGaussians4iter0Bb_
FNDA:0,_RNCNvXs6_NtNtCs3bDQ3tnbls4_14wgpu_3dgs_core13source_format3spzNtB7_12SpzGaussiansNtNtBb_8gaussian12IterGaussian13iter_gaussian0Bb_
FNDA:0,_RNCNvXs9_NtNtCs3bDQ3tnbls4_14wgpu_3dgs_core13source_format3spzNtB7_23SpzGaussianPositionIterNtNtNtNtCsmHtFwzCQ9E_4core4iter6traits8iterator8Iterator4next0Bb_
FNDA:0,_RNCNvXs9_NtNtCs3bDQ3tnbls4_14wgpu_3dgs_core13source_format3spzNtB7_23SpzGaussianPositionIterNtNtNtNtCsmHtFwzCQ9E_4core4iter6traits8iterator8Iterator4nexts_0Bb_
FNDA:0,_RNCNvXsF_NtNtCs3bDQ3tnbls4_14wgpu_3dgs_core13source_format3spzNtB7_17SpzGaussianShIterNtNtNtNtCsmHtFwzCQ9E_4core4iter6traits8iterator8Iterator4next0Bb_
FNDA:0,_RNCNvXsF_NtNtCs3bDQ3tnbls4_14wgpu_3dgs_core13source_format3spzNtB7_17SpzGaussianShIterNtNtNtNtCsmHtFwzCQ9E_4core4iter6traits8iterator8Iterator4nexts0_0Bb_
FNDA:0,_RNCNvXsF_NtNtCs3bDQ3tnbls4_14wgpu_3dgs_core13source_format3spzNtB7_17SpzGaussianShIterNtNtNtNtCsmHtFwzCQ9E_4core4iter6traits8iterator8Iterator4nexts_0Bb_
FNDA:0,_RNCNvXsp_NtNtCs3bDQ3tnbls4_14wgpu_3dgs_core13source_format3spzNtB7_23SpzGaussianRotationIterNtNtNtNtCsmHtFwzCQ9E_4core4iter6traits8iterator8Iterator4next0Bb_
FNDA:0,_RNCNvXsp_NtNtCs3bDQ3tnbls4_14wgpu_3dgs_core13source_format3spzNtB7_23SpzGaussianRotationIterNtNtNtNtCsmHtFwzCQ9E_4core4iter6traits8iterator8Iterator4nexts_0Bb_
FNDA:0,_RNvMNtNtCs3bDQ3tnbls4_14wgpu_3dgs_core13source_format3spzNtB2_13SpzGaussianSh4iter
FNDA:0,_RNvMNtNtCs3bDQ3tnbls4_14wgpu_3dgs_core13source_format3spzNtB2_13SpzGaussianSh8iter_mut
FNDA:0,_RNvMs0_NtNtCs3bDQ3tnbls4_14wgpu_3dgs_core13source_format3spzNtB5_16SpzGaussianShRef4iter
FNDA:0,_RNvMs1_NtNtCs3bDQ3tnbls4_14wgpu_3dgs_core13source_format3spzNtB5_18SpzGaussiansHeader10num_points
FNDA:0,_RNvMs1_NtNtCs3bDQ3tnbls4_14wgpu_3dgs_core13source_format3spzNtB5_18SpzGaussiansHeader12try_from_pod
FNDA:0,_RNvMs1_NtNtCs3bDQ3tnbls4_14wgpu_3dgs_core13source_format3spzNtB5_18SpzGaussiansHeader12uses_float16
FNDA:0,_RNvMs1_NtNtCs3bDQ3tnbls4_14wgpu_3dgs_core13source_format3spzNtB5_18SpzGaussiansHeader14is_antialiased
FNDA:0,_RNvMs1_NtNtCs3bDQ3tnbls4_14wgpu_3dgs_core13source_format3spzNtB5_18SpzGaussiansHeader14set_num_points
FNDA:0,_RNvMs1_NtNtCs3bDQ3tnbls4_14wgpu_3dgs_core13source_format3spzNtB5_18SpzGaussiansHeader15fractional_bits
FNDA:0,_RNvMs1_NtNtCs3bDQ3tnbls4_14wgpu_3dgs_core13source_format3spzNtB5_18SpzGaussiansHeader19sh_num_coefficients
FNDA:0,_RNvMs1_NtNtCs3bDQ3tnbls4_14wgpu_3dgs_core13source_format3spzNtB5_18SpzGaussiansHeader24uses_quat_smallest_three
FNDA:0,_RNvMs1_NtNtCs3bDQ3tnbls4_14wgpu_3dgs_core13source_format3spzNtB5_18SpzGaussiansHeader3new
FNDA:0,_RNvMs1_NtNtCs3bDQ3tnbls4_14wgpu_3dgs_core13source_format3spzNtB5_18SpzGaussiansHeader6as_pod
FNDA:0,_RNvMs1_NtNtCs3bDQ3tnbls4_14wgpu_3dgs_core13source_format3spzNtB5_18SpzGaussiansHeader7default
FNDA:0,_RNvMs1_NtNtCs3bDQ3tnbls4_14wgpu_3dgs_core13source_format3spzNtB5_18SpzGaussiansHeader7version
FNDA:0,_RNvMs1_NtNtCs3bDQ3tnbls4_14wgpu_3dgs_core13source_format3spzNtB5_18SpzGaussiansHeader9sh_degree
FNDA:0,_RNvMs5_NtNtCs3bDQ3tnbls4_14wgpu_3dgs_core13source_format3spzNtB5_12SpzGaussians3len
FNDA:0,_RNvMs5_NtNtCs3bDQ3tnbls4_14wgpu_3dgs_core13source_format3spzNtB5_12SpzGaussians4iter
FNDA:0,_RNvMs5_NtNtCs3bDQ3tnbls4_14wgpu_3dgs_core13source_format3spzNtB5_12SpzGaussians8is_empty
FNDA:0,_RNvMsG_NtNtCs3bDQ3tnbls4_14wgpu_3dgs_core13source_format3spzNtB5_15SpzGaussiansShs3len
FNDA:0,_RNvMsG_NtNtCs3bDQ3tnbls4_14wgpu_3dgs_core13source_format3spzNtB5_15SpzGaussiansShs4iter
FNDA:0,_RNvMsG_NtNtCs3bDQ3tnbls4_14wgpu_3dgs_core13source_format3spzNtB5_15SpzGaussiansShs8is_empty
FNDA:0,_RNvMs_NtNtCs3bDQ3tnbls4_14wgpu_3dgs_core13source_format3spzNtB4_11SpzGaussian6as_ref
FNDA:0,_RNvMsa_NtNtCs3bDQ3tnbls4_14wgpu_3dgs_core13source_format3spzNtB5_21SpzGaussiansPositions3len
FNDA:0,_RNvMsa_NtNtCs3bDQ3tnbls4_14wgpu_3dgs_core13source_format3spzNtB5_21SpzGaussiansPositions4iter
FNDA:0,_RNvMsa_NtNtCs3bDQ3tnbls4_14wgpu_3dgs_core13source_format3spzNtB5_21SpzGaussiansPositions8is_empty
FNDA:0,_RNvMsq_NtNtCs3bDQ3tnbls4_14wgpu_3dgs_core13source_format3spzNtB5_21SpzGaussiansRotations3len
FNDA:0,_RNvMsq_NtNtCs3bDQ3tnbls4_14wgpu_3dgs_core13source_format3spzNtB5_21SpzGaussiansRotations4iter
FNDA:0,_RNvMsq_NtNtCs3bDQ3tnbls4_14wgpu_3dgs_core13source_format3spzNtB5_21SpzGaussiansRotations8is_empty
FNDA:0,_RNvXININtNtCs3bDQ3tnbls4_14wgpu_3dgs_core13source_format3spzs7_0pENtB5_12SpzGaussiansINtNtCsmHtFwzCQ9E_4core7convert4FrompE4fromB9_
FNDA:0,_RNvXs6_NtNtCs3bDQ3tnbls4_14wgpu_3dgs_core13source_format3spzNtB5_12SpzGaussiansNtNtB9_8gaussian12IterGaussian13iter_gaussian
FNDA:0,_RNvXs8_NtNtCs3bDQ3tnbls4_14wgpu_3dgs_core13source_format3spzNtB5_36SpzGaussiansFromGaussianSliceOptionsNtNtCsmHtFwzCQ9E_4core7default7Default7default
FNDA:0,_RNvXs9_NtNtCs3bDQ3tnbls4_14wgpu_3dgs_core13source_format3spzNtB5_23SpzGaussianPositionIterNtNtNtNtCsmHtFwzCQ9E_4core4iter6traits8iterator8Iterator4next
FNDA:0,_RNvXsF_NtNtCs3bDQ3tnbls4_14wgpu_3dgs_core13source_format3spzNtB5_17SpzGaussianShIterNtNtNtNtCsmHtFwzCQ9E_4core4iter6traits8iterator8Iterator4next
FNDA:0,_RNvXsp_NtNtCs3bDQ3tnbls4_14wgpu_3dgs_core13source_format3spzNtB5_23SpzGaussianRotationIterNtNtNtNtCsmHtFwzCQ9E_4core4iter6traits8iterator8Iterator4next
FNDA:1,_RINvMs2_NtNtCsap2RCL79A4I_14wgpu_3dgs_core13source_format3spzNtB6_21SpzGaussiansPositions9read_fromINtNtNtCs260Gs8NS7W8_6flate22gz4read9GzDecoderQINtNtNtNtCs9iOHoBythrW_3std2io8buffered9bufreader9BufReaderNtNtB2t_2fs4FileEEECs3RzkXnBrBnu_8read_spz
FNDA:1,_RINvMs3_NtNtCsap2RCL79A4I_14wgpu_3dgs_core13source_format3spzNtB6_21SpzGaussiansRotations9read_fromINtNtNtCs260Gs8NS7W8_6flate22gz4read9GzDecoderQINtNtNtNtCs9iOHoBythrW_3std2io8buffered9bufreader9BufReaderNtNtB2t_2fs4FileEEECs3RzkXnBrBnu_8read_spz
FNDA:1,_RINvMs4_NtNtCsap2RCL79A4I_14wgpu_3dgs_core13source_format3spzNtB6_15SpzGaussiansShs9read_fromINtNtNtCs260Gs8NS7W8_6flate22gz4read9GzDecoderQINtNtNtNtCs9iOHoBythrW_3std2io8buffered9bufreader9BufReaderNtNtB2n_2fs4FileEEECs3RzkXnBrBnu_8read_spz
FNDA:1,_RINvMs5_NtNtCsap2RCL79A4I_14wgpu_3dgs_core13source_format3spzNtB6_12SpzGaussians13read_spz_fileRNtNtCsj4FhK7DZU1O_5alloc6string6StringECs3RzkXnBrBnu_8read_spz
FNDA:1,_RINvMs5_NtNtCsap2RCL79A4I_14wgpu_3dgs_core13source_format3spzNtB6_12SpzGaussians15read_spz_headerINtNtNtCs260Gs8NS7W8_6flate22gz4read9GzDecoderQINtNtNtNtCs9iOHoBythrW_3std2io8buffered9bufreader9BufReaderNtNtB2r_2fs4FileEEECs3RzkXnBrBnu_8read_spz
FNDA:1,_RINvMs5_NtNtCsap2RCL79A4I_14wgpu_3dgs_core13source_format3spzNtB6_12SpzGaussians18read_spz_guassiansINtNtNtCs260Gs8NS7W8_6flate22gz4read9GzDecoderQINtNtNtNtCs9iOHoBythrW_3std2io8buffered9bufreader9BufReaderNtNtB2u_2fs4FileEEECs3RzkXnBrBnu_8read_spz
FNDA:1,_RINvMs5_NtNtCsap2RCL79A4I_14wgpu_3dgs_core13source_format3spzNtB6_12SpzGaussians21read_spz_decompressedINtNtNtCs260Gs8NS7W8_6flate22gz4read9GzDecoderQINtNtNtNtCs9iOHoBythrW_3std2io8buffered9bufreader9BufReaderNtNtB2x_2fs4FileEEECs3RzkXnBrBnu_8read_spz
FNDA:1,_RINvMs5_NtNtCsap2RCL79A4I_14wgpu_3dgs_core13source_format3spzNtB6_12SpzGaussians8read_spzINtNtNtNtCs9iOHoBythrW_3std2io8buffered9bufreader9BufReaderNtNtB1y_2fs4FileEECs3RzkXnBrBnu_8read_spz
FNDA:9,_RNCNvMs5_NtNtCsap2RCL79A4I_14wgpu_3dgs_core13source_format3spzNtB7_12SpzGaussians4iter0Cs3RzkXnBrBnu_8read_spz
FNDA:9,_RNCNvXs6_NtNtCsap2RCL79A4I_14wgpu_3dgs_core13source_format3spzNtB7_12SpzGaussiansNtNtBb_8gaussian12IterGaussian13iter_gaussian0Cs3RzkXnBrBnu_8read_spz
FNDA:0,_RINvXsH_NtNtCsap2RCL79A4I_14wgpu_3dgs_core13source_format3spzINtNtCsmHtFwzCQ9E_4core6result6ResultNtB6_15SpzGaussiansShsINtNtBa_5error24SpzGaussiansCollectErrorNtB6_13SpzGaussianShEEINtNtNtNtB12_4iter6traits7collect12FromIteratorB2y_E9from_iterINtNtNtCsj4FhK7DZU1O_5alloc3vec9into_iter8IntoIterB2y_EECs3pwSHCqnYTp_9write_spz
FNDA:0,_RINvXsb_NtNtCsap2RCL79A4I_14wgpu_3dgs_core13source_format3spzINtNtCsmHtFwzCQ9E_4core6result6ResultNtB6_21SpzGaussiansPositionsINtNtBa_5error24SpzGaussiansCollectErrorNtB6_19SpzGaussianPositionEEINtNtNtNtB12_4iter6traits7collect12FromIteratorB2E_E9from_iterINtNtNtCsj4FhK7DZU1O_5alloc3vec9into_iter8IntoIterB2E_EECs3pwSHCqnYTp_9write_spz
FNDA:0,_RINvXsr_NtNtCsap2RCL79A4I_14wgpu_3dgs_core13source_format3spzINtNtCsmHtFwzCQ9E_4core6result6ResultNtB6_21SpzGaussiansRotationsINtNtBa_5error24SpzGaussiansCollectErrorNtB6_19SpzGaussianRotationEEINtNtNtNtB12_4iter6traits7collect12FromIteratorB2E_E9from_iterINtNtNtCsj4FhK7DZU1O_5alloc3vec9into_iter8IntoIterB2E_EECs3pwSHCqnYTp_9write_spz
FNDA:0,_RINvMs2_NtNtCsap2RCL79A4I_14wgpu_3dgs_core13source_format3spzNtB6_21SpzGaussiansPositions8write_toINtNtNtCs260Gs8NS7W8_6flate22gz5write9GzEncoderQINtNtNtNtCs9iOHoBythrW_3std2io8buffered9bufwriter9BufWriterNtNtB2t_2fs4FileEEECs3pwSHCqnYTp_9write_spz
FNDA:0,_RINvMs3_NtNtCsap2RCL79A4I_14wgpu_3dgs_core13source_format3spzNtB6_21SpzGaussiansRotations8write_toINtNtNtCs260Gs8NS7W8_6flate22gz5write9GzEncoderQINtNtNtNtCs9iOHoBythrW_3std2io8buffered9bufwriter9BufWriterNtNtB2t_2fs4FileEEECs3pwSHCqnYTp_9write_spz
FNDA:0,_RINvMs4_NtNtCsap2RCL79A4I_14wgpu_3dgs_core13source_format3spzNtB6_15SpzGaussiansShs8write_toINtNtNtCs260Gs8NS7W8_6flate22gz5write9GzEncoderQINtNtNtNtCs9iOHoBythrW_3std2io8buffered9bufwriter9BufWriterNtNtB2n_2fs4FileEEECs3pwSHCqnYTp_9write_spz
FNDA:0,_RINvMs5_NtNtCsap2RCL79A4I_14wgpu_3dgs_core13source_format3spzNtB6_12SpzGaussians14write_spz_fileRNtNtCsj4FhK7DZU1O_5alloc6string6StringECs3pwSHCqnYTp_9write_spz
FNDA:0,_RINvMs5_NtNtCsap2RCL79A4I_14wgpu_3dgs_core13source_format3spzNtB6_12SpzGaussians22write_spz_decompressedINtNtNtCs260Gs8NS7W8_6flate22gz5write9GzEncoderQINtNtNtNtCs9iOHoBythrW_3std2io8buffered9bufwriter9BufWriterNtNtB2z_2fs4FileEEECs3pwSHCqnYTp_9write_spz
FNDA:0,_RINvMs5_NtNtCsap2RCL79A4I_14wgpu_3dgs_core13source_format3spzNtB6_12SpzGaussians27from_gaussians_with_optionsRSNtNtBa_8gaussian8GaussianECs3pwSHCqnYTp_9write_spz
FNDA:0,_RINvMs5_NtNtCsap2RCL79A4I_14wgpu_3dgs_core13source_format3spzNtB6_12SpzGaussians9from_iterINtNtCsj4FhK7DZU1O_5alloc3vec3VecNtB6_11SpzGaussianEECs3pwSHCqnYTp_9write_spz
FNDA:0,_RINvMs5_NtNtCsap2RCL79A4I_14wgpu_3dgs_core13source_format3spzNtB6_12SpzGaussians9write_spzINtNtNtNtCs9iOHoBythrW_3std2io8buffered9bufwriter9BufWriterNtNtB1z_2fs4FileEECs3pwSHCqnYTp_9write_spz
FNDA:0,_RNCINvMs5_NtNtCsap2RCL79A4I_14wgpu_3dgs_core13source_format3spzNtB8_12SpzGaussians27from_gaussians_with_optionsRSNtNtBc_8gaussian8GaussianE0Cs3pwSHCqnYTp_9write_spz
FNDA:0,_RNCINvMs5_NtNtCsap2RCL79A4I_14wgpu_3dgs_core13source_format3spzNtB8_12SpzGaussians9from_iterINtNtCsj4FhK7DZU1O_5alloc3vec3VecNtB8_11SpzGaussianEE0Cs3pwSHCqnYTp_9write_spz
FNDA:0,_RNCINvXsH_NtNtCsap2RCL79A4I_14wgpu_3dgs_core13source_format3spzINtNtCsmHtFwzCQ9E_4core6result6ResultNtB8_15SpzGaussiansShsINtNtBc_5error24SpzGaussiansCollectErrorNtB8_13SpzGaussianShEEINtNtNtNtB14_4iter6traits7collect12FromIteratorB2A_E9from_iterINtNtNtCsj4FhK7DZU1O_5alloc3vec9into_iter8IntoIterB2A_EE0Cs3pwSHCqnYTp_9write_spz
FNDA:0,_RNCINvXsH_NtNtCsap2RCL79A4I_14wgpu_3dgs_core13source_format3spzINtNtCsmHtFwzCQ9E_4core6result6ResultNtB8_15SpzGaussiansShsINtNtBc_5error24SpzGaussiansCollectErrorNtB8_13SpzGaussianShEEINtNtNtNtB14_4iter6traits7collect12FromIteratorB2A_E9from_iterINtNtNtCsj4FhK7DZU1O_5alloc3vec9into_iter8IntoIterB2A_EEs0_0Cs3pwSHCqnYTp_9write_spz
FNDA:0,_RNCINvXsH_NtNtCsap2RCL79A4I_14wgpu_3dgs_core13source_format3spzINtNtCsmHtFwzCQ9E_4core6result6ResultNtB8_15SpzGaussiansShsINtNtBc_5error24SpzGaussiansCollectErrorNtB8_13SpzGaussianShEEINtNtNtNtB14_4iter6traits7collect12FromIteratorB2A_E9from_iterINtNtNtCsj4FhK7DZU1O_5alloc3vec9into_iter8IntoIterB2A_EEs1_0Cs3pwSHCqnYTp_9write_spz
FNDA:0,_RNCINvXsH_NtNtCsap2RCL79A4I_14wgpu_3dgs_core13source_format3spzINtNtCsmHtFwzCQ9E_4core6result6ResultNtB8_15SpzGaussiansShsINtNtBc_5error24SpzGaussiansCollectErrorNtB8_13SpzGaussianShEEINtNtNtNtB14_4iter6traits7collect12FromIteratorB2A_E9from_iterINtNtNtCsj4FhK7DZU1O_5alloc3vec9into_iter8IntoIterB2A_EEs_0Cs3pwSHCqnYTp_9write_spz
FNDA:0,_RNCINvXsb_NtNtCsap2RCL79A4I_14wgpu_3dgs_core13source_format3spzINtNtCsmHtFwzCQ9E_4core6result6ResultNtB8_21SpzGaussiansPositionsINtNtBc_5error24SpzGaussiansCollectErrorNtB8_19SpzGaussianPositionEEINtNtNtNtB14_4iter6traits7collect12FromIteratorB2G_E9from_iterINtNtNtCsj4FhK7DZU1O_5alloc3vec9into_iter8IntoIterB2G_EE0Cs3pwSHCqnYTp_9write_spz
FNDA:0,_RNCINvXsb_NtNtCsap2RCL79A4I_14wgpu_3dgs_core13source_format3spzINtNtCsmHtFwzCQ9E_4core6result6ResultNtB8_21SpzGaussiansPositionsINtNtBc_5error24SpzGaussiansCollectErrorNtB8_19SpzGaussianPositionEEINtNtNtNtB14_4iter6traits7collect12FromIteratorB2G_E9from_iterINtNtNtCsj4FhK7DZU1O_5alloc3vec9into_iter8IntoIterB2G_EEs_0Cs3pwSHCqnYTp_9write_spz
FNDA:0,_RNCINvXsr_NtNtCsap2RCL79A4I_14wgpu_3dgs_core13source_format3spzINtNtCsmHtFwzCQ9E_4core6result6ResultNtB8_21SpzGaussiansRotationsINtNtBc_5error24SpzGaussiansCollectErrorNtB8_19SpzGaussianRotationEEINtNtNtNtB14_4iter6traits7collect12FromIteratorB2G_E9from_iterINtNtNtCsj4FhK7DZU1O_5alloc3vec9into_iter8IntoIterB2G_EE0Cs3pwSHCqnYTp_9write_spz
FNDA:0,_RNCINvXsr_NtNtCsap2RCL79A4I_14wgpu_3dgs_core13source_format3spzINtNtCsmHtFwzCQ9E_4core6result6ResultNtB8_21SpzGaussiansRotationsINtNtBc_5error24SpzGaussiansCollectErrorNtB8_19SpzGaussianRotationEEINtNtNtNtB14_4iter6traits7collect12FromIteratorB2G_E9from_iterINtNtNtCsj4FhK7DZU1O_5alloc3vec9into_iter8IntoIterB2G_EEs_0Cs3pwSHCqnYTp_9write_spz
FNF:51
FNH:48
DA:62,192
DA:65,169
DA:72,192
DA:75,18
DA:76,170
DA:80,192
DA:96,37
DA:97,37
DA:100,3
DA:102,3
DA:105,3
DA:107,3
DA:111,37
DA:114,0
DA:115,0
DA:116,0
DA:119,75
DA:129,75
DA:132,5
DA:133,68
DA:137,75
DA:144,114
DA:145,114
DA:146,114
DA:147,0
DA:151,114
DA:152,114
DA:155,13
DA:157,13
DA:159,13
DA:160,13
DA:161,102
DA:162,102
DA:164,97
DA:165,99
DA:166,3
DA:167,3
DA:168,3
DA:169,3
DA:170,3
DA:171,3
DA:172,3
DA:173,3
DA:175,102
DA:177,13
DA:178,8
DA:182,114
DA:220,0
DA:221,0
DA:222,0
DA:223,0
DA:224,0
DA:225,0
DA:227,0
DA:230,60
DA:231,60
DA:232,0
DA:233,4
DA:234,4
DA:235,52
DA:237,60
DA:255,0
DA:257,0
DA:258,0
DA:259,0
DA:261,0
DA:262,0
DA:263,0
DA:264,0
DA:265,0
DA:268,0
DA:269,0
DA:270,0
DA:271,0
DA:272,0
DA:273,0
DA:274,0
DA:277,0
DA:293,47
DA:294,47
DA:295,2
DA:296,2
DA:297,2
DA:298,41
DA:300,47
DA:337,82
DA:338,82
DA:339,82
DA:340,82
DA:341,82
DA:342,82
DA:343,82
DA:344,82
DA:346,82
DA:347,82
DA:348,82
DA:349,82
DA:350,82
DA:353,82
DA:356,95
DA:357,95
DA:358,0
DA:359,0
DA:360,0
DA:361,0
DA:362,0
DA:363,0
DA:364,0
DA:365,0
DA:366,95
DA:368,95
DA:369,1
DA:370,1
DA:371,1
DA:372,1
DA:373,1
DA:374,1
DA:375,1
DA:376,1
DA:377,94
DA:379,94
DA:380,1
DA:381,1
DA:382,1
DA:383,1
DA:384,1
DA:385,1
DA:386,1
DA:387,1
DA:388,93
DA:390,93
DA:391,95
DA:394,41
DA:395,41
DA:397,41
DA:398,41
DA:399,41
DA:400,41
DA:404,41
DA:407,12
DA:408,12
DA:409,12
DA:412,266
DA:413,266
DA:414,266
DA:419,32
DA:420,32
DA:421,32
DA:424,76
DA:425,76
DA:426,76
DA:429,152
DA:430,152
DA:431,152
DA:434,8
DA:435,8
DA:436,2
DA:437,2
DA:438,2
DA:439,2
DA:440,0
DA:442,8
DA:445,146
DA:446,146
DA:447,146
DA:450,41
DA:451,41
DA:452,41
DA:455,113
DA:456,113
DA:457,113
DA:460,112
DA:461,112
DA:462,112
DA:467,13
DA:468,13
DA:469,13
DA:470,13
DA:471,13
DA:472,13
DA:473,1
DA:474,1
DA:475,1
DA:477,12
DA:478,12
DA:479,12
DA:481,13
DA:484,12
DA:485,12
DA:486,1
DA:487,1
DA:489,11
DA:490,11
DA:493,12
DA:498,13
DA:499,13
DA:500,13
DA:501,13
DA:502,13
DA:503,13
DA:504,3
DA:505,3
DA:506,3
DA:508,10
DA:509,10
DA:510,10
DA:512,13
DA:515,12
DA:516,12
DA:517,2
DA:518,2
DA:520,10
DA:521,10
DA:524,12
DA:529,13
DA:530,13
DA:531,13
DA:532,13
DA:533,13
DA:534,13
DA:535,1
DA:537,1
DA:538,1
DA:539,1
DA:542,1
DA:543,1
DA:544,1
DA:547,10
DA:548,10
DA:549,10
DA:551,0
DA:552,0
DA:553,0
DA:554,0
DA:556,13
DA:559,12
DA:560,12
DA:561,1
DA:562,1
DA:563,1
DA:564,9
DA:566,12
DA:592,26
DA:593,26
DA:594,26
DA:597,1
DA:598,1
DA:599,1
DA:602,2
DA:603,2
DA:604,2
DA:605,2
DA:606,2
DA:611,13
DA:612,13
DA:613,13
DA:614,13
DA:619,13
DA:620,13
DA:621,13
DA:622,13
DA:627,13
DA:628,13
DA:629,13
DA:630,13
DA:631,13
DA:632,13
DA:639,13
DA:640,13
DA:641,13
DA:642,13
DA:643,13
DA:644,13
DA:645,13
DA:647,13
DA:649,13
DA:650,13
DA:652,13
DA:653,13
DA:655,13
DA:656,13
DA:658,13
DA:660,13
DA:662,13
DA:663,13
DA:664,13
DA:665,13
DA:666,13
DA:667,13
DA:668,13
DA:669,13
DA:670,13
DA:671,13
DA:674,1
DA:675,1
DA:676,1
DA:677,1
DA:678,1
DA:683,12
DA:684,12
DA:685,12
DA:686,12
DA:687,12
DA:688,12
DA:693,12
DA:694,12
DA:695,12
DA:696,12
DA:698,12
DA:700,12
DA:702,12
DA:704,12
DA:706,12
DA:708,12
DA:710,12
DA:711,12
DA:714,5
DA:715,5
DA:716,5
DA:717,5
DA:719,5
DA:720,5
DA:723,34
DA:724,34
DA:725,34
DA:726,34
DA:727,34
DA:728,34
DA:730,34
DA:731,34
DA:732,34
DA:733,2
DA:735,32
DA:736,32
DA:737,64
DA:738,64
DA:739,64
DA:740,64
DA:741,64
DA:742,64
DA:744,64
DA:745,32
DA:747,32
DA:749,32
DA:750,32
DA:751,34
DA:754,39
DA:755,39
DA:756,39
DA:757,39
DA:758,39
DA:759,39
DA:760,74
DA:761,74
DA:762,74
DA:763,74
DA:764,74
DA:765,74
DA:766,74
DA:767,74
DA:768,74
DA:769,74
DA:770,39
DA:772,39
DA:773,39
DA:774,39
DA:775,39
DA:777,38
DA:778,38
DA:779,38
DA:780,38
DA:782,37
DA:783,37
DA:784,37
DA:785,37
DA:787,36
DA:788,1
DA:789,1
DA:790,1
DA:791,1
DA:792,35
DA:794,35
DA:796,1
DA:797,1
DA:799,34
DA:801,34
DA:802,34
DA:806,1
DA:807,1
DA:810,1
DA:813,33
DA:815,1
DA:816,33
DA:823,1
DA:824,0
DA:825,1
DA:826,0
DA:827,0
DA:829,1
DA:831,32
DA:833,32
DA:834,32
DA:835,32
DA:836,32
DA:837,32
DA:838,32
DA:839,32
DA:840,32
DA:841,32
DA:842,39
DA:845,25
DA:846,25
DA:847,25
DA:848,25
DA:849,25
DA:850,25
DA:851,25
DA:852,25
DA:854,25
DA:856,57
DA:857,57
DA:858,57
DA:859,57
DA:860,57
DA:861,57
DA:862,57
DA:864,25
DA:868,2
DA:869,11
DA:870,2
DA:874,5
DA:875,5
DA:876,5
DA:901,41
DA:902,41
DA:903,41
DA:904,41
DA:905,41
DA:906,41
DA:907,41
DA:908,41
DA:909,41
DA:910,41
DA:911,41
BRF:0
BRH:0
LF:448
LH:402
end_of_record